 node_expat

 Timestamp is 57960620 (Mon Jul 25 08:29:20 2016)

 Preferred load address is 0000000180000000

 Start         Length     Name                   Class
 0001:00000000 000001e0H .text                   CODE
 0001:000001e0 0002d040H .text$mn                CODE
 0001:0002d220 00000020H .text$mn$00             CODE
 0001:0002d240 00000270H .text$x                 CODE
 0002:00000000 00000278H .idata$5                DATA
 0002:00000278 00000010H .00cfg                  DATA
 0002:00000288 00000008H .CRT$XCA                DATA
 0002:00000290 00000008H .CRT$XCU                DATA
 0002:00000298 00000008H .CRT$XCZ                DATA
 0002:000002a0 00000008H .CRT$XIA                DATA
 0002:000002a8 00000018H .CRT$XIC                DATA
 0002:000002c0 00000008H .CRT$XIZ                DATA
 0002:000002c8 00000008H .CRT$XPA                DATA
 0002:000002d0 00000010H .CRT$XPX                DATA
 0002:000002e0 00000008H .CRT$XPXA               DATA
 0002:000002e8 00000008H .CRT$XPZ                DATA
 0002:000002f0 00000008H .CRT$XTA                DATA
 0002:000002f8 00000008H .CRT$XTZ                DATA
 0002:00000300 0000b3f8H .rdata                  DATA
 0002:0000b6f8 000001f8H .rdata$r                DATA
 0002:0000b8f0 00000010H .rdata$zETW0            DATA
 0002:0000b900 00000077H .rdata$zETW1            DATA
 0002:0000b977 0000002cH .rdata$zETW2            DATA
 0002:0000b9a3 00000001H .rdata$zETW9            DATA
 0002:0000b9a4 00000464H .rdata$zzzdbg           DATA
 0002:0000be08 00000008H .rtc$IAA                DATA
 0002:0000be10 00000008H .rtc$IZZ                DATA
 0002:0000be18 00000008H .rtc$TAA                DATA
 0002:0000be20 00000008H .rtc$TZZ                DATA
 0002:0000be28 00002430H .xdata                  DATA
 0002:0000e258 000000ecH .xdata$x                DATA
 0002:0000e344 00000020H .didat$2                DATA
 0002:0000e364 00000024H .didat$3                DATA
 0002:0000e388 000001c8H .didat$4                DATA
 0002:0000e550 00000e28H .didat$6                DATA
 0002:0000f378 000001c8H .didat$7                DATA
 0002:0000f540 00000058H .edata                  DATA
 0002:0000f598 00000028H .idata$2                DATA
 0002:0000f5c0 00000018H .idata$3                DATA
 0002:0000f5d8 00000278H .idata$4                DATA
 0002:0000f850 000005c4H .idata$6                DATA
 0003:00000000 000009b8H .data                   DATA
 0003:000009b8 000000a0H .data$r                 DATA
 0003:00000a58 000001c8H .didat$5                DATA
 0003:00000c20 00001200H .bss                    DATA
 0004:00000000 00002cb8H .pdata                  DATA
 0005:00000000 00000084H .gfids$x                DATA
 0005:00000084 00000038H .gfids$y                DATA
 0006:00000000 00000060H .rsrc$01                DATA
 0006:00000060 00000180H .rsrc$02                DATA

  Address         Publics by Value              Rva+Base               Lib:Object

 0000:00000000       __dynamic_value_reloc_table 0000000000000000     <absolute>
 0000:00000000       __guard_longjmp_table      0000000000000000     <absolute>
 0000:00000000       __guard_longjmp_count      0000000000000000     <absolute>
 0000:00000000       __guard_iat_count          0000000000000000     <absolute>
 0000:00000000       __guard_fids_count         0000000000000000     <absolute>
 0000:00000000       __guard_iat_table          0000000000000000     <absolute>
 0000:00000000       ___safe_se_handler_table   0000000000000000     <absolute>
 0000:00000000       ___safe_se_handler_count   0000000000000000     <absolute>
 0000:00000000       __guard_fids_table         0000000000000000     <absolute>
 0000:00000100       __guard_flags              0000000000000100     <absolute>
 0000:00000000       __ImageBase                0000000180000000     <linker-defined>
 0001:00000000       ?TraceLoggingRegister@__vcrt_trace_logging_provider@@YAJPEBU_TlgProvider_t@1@PEBU_GUID@@P6AX1KE_K2PEAU_EVENT_FILTER_DESCRIPTOR@@PEAX@Z4@Z 0000000180001000 f i libvcruntime:telemetry.obj
 0001:0000007c       ?_TlgEnableCallback@__vcrt_trace_logging_provider@@YAXPEBU_GUID@@KE_K1PEAU_EVENT_FILTER_DESCRIPTOR@@PEAX@Z 000000018000107c f i libvcruntime:telemetry.obj
 0001:00000140       ?_TlgWrite@__vcrt_trace_logging_provider@@YAJPEBU_TlgProvider_t@1@PEFBXPEBU_GUID@@2IPEAU_EVENT_DATA_DESCRIPTOR@@@Z 0000000180001140 f i libvcruntime:telemetry.obj
 0001:00000290       ?New@?$Factory@VFunctionTemplate@v8@@@imp@Nan@@SA?AV?$Local@VFunctionTemplate@v8@@@v8@@P6AXAEBV?$FunctionCallbackInfo@VValue@v8@@@3@@ZV?$Local@VValue@v8@@@5@V?$Local@VSignature@v8@@@5@@Z 0000000180001290 f i node-expat.obj
 0001:00000420       ?ThrowError@Nan@@YAXPEBD@Z 0000000180001420 f i node-expat.obj
 0001:000004b0       ?ThrowTypeError@Nan@@YAXPEBD@Z 00000001800014b0 f i node-expat.obj
 0001:00000540       ??0Utf8String@Nan@@QEAA@V?$Local@VValue@v8@@@v8@@@Z 0000000180001540 f i node-expat.obj
 0001:00000630       ?SetPrototypeMethod@Nan@@YAXV?$Local@VFunctionTemplate@v8@@@v8@@PEBDP6AXAEBV?$FunctionCallbackInfo@VValue@v8@@@1@@Z@Z 0000000180001630 f i node-expat.obj
 0001:00000720       ??1ObjectWrap@Nan@@UEAA@XZ 0000000180001720 f i node-expat.obj
 0001:00000790       ?Wrap@ObjectWrap@Nan@@IEAAXV?$Local@VObject@v8@@@v8@@@Z 0000000180001790 f i node-expat.obj
 0001:00000870       ?Ref@ObjectWrap@Nan@@MEAAXXZ 0000000180001870 f i node-expat.obj
 0001:000008b0       ?Unref@ObjectWrap@Nan@@MEAAXXZ 00000001800018b0 f i node-expat.obj
 0001:00000960       ?WeakCallback@ObjectWrap@Nan@@CAXAEBV?$WeakCallbackInfo@VObjectWrap@Nan@@@v8@@@Z 0000000180001960 f i node-expat.obj
 0001:000009f0       ??_GObjectWrap@Nan@@UEAAPEAXI@Z 00000001800019f0 f i node-expat.obj
 0001:000009f0       ??_EObjectWrap@Nan@@UEAAPEAXI@Z 00000001800019f0 f i * CIL library *:* CIL module *
 0001:00000a30       ?Initialize@Parser@@SAXV?$Local@VObject@v8@@@v8@@@Z 0000000180001a30 f i node-expat.obj
 0001:00000c80       ?New@Parser@@KAXAEBV?$FunctionCallbackInfo@VValue@v8@@@Nan@@@Z 0000000180001c80 f i node-expat.obj
 0001:00000e40       ?attachHandlers@Parser@@IEAAXXZ 0000000180001e40 f i node-expat.obj
 0001:00000f00       ?Parse@Parser@@KAXAEBV?$FunctionCallbackInfo@VValue@v8@@@Nan@@@Z 0000000180001f00 f i node-expat.obj
 0001:00001140       ?parseString@Parser@@IEAA_NAEAVString@v8@@H@Z 0000000180002140 f i node-expat.obj
 0001:00001210       ?SetEncoding@Parser@@KAXAEBV?$FunctionCallbackInfo@VValue@v8@@@Nan@@@Z 0000000180002210 f i node-expat.obj
 0001:000013a0       ?setEncoding@Parser@@IEAAHPEAD@Z 00000001800023a0 f i node-expat.obj
 0001:00001430       ?GetError@Parser@@KAXAEBV?$FunctionCallbackInfo@VValue@v8@@@Nan@@@Z 0000000180002430 f i node-expat.obj
 0001:00001520       ?Stop@Parser@@KAXAEBV?$FunctionCallbackInfo@VValue@v8@@@Nan@@@Z 0000000180002520 f i node-expat.obj
 0001:00001600       ?Resume@Parser@@KAXAEBV?$FunctionCallbackInfo@VValue@v8@@@Nan@@@Z 0000000180002600 f i node-expat.obj
 0001:000016a0       ?Reset@Parser@@KAXAEBV?$FunctionCallbackInfo@VValue@v8@@@Nan@@@Z 00000001800026a0 f i node-expat.obj
 0001:00001860       ?GetCurrentLineNumber@Parser@@KAXAEBV?$FunctionCallbackInfo@VValue@v8@@@Nan@@@Z 0000000180002860 f i node-expat.obj
 0001:00001960       ?GetCurrentColumnNumber@Parser@@KAXAEBV?$FunctionCallbackInfo@VValue@v8@@@Nan@@@Z 0000000180002960 f i node-expat.obj
 0001:00001a60       ?GetCurrentByteIndex@Parser@@KAXAEBV?$FunctionCallbackInfo@VValue@v8@@@Nan@@@Z 0000000180002a60 f i node-expat.obj
 0001:00001b40       ?StartElement@Parser@@CAXPEAXPEBDPEAPEBD@Z 0000000180002b40 f i node-expat.obj
 0001:00001da0       ?EndElement@Parser@@CAXPEAXPEBD@Z 0000000180002da0 f i node-expat.obj
 0001:00001e70       ?StartCdata@Parser@@CAXPEAX@Z 0000000180002e70 f i node-expat.obj
 0001:00001ef0       ?EndCdata@Parser@@CAXPEAX@Z 0000000180002ef0 f i node-expat.obj
 0001:00001f70       ?Text@Parser@@CAXPEAXPEBDH@Z 0000000180002f70 f i node-expat.obj
 0001:00002050       ?ProcessingInstruction@Parser@@CAXPEAXPEBD1@Z 0000000180003050 f i node-expat.obj
 0001:00002170       ?Comment@Parser@@CAXPEAXPEBD@Z 0000000180003170 f i node-expat.obj
 0001:00002240       ?XmlDecl@Parser@@CAXPEAXPEBD1H@Z 0000000180003240 f i node-expat.obj
 0001:000023c0       ?EntityDecl@Parser@@CAXPEAXPEBDH1H1111@Z 00000001800033c0 f i node-expat.obj
 0001:00002670       ?UnknownEncoding@Parser@@CAHPEAXPEBDPEAUXML_Encoding@@@Z 0000000180003670 f i node-expat.obj
 0001:00002780       ?SetUnknownEncoding@Parser@@CAXAEBV?$FunctionCallbackInfo@VValue@v8@@@Nan@@@Z 0000000180003780 f i node-expat.obj
 0001:000029a0       ?Emit@Parser@@AEAAXHQEAV?$Local@VValue@v8@@@v8@@@Z 00000001800039a0 f i node-expat.obj
 0001:00002a70       ??_GParser@@MEAAPEAXI@Z    0000000180003a70 f i node-expat.obj
 0001:00002a70       ??_EParser@@MEAAPEAXI@Z    0000000180003a70 f i * CIL library *:* CIL module *
 0001:00002ae0       ??$Unwrap@VParser@@@ObjectWrap@Nan@@SAPEAVParser@@V?$Local@VObject@v8@@@v8@@@Z 0000000180003ae0 f i node-expat.obj
 0001:00003010       XML_ParserReset            0000000180004010 f   libexpat:xmlparse.obj
 0001:00003220       XML_ParserFree             0000000180004220 f   libexpat:xmlparse.obj
 0001:00003440       XML_Parse                  0000000180004440 f   libexpat:xmlparse.obj
 0001:000035c0       XML_ParseBuffer            00000001800045c0 f   libexpat:xmlparse.obj
 0001:00003710       XML_GetBuffer              0000000180004710 f   libexpat:xmlparse.obj
 0001:000038e0       XML_ResumeParser           00000001800048e0 f   libexpat:xmlparse.obj
 0001:00017f10       XmlUtf8Encode              0000000180018f10 f   libexpat:xmltok.obj
 0001:00018360       XmlInitUnknownEncoding     0000000180019360 f   libexpat:xmltok.obj
 0001:00018ac0       XmlInitEncoding            0000000180019ac0 f   libexpat:xmltok.obj
 0001:00018c80       XmlParseXmlDecl            0000000180019c80 f   libexpat:xmltok.obj
 0001:00019010       XmlInitEncodingNS          000000018001a010 f   libexpat:xmltok.obj
 0001:000191d0       XmlParseXmlDeclNS          000000018001a1d0 f   libexpat:xmltok.obj
 0001:00019240       XmlInitUnknownEncodingNS   000000018001a240 f   libexpat:xmltok.obj
 0001:0001ad16       __imp_load_?Value@External@v8@@QEBAPEAXXZ 000000018001bd16 f   node:node.exe
 0001:0001ad22       __tailMerge_node_exe       000000018001bd22 f i node:node.exe
 0001:0001ad9b       __imp_load_?New@External@v8@@SA?AV?$Local@VExternal@v8@@@2@PEAVIsolate@2@PEAX@Z 000000018001bd9b f   node:node.exe
 0001:0001ada7       __imp_load_?NewFromUnsigned@Integer@v8@@SA?AV?$Local@VInteger@v8@@@2@PEAVIsolate@2@I@Z 000000018001bda7 f   node:node.exe
 0001:0001adb3       __imp_load_?New@Integer@v8@@SA?AV?$Local@VInteger@v8@@@2@PEAVIsolate@2@H@Z 000000018001bdb3 f   node:node.exe
 0001:0001adbf       __imp_load_?New@Signature@v8@@SA?AV?$Local@VSignature@v8@@@2@PEAVIsolate@2@V?$Local@VFunctionTemplate@v8@@@2@@Z 000000018001bdbf f   node:node.exe
 0001:0001adcb       __imp_load_?ThrowException@Isolate@v8@@QEAA?AV?$Local@VValue@v8@@@2@V32@@Z 000000018001bdcb f   node:node.exe
 0001:0001add7       __imp_load_?GetCurrentContext@Isolate@v8@@QEAA?AV?$Local@VContext@v8@@@2@XZ 000000018001bdd7 f   node:node.exe
 0001:0001ade3       __imp_load_?GetCurrent@Isolate@v8@@SAPEAV12@XZ 000000018001bde3 f   node:node.exe
 0001:0001adef       __imp_load_?CreateHandle@HandleScope@v8@@KAPEAPEAVObject@internal@2@PEAVIsolate@42@PEAV342@@Z 000000018001bdef f   node:node.exe
 0001:0001adfb       __imp_load_?CreateHandle@HandleScope@v8@@CAPEAPEAVObject@internal@2@PEAVHeapObject@42@PEAV342@@Z 000000018001bdfb f   node:node.exe
 0001:0001ae07       __imp_load_??1HandleScope@v8@@QEAA@XZ 000000018001be07 f   node:node.exe
 0001:0001ae13       __imp_load_??0HandleScope@v8@@QEAA@PEAVIsolate@1@@Z 000000018001be13 f   node:node.exe
 0001:0001ae1f       __imp_load_?Set@Template@v8@@QEAAXV?$Local@VName@v8@@@2@V?$Local@VData@v8@@@2@W4PropertyAttribute@2@@Z 000000018001be1f f   node:node.exe
 0001:0001ae2b       __imp_load_?Error@Exception@v8@@SA?AV?$Local@VValue@v8@@@2@V?$Local@VString@v8@@@2@@Z 000000018001be2b f   node:node.exe
 0001:0001ae37       __imp_load_?TypeError@Exception@v8@@SA?AV?$Local@VValue@v8@@@2@V?$Local@VString@v8@@@2@@Z 000000018001be37 f   node:node.exe
 0001:0001ae43       __imp_load_?SetClassName@FunctionTemplate@v8@@QEAAXV?$Local@VString@v8@@@2@@Z 000000018001be43 f   node:node.exe
 0001:0001ae4f       __imp_load_?PrototypeTemplate@FunctionTemplate@v8@@QEAA?AV?$Local@VObjectTemplate@v8@@@2@XZ 000000018001be4f f   node:node.exe
 0001:0001ae5b       __imp_load_?InstanceTemplate@FunctionTemplate@v8@@QEAA?AV?$Local@VObjectTemplate@v8@@@2@XZ 000000018001be5b f   node:node.exe
 0001:0001ae67       __imp_load_?GetFunction@FunctionTemplate@v8@@QEAA?AV?$Local@VFunction@v8@@@2@XZ 000000018001be67 f   node:node.exe
 0001:0001ae73       __imp_load_?New@FunctionTemplate@v8@@SA?AV?$Local@VFunctionTemplate@v8@@@2@PEAVIsolate@2@P6AXAEBV?$FunctionCallbackInfo@VValue@v8@@@2@@ZV?$Local@VValue@v8@@@2@V?$Local@VSignature@v8@@@2@H@Z 000000018001be73 f   node:node.exe
 0001:0001ae7f       __imp_load_?ToLocalEmpty@V8@v8@@CAXXZ 000000018001be7f f   node:node.exe
 0001:0001ae8b       __imp_load_?ClearWeak@V8@v8@@CAPEAXPEAPEAVObject@internal@2@@Z 000000018001be8b f   node:node.exe
 0001:0001ae97       __imp_load_?MakeWeak@V8@v8@@CAXPEAPEAVObject@internal@2@PEAXP6AXAEBV?$WeakCallbackInfo@X@2@@ZW4WeakCallbackType@2@@Z 000000018001be97 f   node:node.exe
 0001:0001aea3       __imp_load_?DisposeGlobal@V8@v8@@CAXPEAPEAVObject@internal@2@@Z 000000018001bea3 f   node:node.exe
 0001:0001aeaf       __imp_load_?GlobalizeReference@V8@v8@@CAPEAPEAVObject@internal@2@PEAVIsolate@42@PEAPEAV342@@Z 000000018001beaf f   node:node.exe
 0001:0001aebb       __imp_load_?Int32Value@Value@v8@@QEBAHXZ 000000018001bebb f   node:node.exe
 0001:0001aec7       __imp_load_?ToInt32@Value@v8@@QEBA?AV?$MaybeLocal@VInt32@v8@@@2@V?$Local@VContext@v8@@@2@@Z 000000018001bec7 f   node:node.exe
 0001:0001aed3       __imp_load_?ToUint32@Value@v8@@QEBA?AV?$MaybeLocal@VUint32@v8@@@2@V?$Local@VContext@v8@@@2@@Z 000000018001bed3 f   node:node.exe
 0001:0001aedf       __imp_load_?IsInt32@Value@v8@@QEBA_NXZ 000000018001bedf f   node:node.exe
 0001:0001aeeb       __imp_load_?IsObject@Value@v8@@QEBA_NXZ 000000018001beeb f   node:node.exe
 0001:0001aef7       __imp_load_?IsArray@Value@v8@@QEBA_NXZ 000000018001bef7 f   node:node.exe
 0001:0001af03       __imp_load_?IsTrue@Value@v8@@QEBA_NXZ 000000018001bf03 f   node:node.exe
 0001:0001af0f       __imp_load_?Escape@EscapableHandleScope@v8@@AEAAPEAPEAVObject@internal@2@PEAPEAV342@@Z 000000018001bf0f f   node:node.exe
 0001:0001af1b       __imp_load_??0EscapableHandleScope@v8@@QEAA@PEAVIsolate@1@@Z 000000018001bf1b f   node:node.exe
 0001:0001af27       __imp_load_?NewFromUtf8@String@v8@@SA?AV?$MaybeLocal@VString@v8@@@2@PEAVIsolate@2@PEBDW4NewStringType@2@H@Z 000000018001bf27 f   node:node.exe
 0001:0001af33       __imp_load_?WriteUtf8@String@v8@@QEBAHPEADHPEAHH@Z 000000018001bf33 f   node:node.exe
 0001:0001af3f       __imp_load_?Utf8Length@String@v8@@QEBAHXZ 000000018001bf3f f   node:node.exe
 0001:0001af4b       __imp_load_?Length@String@v8@@QEBAHXZ 000000018001bf4b f   node:node.exe
 0001:0001af57       __imp_load_?SlowGetAlignedPointerFromInternalField@Object@v8@@AEAAPEAXH@Z 000000018001bf57 f   node:node.exe
 0001:0001af63       __imp_load_?SlowGetInternalField@Object@v8@@AEAA?AV?$Local@VValue@v8@@@2@H@Z 000000018001bf63 f   node:node.exe
 0001:0001af6f       __imp_load_?New@Object@v8@@SA?AV?$Local@VObject@v8@@@2@PEAVIsolate@2@@Z 000000018001bf6f f   node:node.exe
 0001:0001af7b       __imp_load_?SetAlignedPointerInInternalField@Object@v8@@QEAAXHPEAX@Z 000000018001bf7b f   node:node.exe
 0001:0001af87       __imp_load_?SetInternalField@Object@v8@@QEAAXHV?$Local@VValue@v8@@@2@@Z 000000018001bf87 f   node:node.exe
 0001:0001af93       __imp_load_?InternalFieldCount@Object@v8@@QEAAHXZ 000000018001bf93 f   node:node.exe
 0001:0001af9f       __imp_load_?Get@Object@v8@@QEAA?AV?$Local@VValue@v8@@@2@V32@@Z 000000018001bf9f f   node:node.exe
 0001:0001afab       __imp_load_?Set@Object@v8@@QEAA_NV?$Local@VValue@v8@@@2@0@Z 000000018001bfab f   node:node.exe
 0001:0001afb7       __imp_load_?Call@Function@v8@@QEAA?AV?$Local@VValue@v8@@@2@V32@HQEAV32@@Z 000000018001bfb7 f   node:node.exe
 0001:0001afc3       __imp_load_?SetInternalFieldCount@ObjectTemplate@v8@@QEAAXH@Z 000000018001bfc3 f   node:node.exe
 0001:0001afcf       __imp_load_?NewInstance@ObjectTemplate@v8@@QEAA?AV?$MaybeLocal@VObject@v8@@@2@V?$Local@VContext@v8@@@2@@Z 000000018001bfcf f   node:node.exe
 0001:0001afdb       __imp_load_?New@ObjectTemplate@v8@@SA?AV?$Local@VObjectTemplate@v8@@@2@PEAVIsolate@2@V?$Local@VFunctionTemplate@v8@@@2@@Z 000000018001bfdb f   node:node.exe
 0001:0001afe7       __imp_load_node_module_register 000000018001bfe7 f   node:node.exe
 0001:0001aff3       __imp_load_?HasInstance@Buffer@node@@YA_NV?$Local@VObject@v8@@@v8@@@Z 000000018001bff3 f   node:node.exe
 0001:0001afff       __imp_load_?Data@Buffer@node@@YAPEADV?$Local@VObject@v8@@@v8@@@Z 000000018001bfff f   node:node.exe
 0001:0001b00b       __imp_load_?Length@Buffer@node@@YA_KV?$Local@VObject@v8@@@v8@@@Z 000000018001c00b f   node:node.exe
 0001:0001b017       __imp_load_?ToObject@Value@v8@@QEBA?AV?$Local@VObject@v8@@@2@XZ 000000018001c017 f   node:node.exe
 0001:0001b023       __imp_load_?ToString@Value@v8@@QEBA?AV?$Local@VString@v8@@@2@XZ 000000018001c023 f   node:node.exe
 0001:0001b040       __security_check_cookie    000000018001c040 f   LIBCMT:_amdsecgs_.obj
 0001:0001b064       ??2@YAPEAX_K@Z             000000018001c064 f   LIBCMT:new_scalar.obj
 0001:0001b0a0       ??_V@YAXPEAX@Z             000000018001c0a0 f   LIBCMT:delete_array.obj
 0001:0001b0a0       ??3@YAXPEAX_K@Z            000000018001c0a0 f   LIBCMT:delete_scalar_size.obj
 0001:0001b0a8       ??_U@YAPEAX_K@Z            000000018001c0a8 f   LIBCMT:new_array.obj
 0001:0001b420       _DllMainCRTStartup         000000018001c420 f   LIBCMT:dll_dllmain.obj
 0001:0001b460       __raise_securityfailure    000000018001c460 f   LIBCMT:gs_report.obj
 0001:0001b494       __report_gsfailure         000000018001c494 f   LIBCMT:gs_report.obj
 0001:0001b568       __report_rangecheckfailure 000000018001c568 f   LIBCMT:gs_report.obj
 0001:0001b57c       __report_securityfailure   000000018001c57c f   LIBCMT:gs_report.obj
 0001:0001b6fc       ??3@YAXPEAX@Z              000000018001c6fc f   LIBCMT:delete_scalar.obj
 0001:0001b704       ??0bad_alloc@std@@QEAA@AEBV01@@Z 000000018001c704 f i LIBCMT:throw_bad_alloc.obj
 0001:0001b744       ??0bad_alloc@std@@QEAA@XZ  000000018001c744 f i LIBCMT:throw_bad_alloc.obj
 0001:0001b764       ??0bad_array_new_length@std@@QEAA@AEBV01@@Z 000000018001c764 f i LIBCMT:throw_bad_alloc.obj
 0001:0001b7a4       ??0bad_array_new_length@std@@QEAA@XZ 000000018001c7a4 f i LIBCMT:throw_bad_alloc.obj
 0001:0001b7c4       ??0exception@std@@QEAA@AEBV01@@Z 000000018001c7c4 f i LIBCMT:throw_bad_alloc.obj
 0001:0001b7fc       ??1bad_array_new_length@std@@UEAA@XZ 000000018001c7fc f i LIBCMT:throw_bad_alloc.obj
 0001:0001b7fc       ??1bad_alloc@std@@UEAA@XZ  000000018001c7fc f i LIBCMT:throw_bad_alloc.obj
 0001:0001b810       ??_Gexception@std@@UEAAPEAXI@Z 000000018001c810 f i LIBCMT:throw_bad_alloc.obj
 0001:0001b810       ??_Ebad_alloc@std@@UEAAPEAXI@Z 000000018001c810 f i LIBCMT:throw_bad_alloc.obj
 0001:0001b810       ??_Ebad_array_new_length@std@@UEAAPEAXI@Z 000000018001c810 f i LIBCMT:throw_bad_alloc.obj
 0001:0001b810       ??_Eexception@std@@UEAAPEAXI@Z 000000018001c810 f i LIBCMT:throw_bad_alloc.obj
 0001:0001b810       ??_Gbad_alloc@std@@UEAAPEAXI@Z 000000018001c810 f i LIBCMT:throw_bad_alloc.obj
 0001:0001b810       ??_Gbad_array_new_length@std@@UEAAPEAXI@Z 000000018001c810 f i LIBCMT:throw_bad_alloc.obj
 0001:0001b854       ?__scrt_throw_std_bad_alloc@@YAXXZ 000000018001c854 f   LIBCMT:throw_bad_alloc.obj
 0001:0001b874       ?__scrt_throw_std_bad_array_new_length@@YAXXZ 000000018001c874 f   LIBCMT:throw_bad_alloc.obj
 0001:0001b894       ?what@exception@std@@UEBAPEBDXZ 000000018001c894 f i LIBCMT:throw_bad_alloc.obj
 0001:0001b8a8       __scrt_acquire_startup_lock 000000018001c8a8 f   LIBCMT:utility.obj
 0001:0001b8e4       __scrt_dllmain_after_initialize_c 000000018001c8e4 f   LIBCMT:utility.obj
 0001:0001b918       __scrt_dllmain_before_initialize_c 000000018001c918 f   LIBCMT:utility.obj
 0001:0001b930       __scrt_dllmain_crt_thread_attach 000000018001c930 f   LIBCMT:utility.obj
 0001:0001b958       __scrt_dllmain_crt_thread_detach 000000018001c958 f   LIBCMT:utility.obj
 0001:0001b970       __scrt_dllmain_exception_filter 000000018001c970 f   LIBCMT:utility.obj
 0001:0001b9d4       __scrt_dllmain_uninitialize_c 000000018001c9d4 f   LIBCMT:utility.obj
 0001:0001ba04       __scrt_dllmain_uninitialize_critical 000000018001ca04 f   LIBCMT:utility.obj
 0001:0001ba18       __scrt_initialize_crt      000000018001ca18 f   LIBCMT:utility.obj
 0001:0001ba64       __scrt_initialize_onexit_tables 000000018001ca64 f   LIBCMT:utility.obj
 0001:0001bb30       __scrt_is_nonwritable_in_current_image 000000018001cb30 f   LIBCMT:utility.obj
 0001:0001bbcc       __scrt_release_startup_lock 000000018001cbcc f   LIBCMT:utility.obj
 0001:0001bbf0       __scrt_uninitialize_crt    000000018001cbf0 f   LIBCMT:utility.obj
 0001:0001bc1c       _onexit                    000000018001cc1c f   LIBCMT:utility.obj
 0001:0001bc6c       atexit                     000000018001cc6c f   LIBCMT:utility.obj
 0001:0001bc84       __security_init_cookie     000000018001cc84 f   LIBCMT:gs_support.obj
 0001:0001bd30       DllMain                    000000018001cd30 f   LIBCMT:dll_dllmain_stub.obj
 0001:0001bd30       _get_startup_argv_mode     000000018001cd30 f   LIBCMT:argv_mode.obj
 0001:0001bd38       ?__scrt_initialize_type_info@@YAXXZ 000000018001cd38 f   LIBCMT:tncleanup.obj
 0001:0001bd48       ?__scrt_uninitialize_type_info@@YAXXZ 000000018001cd48 f   LIBCMT:tncleanup.obj
 0001:0001bd54       __local_stdio_printf_options 000000018001cd54 f i LIBCMT:default_local_stdio_options.obj
 0001:0001bd5c       __local_stdio_scanf_options 000000018001cd5c f i LIBCMT:default_local_stdio_options.obj
 0001:0001bd64       __scrt_initialize_default_local_stdio_options 000000018001cd64 f   LIBCMT:default_local_stdio_options.obj
 0001:0001bd80       __scrt_get_dyn_tls_init_callback 000000018001cd80 f   LIBCMT:dyn_tls_init.obj
 0001:0001bd88       __crt_debugger_hook        000000018001cd88 f   LIBCMT:utility_desktop.obj
 0001:0001bd90       __scrt_fastfail            000000018001cd90 f   LIBCMT:utility_desktop.obj
 0001:0001bed8       _RTC_Initialize            000000018001ced8 f   LIBCMT:_initsect_.obj
 0001:0001bf24       _RTC_Terminate             000000018001cf24 f   LIBCMT:_initsect_.obj
 0001:0001bf70       _guard_check_icall         000000018001cf70 f i LIBCMT:checkcfg.obj
 0001:0001bf78       ??_Etype_info@@UEAAPEAXI@Z 000000018001cf78 f i LIBCMT:std_type_info_static.obj
 0001:0001bf78       ??_Gtype_info@@UEAAPEAXI@Z 000000018001cf78 f i LIBCMT:std_type_info_static.obj
 0001:0001bfa4       __isa_available_init       000000018001cfa4 f   LIBCMT:_cpu_disp_.obj
 0001:0001c168       __scrt_is_ucrt_dll_in_use  000000018001d168 f   LIBCMT:ucrt_detection.obj
 0001:0001c174       __except_validate_context_record 000000018001d174 f i libvcruntime:jbcxrval.obj
 0001:0001c174       _guard_check_icall_nop     000000018001d174 f i LIBCMT:guard_support.obj
 0001:0001c190       memmove                    000000018001d190 f   libvcruntime:memcpy.obj
 0001:0001c190       memcpy                     000000018001d190 f   libvcruntime:memcpy.obj
 0001:0001c5cc       __telemetry_main_invoke_trigger 000000018001d5cc f   libvcruntime:telemetry.obj
 0001:0001c6e4       __telemetry_main_return_trigger 000000018001d6e4 f   libvcruntime:telemetry.obj
 0001:0001c7fc       __vcrt_initialize_telemetry_provider 000000018001d7fc f   libvcruntime:telemetry.obj
 0001:0001c810       __vcrt_uninitialize_telemetry_provider 000000018001d810 f   libvcruntime:telemetry.obj
 0001:0001c830       __C_specific_handler       000000018001d830 f   libvcruntime:_chandler_.obj
 0001:0001ca2c       __std_exception_copy       000000018001da2c f   libvcruntime:std_exception.obj
 0001:0001cabc       __std_exception_destroy    000000018001dabc f   libvcruntime:std_exception.obj
 0001:0001cae4       _CxxThrowException         000000018001dae4 f   libvcruntime:throw.obj
 0001:0001cbbc       __vcrt_initialize          000000018001dbbc f   libvcruntime:initialization.obj
 0001:0001cbf4       __vcrt_thread_attach       000000018001dbf4 f   libvcruntime:initialization.obj
 0001:0001cc08       __vcrt_thread_detach       000000018001dc08 f   libvcruntime:initialization.obj
 0001:0001cc1c       __vcrt_uninitialize        000000018001dc1c f   libvcruntime:initialization.obj
 0001:0001cc48       __vcrt_uninitialize_critical 000000018001dc48 f   libvcruntime:initialization.obj
 0001:0001cc58       __std_type_info_destroy_list 000000018001dc58 f   libvcruntime:std_type_info.obj
 0001:0001cca0       memset                     000000018001dca0 f   libvcruntime:memset.obj
 0001:0001d008       __vcrt_EventRegister       000000018001e008 f   libvcruntime:winapi_downlevel.obj
 0001:0001d08c       __vcrt_EventSetInformation 000000018001e08c f   libvcruntime:winapi_downlevel.obj
 0001:0001d110       __vcrt_EventUnregister     000000018001e110 f   libvcruntime:winapi_downlevel.obj
 0001:0001d164       __vcrt_EventWriteTransfer  000000018001e164 f   libvcruntime:winapi_downlevel.obj
 0001:0001d1fc       __vcrt_FlsAlloc            000000018001e1fc f   libvcruntime:winapi_downlevel.obj
 0001:0001d250       __vcrt_FlsFree             000000018001e250 f   libvcruntime:winapi_downlevel.obj
 0001:0001d2a4       __vcrt_FlsGetValue         000000018001e2a4 f   libvcruntime:winapi_downlevel.obj
 0001:0001d2f8       __vcrt_FlsSetValue         000000018001e2f8 f   libvcruntime:winapi_downlevel.obj
 0001:0001d360       __vcrt_InitializeCriticalSectionEx 000000018001e360 f   libvcruntime:winapi_downlevel.obj
 0001:0001d3d8       __vcrt_initialize_winapi_thunks 000000018001e3d8 f   libvcruntime:winapi_downlevel.obj
 0001:0001d410       __vcrt_uninitialize_winapi_thunks 000000018001e410 f   libvcruntime:winapi_downlevel.obj
 0001:0001d460       _local_unwind              000000018001e460 f   libvcruntime:_jmpuwind_.obj
 0001:0001d490       _NLG_Notify                000000018001e490 f   libvcruntime:_jmpuwind_.obj
 0001:0001d4b0       __NLG_Dispatch2            000000018001e4b0 f   libvcruntime:_jmpuwind_.obj
 0001:0001d4c0       __NLG_Return2              000000018001e4c0 f   libvcruntime:_jmpuwind_.obj
 0001:0001d4c4       __vcrt_freefls             000000018001e4c4 f   libvcruntime:per_thread_data.obj
 0001:0001d4e4       __vcrt_freeptd             000000018001e4e4 f   libvcruntime:per_thread_data.obj
 0001:0001d534       __vcrt_getptd_noexit       000000018001e534 f   libvcruntime:per_thread_data.obj
 0001:0001d5ec       __vcrt_initialize_ptd      000000018001e5ec f   libvcruntime:per_thread_data.obj
 0001:0001d62c       __vcrt_uninitialize_ptd    000000018001e62c f   libvcruntime:per_thread_data.obj
 0001:0001d650       __vcrt_initialize_locks    000000018001e650 f   libvcruntime:locks.obj
 0001:0001d698       __vcrt_uninitialize_locks  000000018001e698 f   libvcruntime:locks.obj
 0001:0001d6d0       __vcrt_initialize_pure_virtual_call_handler 000000018001e6d0 f   libvcruntime:purevirt_data.obj
 0001:0001d6f4       free                       000000018001e6f4 f   libucrt:free.obj
 0001:0001e0e4       ??$ftprintf@PEAU_iobuf@@PEB_WAEBQEB_WAEBQEB_WAEBI@?$__crt_char_traits@_W@@SAH$$QEAPEAU_iobuf@@$$QEAPEB_WAEBQEB_W2AEBI@Z 000000018001f0e4 f i libucrt:assert.obj
 0001:0001e10c       _wassert                   000000018001f10c f   libucrt:assert.obj
 0001:0001e190       fwprintf                   000000018001f190 f i libucrt:assert.obj
 0001:0001e1d4       swprintf                   000000018001f1d4 f i libucrt:assert.obj
 0001:0001e228       malloc                     000000018001f228 f   libucrt:malloc.obj
 0001:0001e230       ??0_LocaleUpdate@@QEAA@QEAU__crt_locale_pointers@@@Z 000000018001f230 f i libucrt:stricmp.obj
 0001:0001e2c0       __ascii_stricmp            000000018001f2c0 f   libucrt:stricmp.obj
 0001:0001e2fc       _stricmp                   000000018001f2fc f   libucrt:stricmp.obj
 0001:0001e344       _stricmp_l                 000000018001f344 f   libucrt:stricmp.obj
 0001:0001e3f8       realloc                    000000018001f3f8 f   libucrt:realloc.obj
 0001:0001e400       __acrt_initialize_new_handler 000000018001f400 f   libucrt:new_handler.obj
 0001:0001e408       _callnewh                  000000018001f408 f   libucrt:new_handler.obj
 0001:0001e448       _query_new_handler         000000018001f448 f   libucrt:new_handler.obj
 0001:0001e47c       _initterm                  000000018001f47c f   libucrt:initterm.obj
 0001:0001e4f4       _initterm_e                000000018001f4f4 f   libucrt:initterm.obj
 0001:0001e540       _seh_filter_dll            000000018001f540 f   libucrt:exception_filter.obj
 0001:0001e554       _seh_filter_exe            000000018001f554 f   libucrt:exception_filter.obj
 0001:0001e914       __acrt_initialize_thread_local_exit_callback 000000018001f914 f   libucrt:exit.obj
 0001:0001e91c       _cexit                     000000018001f91c f   libucrt:exit.obj
 0001:0001e92c       _exit                      000000018001f92c f   libucrt:exit.obj
 0001:0001e938       _is_c_termination_complete 000000018001f938 f   libucrt:exit.obj
 0001:0001eafc       __acrt_allocate_buffer_for_argv 000000018001fafc f   libucrt:argv_parsing.obj
 0001:0001eb60       _configure_narrow_argv     000000018001fb60 f   libucrt:argv_parsing.obj
 0001:0001eebc       __dcrt_uninitialize_environments_nolock 000000018001febc f   libucrt:environment_initialization.obj
 0001:0001eef4       _initialize_narrow_environment 000000018001fef4 f   libucrt:environment_initialization.obj
 0001:0001eefc       ??$?RV<lambda_b8c45f8f788dd370798f47cfe8ac3a86>@@AEAV<lambda_4e60a939b0d047cfe11ddc22648dfba9>@@V<lambda_332c3edc96d0294ec56c57d38c1cdfd5>@@@?$__crt_seh_guarded_call@H@@QEAAH$$QEAV<lambda_b8c45f8f788dd370798f47cfe8ac3a86>@@AEAV<lambda_4e60a939b0d047cfe11ddc22648dfba9>@@$$QEAV<lambda_332c3edc96d0294ec56c57d38c1cdfd5>@@@Z 000000018001fefc f i libucrt:onexit.obj
 0001:0001ef38       ??$?RV<lambda_e24bbb7b643b32fcea6fa61b31d4c984>@@AEAV<lambda_275893d493268fdec8709772e3fcec0e>@@V<lambda_9d71df4d7cf3f480f8d633942495c3b0>@@@?$__crt_seh_guarded_call@H@@QEAAH$$QEAV<lambda_e24bbb7b643b32fcea6fa61b31d4c984>@@AEAV<lambda_275893d493268fdec8709772e3fcec0e>@@$$QEAV<lambda_9d71df4d7cf3f480f8d633942495c3b0>@@@Z 000000018001ff38 f i libucrt:onexit.obj
 0001:0001f2b4       _crt_atexit                00000001800202b4 f   libucrt:onexit.obj
 0001:0001f2c4       _execute_onexit_table      00000001800202c4 f   libucrt:onexit.obj
 0001:0001f300       _initialize_onexit_table   0000000180020300 f   libucrt:onexit.obj
 0001:0001f340       _register_onexit_function  0000000180020340 f   libucrt:onexit.obj
 0001:0001f3d0       __acrt_uninitialize_command_line 00000001800203d0 f   libucrt:argv_data.obj
 0001:0001f4c0       __acrt_initialize          00000001800204c0 f   libucrt:initialization.obj
 0001:0001f4d4       __acrt_thread_attach       00000001800204d4 f   libucrt:initialization.obj
 0001:0001f4e8       __acrt_thread_detach       00000001800204e8 f   libucrt:initialization.obj
 0001:0001f4f8       __acrt_uninitialize        00000001800204f8 f   libucrt:initialization.obj
 0001:0001f50c       __acrt_uninitialize_critical 000000018002050c f   libucrt:initialization.obj
 0001:0001f51c       terminate                  000000018002051c f   libucrt:terminate.obj
 0001:0001f544       strcpy_s                   0000000180020544 f   libucrt:strcpy_s.obj
 0001:0001f5a4       _free_base                 00000001800205a4 f   libucrt:free_base.obj
 0001:0001f5e4       _malloc_base               00000001800205e4 f   libucrt:malloc_base.obj
 0001:0001f644       abort                      0000000180020644 f   libucrt:abort.obj
 0001:0001f69c       _calloc_base               000000018002069c f   libucrt:calloc_base.obj
 0001:0001f714       ??$?RV<lambda_7b91131dde12e1c3dfc74ff76b3f2eac>@@AEAV<lambda_dd75445284c072d0bd3768540cc698fa>@@V<lambda_16bc4ecb55b4718497c16bceaea2ceaf>@@@?$__crt_seh_guarded_call@H@@QEAAH$$QEAV<lambda_7b91131dde12e1c3dfc74ff76b3f2eac>@@AEAV<lambda_dd75445284c072d0bd3768540cc698fa>@@$$QEAV<lambda_16bc4ecb55b4718497c16bceaea2ceaf>@@@Z 0000000180020714 f i libucrt:output.obj
 0001:0001f754       ??$ensure_buffer_is_big_enough@D@formatting_buffer@__crt_stdio_output@@QEAA_N_K@Z 0000000180020754 f i libucrt:output.obj
 0001:0001f800       ??$is_wide_character_specifier@_W@__crt_stdio_output@@YA_N_K_WW4length_modifier@0@@Z 0000000180020800 f i libucrt:output.obj
 0001:0001f844       ??$type_case_integer_parse_into_buffer@I@?$output_processor@_WV?$string_output_adapter@_W@__crt_stdio_output@@V?$standard_base@_WV?$string_output_adapter@_W@__crt_stdio_output@@@2@@__crt_stdio_output@@AEAAXII_N@Z 0000000180020844 f i libucrt:output.obj
 0001:0001f844       ??$type_case_integer_parse_into_buffer@I@?$output_processor@_WV?$stream_output_adapter@_W@__crt_stdio_output@@V?$standard_base@_WV?$stream_output_adapter@_W@__crt_stdio_output@@@2@@__crt_stdio_output@@AEAAXII_N@Z 0000000180020844 f i libucrt:output.obj
 0001:0001f8e0       ??$type_case_integer_parse_into_buffer@_K@?$output_processor@_WV?$stream_output_adapter@_W@__crt_stdio_output@@V?$standard_base@_WV?$stream_output_adapter@_W@__crt_stdio_output@@@2@@__crt_stdio_output@@AEAAX_KI_N@Z 00000001800208e0 f i libucrt:output.obj
 0001:0001f8e0       ??$type_case_integer_parse_into_buffer@_K@?$output_processor@_WV?$string_output_adapter@_W@__crt_stdio_output@@V?$standard_base@_WV?$string_output_adapter@_W@__crt_stdio_output@@@2@@__crt_stdio_output@@AEAAX_KI_N@Z 00000001800208e0 f i libucrt:output.obj
 0001:0001f97c       ??$write_multiple_characters@V?$stream_output_adapter@_W@__crt_stdio_output@@D@__crt_stdio_output@@YAXAEBV?$stream_output_adapter@_W@0@DHQEAH@Z 000000018002097c f i libucrt:output.obj
 0001:0001fa0c       ??$write_multiple_characters@V?$string_output_adapter@_W@__crt_stdio_output@@D@__crt_stdio_output@@YAXAEBV?$string_output_adapter@_W@0@DHQEAH@Z 0000000180020a0c f i libucrt:output.obj
 0001:0001fa7c       ??0?$output_processor@_WV?$stream_output_adapter@_W@__crt_stdio_output@@V?$standard_base@_WV?$stream_output_adapter@_W@__crt_stdio_output@@@2@@__crt_stdio_output@@QEAA@AEBV?$stream_output_adapter@_W@1@_KQEB_WQEAU__crt_locale_pointers@@QEAD@Z 0000000180020a7c f i libucrt:output.obj
 0001:0001fa7c       ??0?$output_processor@_WV?$string_output_adapter@_W@__crt_stdio_output@@V?$standard_base@_WV?$string_output_adapter@_W@__crt_stdio_output@@@2@@__crt_stdio_output@@QEAA@AEBV?$string_output_adapter@_W@1@_KQEB_WQEAU__crt_locale_pointers@@QEAD@Z 0000000180020a7c f i libucrt:output.obj
 0001:0001fbec       ?force_decimal_point@__crt_stdio_output@@YAXPEADQEAU__crt_locale_pointers@@@Z 0000000180020bec f i libucrt:output.obj
 0001:0001fc5c       ?parse_int_from_format_string@?$output_processor@_WV?$stream_output_adapter@_W@__crt_stdio_output@@V?$standard_base@_WV?$stream_output_adapter@_W@__crt_stdio_output@@@2@@__crt_stdio_output@@AEAA_NQEAH@Z 0000000180020c5c f i libucrt:output.obj
 0001:0001fc5c       ?parse_int_from_format_string@?$output_processor@_WV?$string_output_adapter@_W@__crt_stdio_output@@V?$standard_base@_WV?$string_output_adapter@_W@__crt_stdio_output@@@2@@__crt_stdio_output@@AEAA_NQEAH@Z 0000000180020c5c f i libucrt:output.obj
 0001:0001fcdc       ?process@?$output_processor@_WV?$stream_output_adapter@_W@__crt_stdio_output@@V?$standard_base@_WV?$stream_output_adapter@_W@__crt_stdio_output@@@2@@__crt_stdio_output@@QEAAHXZ 0000000180020cdc f i libucrt:output.obj
 0001:0001ff54       ?process@?$output_processor@_WV?$string_output_adapter@_W@__crt_stdio_output@@V?$standard_base@_WV?$string_output_adapter@_W@__crt_stdio_output@@@2@@__crt_stdio_output@@QEAAHXZ 0000000180020f54 f i libucrt:output.obj
 0001:000201d0       ?state_case_size@?$output_processor@_WV?$stream_output_adapter@_W@__crt_stdio_output@@V?$standard_base@_WV?$stream_output_adapter@_W@__crt_stdio_output@@@2@@__crt_stdio_output@@AEAA_NXZ 00000001800211d0 f i libucrt:output.obj
 0001:00020374       ?state_case_size@?$output_processor@_WV?$string_output_adapter@_W@__crt_stdio_output@@V?$standard_base@_WV?$string_output_adapter@_W@__crt_stdio_output@@@2@@__crt_stdio_output@@AEAA_NXZ 0000000180021374 f i libucrt:output.obj
 0001:00020518       ?state_case_type@?$output_processor@_WV?$stream_output_adapter@_W@__crt_stdio_output@@V?$standard_base@_WV?$stream_output_adapter@_W@__crt_stdio_output@@@2@@__crt_stdio_output@@AEAA_NXZ 0000000180021518 f i libucrt:output.obj
 0001:000207e4       ?state_case_type@?$output_processor@_WV?$string_output_adapter@_W@__crt_stdio_output@@V?$standard_base@_WV?$string_output_adapter@_W@__crt_stdio_output@@@2@@__crt_stdio_output@@AEAA_NXZ 00000001800217e4 f i libucrt:output.obj
 0001:00020ab0       ?type_case_Z@?$output_processor@_WV?$stream_output_adapter@_W@__crt_stdio_output@@V?$standard_base@_WV?$stream_output_adapter@_W@__crt_stdio_output@@@2@@__crt_stdio_output@@AEAA_NXZ 0000000180021ab0 f i libucrt:output.obj
 0001:00020ab0       ?type_case_Z@?$output_processor@_WV?$string_output_adapter@_W@__crt_stdio_output@@V?$standard_base@_WV?$string_output_adapter@_W@__crt_stdio_output@@@2@@__crt_stdio_output@@AEAA_NXZ 0000000180021ab0 f i libucrt:output.obj
 0001:00020b30       ?type_case_a@?$output_processor@_WV?$stream_output_adapter@_W@__crt_stdio_output@@V?$standard_base@_WV?$stream_output_adapter@_W@__crt_stdio_output@@@2@@__crt_stdio_output@@AEAA_NXZ 0000000180021b30 f i libucrt:output.obj
 0001:00020b30       ?type_case_a@?$output_processor@_WV?$string_output_adapter@_W@__crt_stdio_output@@V?$standard_base@_WV?$string_output_adapter@_W@__crt_stdio_output@@@2@@__crt_stdio_output@@AEAA_NXZ 0000000180021b30 f i libucrt:output.obj
 0001:00020d74       ?type_case_c_tchar@?$output_processor@_WV?$string_output_adapter@_W@__crt_stdio_output@@V?$standard_base@_WV?$string_output_adapter@_W@__crt_stdio_output@@@2@@__crt_stdio_output@@AEAA_N_W@Z 0000000180021d74 f i libucrt:output.obj
 0001:00020d74       ?type_case_c_tchar@?$output_processor@_WV?$stream_output_adapter@_W@__crt_stdio_output@@V?$standard_base@_WV?$stream_output_adapter@_W@__crt_stdio_output@@@2@@__crt_stdio_output@@AEAA_N_W@Z 0000000180021d74 f i libucrt:output.obj
 0001:00020e1c       ?type_case_integer@?$output_processor@_WV?$string_output_adapter@_W@__crt_stdio_output@@V?$standard_base@_WV?$string_output_adapter@_W@__crt_stdio_output@@@2@@__crt_stdio_output@@AEAA_NI_N@Z 0000000180021e1c f i libucrt:output.obj
 0001:00020e1c       ?type_case_integer@?$output_processor@_WV?$stream_output_adapter@_W@__crt_stdio_output@@V?$standard_base@_WV?$stream_output_adapter@_W@__crt_stdio_output@@@2@@__crt_stdio_output@@AEAA_NI_N@Z 0000000180021e1c f i libucrt:output.obj
 0001:00020fbc       ?type_case_n@?$output_processor@_WV?$stream_output_adapter@_W@__crt_stdio_output@@V?$standard_base@_WV?$stream_output_adapter@_W@__crt_stdio_output@@@2@@__crt_stdio_output@@AEAA_NXZ 0000000180021fbc f i libucrt:output.obj
 0001:00020fbc       ?type_case_n@?$output_processor@_WV?$string_output_adapter@_W@__crt_stdio_output@@V?$standard_base@_WV?$string_output_adapter@_W@__crt_stdio_output@@@2@@__crt_stdio_output@@AEAA_NXZ 0000000180021fbc f i libucrt:output.obj
 0001:00021098       ?type_case_s@?$output_processor@_WV?$stream_output_adapter@_W@__crt_stdio_output@@V?$standard_base@_WV?$stream_output_adapter@_W@__crt_stdio_output@@@2@@__crt_stdio_output@@AEAA_NXZ 0000000180022098 f i libucrt:output.obj
 0001:00021098       ?type_case_s@?$output_processor@_WV?$string_output_adapter@_W@__crt_stdio_output@@V?$standard_base@_WV?$string_output_adapter@_W@__crt_stdio_output@@@2@@__crt_stdio_output@@AEAA_NXZ 0000000180022098 f i libucrt:output.obj
 0001:00021160       ?write_stored_string_tchar@?$output_processor@_WV?$stream_output_adapter@_W@__crt_stdio_output@@V?$standard_base@_WV?$stream_output_adapter@_W@__crt_stdio_output@@@2@@__crt_stdio_output@@AEAA_N_W@Z 0000000180022160 f i libucrt:output.obj
 0001:0002124c       ?write_stored_string_tchar@?$output_processor@_WV?$string_output_adapter@_W@__crt_stdio_output@@V?$standard_base@_WV?$string_output_adapter@_W@__crt_stdio_output@@@2@@__crt_stdio_output@@AEAA_N_W@Z 000000018002224c f i libucrt:output.obj
 0001:0002133c       ?write_string@?$stream_output_adapter@_W@__crt_stdio_output@@QEBAXQEB_WHQEAH1@Z 000000018002233c f i libucrt:output.obj
 0001:00021448       ?write_string@?$string_output_adapter@_W@__crt_stdio_output@@QEBAXQEB_WHQEAH1@Z 0000000180022448 f i libucrt:output.obj
 0001:00021508       __stdio_common_vfwprintf   0000000180022508 f   libucrt:output.obj
 0001:00021594       __stdio_common_vswprintf   0000000180022594 f   libucrt:output.obj
 0001:000217cc       ??$is_overflow_condition@K@__crt_strtox@@YA_NIK@Z 00000001800227cc f i libucrt:atox.obj
 0001:000217f8       ??$parse_integer@KV?$c_string_character_source@_W@__crt_strtox@@@__crt_strtox@@YAKQEAU__crt_locale_pointers@@V?$c_string_character_source@_W@0@H_N@Z 00000001800227f8 f i libucrt:atox.obj
 0001:00021ecc       __acrt_call_reportfault    0000000180022ecc f   libucrt:invalid_parameter.obj
 0001:00022028       __acrt_initialize_invalid_parameter_handler 0000000180023028 f   libucrt:invalid_parameter.obj
 0001:00022030       _invalid_parameter         0000000180023030 f   libucrt:invalid_parameter.obj
 0001:000220d8       _invalid_parameter_noinfo  00000001800230d8 f   libucrt:invalid_parameter.obj
 0001:000220f8       _invoke_watson             00000001800230f8 f   libucrt:invalid_parameter.obj
 0001:00022140       _query_app_type            0000000180023140 f   libucrt:report_runtime_error.obj
 0001:00022148       __acrt_errno_from_os_error 0000000180023148 f   libucrt:errno.obj
 0001:00022190       __acrt_errno_map_os_error  0000000180023190 f   libucrt:errno.obj
 0001:000221e0       __doserrno                 00000001800231e0 f   libucrt:errno.obj
 0001:00022200       _errno                     0000000180023200 f   libucrt:errno.obj
 0001:00022348       _itow_s                    0000000180023348 f   libucrt:xtoa.obj
 0001:00022368       _set_error_mode            0000000180023368 f   libucrt:set_error_mode.obj
 0001:000223a8       wcscat_s                   00000001800233a8 f   libucrt:wcscat_s.obj
 0001:00022428       wcscpy_s                   0000000180023428 f   libucrt:wcscpy_s.obj
 0001:00022490       wcsncat_s                  0000000180023490 f   libucrt:wcsncat_s.obj
 0001:000225b8       __acrt_show_wide_message_box 00000001800235b8 f   libucrt:crtmbox.obj
 0001:000226d4       __acrt_initialize_stdio    00000001800236d4 f   libucrt:_file.obj
 0001:000227f4       __acrt_iob_func            00000001800237f4 f   libucrt:_file.obj
 0001:00022808       __acrt_uninitialize_stdio  0000000180023808 f   libucrt:_file.obj
 0001:00022864       _lock_file                 0000000180023864 f   libucrt:_file.obj
 0001:00022870       _unlock_file               0000000180023870 f   libucrt:_file.obj
 0001:0002287c       __acrt_stdio_flush_nolock  000000018002387c f   libucrt:fflush.obj
 0001:000228f4       _fflush_nolock             00000001800238f4 f   libucrt:fflush.obj
 0001:00022940       _flushall                  0000000180023940 f   libucrt:fflush.obj
 0001:00022a30       fflush                     0000000180023a30 f   libucrt:fflush.obj
 0001:00022a74       ??$?RV<lambda_7a5ef57ff966f610505f1d28a3d40618>@@AEAV<lambda_b721fa326cdb32351d23dfa67958c160>@@V<lambda_5e0fb27672408a07956fe59e48ccb2aa>@@@?$__crt_seh_guarded_call@H@@QEAAH$$QEAV<lambda_7a5ef57ff966f610505f1d28a3d40618>@@AEAV<lambda_b721fa326cdb32351d23dfa67958c160>@@$$QEAV<lambda_5e0fb27672408a07956fe59e48ccb2aa>@@@Z 0000000180023a74 f i libucrt:setvbuf.obj
 0001:00022ba4       setvbuf                    0000000180023ba4 f   libucrt:setvbuf.obj
 0001:00022c44       ??$?RV<lambda_c36588078e9f5dfd39652860aa6b3aaf>@@AEAV<lambda_ec61778202f4f5fc7e7711acc23c3bca>@@V<lambda_dc9d2797ccde5d239b4a0efae8ebd7db>@@@?$__crt_seh_guarded_call@P6AXH@Z@@QEAAP6AXH@Z$$QEAV<lambda_c36588078e9f5dfd39652860aa6b3aaf>@@AEAV<lambda_ec61778202f4f5fc7e7711acc23c3bca>@@$$QEAV<lambda_dc9d2797ccde5d239b4a0efae8ebd7db>@@@Z 0000000180023c44 f i libucrt:signal.obj
 0001:00022c8c       __acrt_get_sigabrt_handler 0000000180023c8c f   libucrt:signal.obj
 0001:00022cbc       __acrt_initialize_signal_handlers 0000000180023cbc f   libucrt:signal.obj
 0001:00022cdc       raise                      0000000180023cdc f   libucrt:signal.obj
 0001:00022fc8       _tolower_l                 0000000180023fc8 f   libucrt:tolower_toupper.obj
 0001:00023108       tolower                    0000000180024108 f   libucrt:tolower_toupper.obj
 0001:00023134       ??$?RV<lambda_46352004c1216016012b18bd6f87e700>@@AEAV<lambda_3bd07e1a1191394380780325891bf33f>@@V<lambda_334532d3f185bcaa59b5be82d7d22bff>@@@?$__crt_seh_guarded_call@X@@QEAAX$$QEAV<lambda_46352004c1216016012b18bd6f87e700>@@AEAV<lambda_3bd07e1a1191394380780325891bf33f>@@$$QEAV<lambda_334532d3f185bcaa59b5be82d7d22bff>@@@Z 0000000180024134 f i libucrt:per_thread_data.obj
 0001:00023194       ??$?RV<lambda_5e887d1dcbef67a5eb4283622ba103bf>@@AEAV<lambda_4466841279450cc726390878d4a41900>@@V<lambda_341c25c0346d94847f1f3c463c57e077>@@@?$__crt_seh_guarded_call@X@@QEAAX$$QEAV<lambda_5e887d1dcbef67a5eb4283622ba103bf>@@AEAV<lambda_4466841279450cc726390878d4a41900>@@$$QEAV<lambda_341c25c0346d94847f1f3c463c57e077>@@@Z 0000000180024194 f i libucrt:per_thread_data.obj
 0001:000231dc       ??$?RV<lambda_72d1df2b273a38828b1ce30cbf4cdab5>@@AEAV<lambda_876a65b173b8412d3a47c70a915b0cf4>@@V<lambda_41932305e351933ebe8f8be3ed8bb5dc>@@@?$__crt_seh_guarded_call@X@@QEAAX$$QEAV<lambda_72d1df2b273a38828b1ce30cbf4cdab5>@@AEAV<lambda_876a65b173b8412d3a47c70a915b0cf4>@@$$QEAV<lambda_41932305e351933ebe8f8be3ed8bb5dc>@@@Z 00000001800241dc f i libucrt:per_thread_data.obj
 0001:0002321c       ??$?RV<lambda_fb3a7dec4e47f37f22dae91bb15c9095>@@AEAV<lambda_698284760c8add0bfb0756c19673e34b>@@V<lambda_dfb8eca1e75fef3034a8fb18dd509707>@@@?$__crt_seh_guarded_call@X@@QEAAX$$QEAV<lambda_fb3a7dec4e47f37f22dae91bb15c9095>@@AEAV<lambda_698284760c8add0bfb0756c19673e34b>@@$$QEAV<lambda_dfb8eca1e75fef3034a8fb18dd509707>@@@Z 000000018002421c f i libucrt:per_thread_data.obj
 0001:000234ac       __acrt_freeptd             00000001800244ac f   libucrt:per_thread_data.obj
 0001:000234f0       __acrt_getptd              00000001800244f0 f   libucrt:per_thread_data.obj
 0001:00023584       __acrt_getptd_noexit       0000000180024584 f   libucrt:per_thread_data.obj
 0001:00023624       __acrt_initialize_ptd      0000000180024624 f   libucrt:per_thread_data.obj
 0001:00023660       __acrt_uninitialize_ptd    0000000180024660 f   libucrt:per_thread_data.obj
 0001:00023684       __acrt_update_locale_info  0000000180024684 f   libucrt:locale_update.obj
 0001:000236b8       __acrt_update_multibyte_info 00000001800246b8 f   libucrt:locale_update.obj
 0001:000236ec       __acrt_set_locale_changed  00000001800246ec f   libucrt:wsetlocale.obj
 0001:000236f8       __acrt_uninitialize_locale 00000001800246f8 f   libucrt:wsetlocale.obj
 0001:00023740       _realloc_base              0000000180024740 f   libucrt:realloc_base.obj
 0001:000237c4       __acrt_initialize_locks    00000001800247c4 f   libucrt:locks.obj
 0001:0002380c       __acrt_lock                000000018002480c f   libucrt:locks.obj
 0001:00023828       __acrt_uninitialize_locks  0000000180024828 f   libucrt:locks.obj
 0001:00023860       __acrt_unlock              0000000180024860 f   libucrt:locks.obj
 0001:00023a1c       __acrt_FlsAlloc            0000000180024a1c f   libucrt:winapi_thunks.obj
 0001:00023a74       __acrt_FlsFree             0000000180024a74 f   libucrt:winapi_thunks.obj
 0001:00023acc       __acrt_FlsGetValue         0000000180024acc f   libucrt:winapi_thunks.obj
 0001:00023b24       __acrt_FlsSetValue         0000000180024b24 f   libucrt:winapi_thunks.obj
 0001:00023b8c       __acrt_InitializeCriticalSectionEx 0000000180024b8c f   libucrt:winapi_thunks.obj
 0001:00023c04       __acrt_LCMapStringEx       0000000180024c04 f   libucrt:winapi_thunks.obj
 0001:00023cf4       __acrt_LocaleNameToLCID    0000000180024cf4 f   libucrt:winapi_thunks.obj
 0001:00023d5c       __acrt_MessageBoxW         0000000180024d5c f   libucrt:winapi_thunks.obj
 0001:00023de4       __acrt_can_show_message_box 0000000180024de4 f   libucrt:winapi_thunks.obj
 0001:00023e40       __acrt_get_parent_window   0000000180024e40 f   libucrt:winapi_thunks.obj
 0001:00023ed0       __acrt_initialize_winapi_thunks 0000000180024ed0 f   libucrt:winapi_thunks.obj
 0001:00023f08       __acrt_is_interactive      0000000180024f08 f   libucrt:winapi_thunks.obj
 0001:00023fdc       __acrt_is_packaged_app     0000000180024fdc f   libucrt:winapi_thunks.obj
 0001:00024064       __acrt_uninitialize_winapi_thunks 0000000180025064 f   libucrt:winapi_thunks.obj
 0001:00024584       ?expand_if_necessary@?$argument_list@D@?A0xca0879c4@@AEAAHXZ 0000000180025584 f i libucrt:argv_wildcards.obj
 0001:0002464c       __acrt_expand_narrow_argv_wildcards 000000018002564c f   libucrt:argv_wildcards.obj
 0001:00024654       ??$?RV<lambda_99476a1ad63dd22509b5d3e65b0ffc95>@@AEAV<lambda_ad1ced32f4ac17aa236e5ef05d6b3b7c>@@V<lambda_f7424dd8d45958661754dc4f2697e9c3>@@@?$__crt_seh_guarded_call@X@@QEAAX$$QEAV<lambda_99476a1ad63dd22509b5d3e65b0ffc95>@@AEAV<lambda_ad1ced32f4ac17aa236e5ef05d6b3b7c>@@$$QEAV<lambda_f7424dd8d45958661754dc4f2697e9c3>@@@Z 0000000180025654 f i libucrt:mbctype.obj
 0001:00024d50       __acrt_initialize_multibyte 0000000180025d50 f   libucrt:mbctype.obj
 0001:00024d78       __acrt_update_thread_multibyte_data 0000000180025d78 f   libucrt:mbctype.obj
 0001:00024e38       _setmbcp_nolock            0000000180025e38 f   libucrt:mbctype.obj
 0001:00025158       _ismbblead                 0000000180026158 f   libucrt:ismbbyte.obj
 0001:0002516c       __acrt_initialize_command_line 000000018002616c f   libucrt:argv_data.obj
 0001:00025194       __dcrt_get_narrow_environment_from_os 0000000180026194 f   libucrt:get_environment_from_os.obj
 0001:00025298       _recalloc                  0000000180026298 f   libucrt:recalloc.obj
 0001:000252a0       _recalloc_base             00000001800262a0 f   libucrt:recalloc.obj
 0001:00025338       __acrt_initialize_heap     0000000180026338 f   libucrt:heap_handle.obj
 0001:00025354       __acrt_uninitialize_heap   0000000180026354 f   libucrt:heap_handle.obj
 0001:00025548       __acrt_initialize_lowio    0000000180026548 f   libucrt:ioinit.obj
 0001:00025584       __acrt_uninitialize_lowio  0000000180026584 f   libucrt:ioinit.obj
 0001:000255c4       __acrt_execute_initializers 00000001800265c4 f   libucrt:shared_initialization.obj
 0001:00025658       __acrt_execute_uninitializers 0000000180026658 f   libucrt:shared_initialization.obj
 0001:000256a8       __acrt_has_user_matherr    00000001800266a8 f   libucrt:matherr.obj
 0001:000256c8       __acrt_initialize_user_matherr 00000001800266c8 f   libucrt:matherr.obj
 0001:000256d0       __acrt_invoke_user_matherr 00000001800266d0 f   libucrt:matherr.obj
 0001:00025718       __acrt_stdio_begin_temporary_buffering_nolock 0000000180026718 f   libucrt:_sftbuf.obj
 0001:000257e8       __acrt_stdio_end_temporary_buffering_nolock 00000001800267e8 f   libucrt:_sftbuf.obj
 0001:00025824       _query_new_mode            0000000180026824 f   libucrt:new_mode.obj
 0001:0002582c       isdigit                    000000018002682c f i libucrt:_ctype.obj
 0001:000258a0       ??$make_c_string_character_source@_WPEAPEA_W@__crt_strtox@@YA?AV?$c_string_character_source@_W@0@QEB_WQEAPEA_W@Z 00000001800268a0 f i libucrt:strtox.obj
 0001:000258b4       wcstol                     00000001800268b4 f   libucrt:strtox.obj
 0001:000258e4       _mbtowc_l                  00000001800268e4 f   libucrt:mbtowc.obj
 0001:00025a2c       mbtowc                     0000000180026a2c f   libucrt:mbtowc.obj
 0001:00025a34       _wctomb_s_l                0000000180026a34 f   libucrt:wctomb.obj
 0001:00025bb8       wctomb_s                   0000000180026bb8 f   libucrt:wctomb.obj
 0001:00025bcc       wcsnlen                    0000000180026bcc f   libucrt:strnlen.obj
 0001:00025dbc       ?__acrt_fp_classify@@YA?AW4__acrt_fp_class@@AEBN@Z 0000000180026dbc f i libucrt:cvt.obj
 0001:000267f4       __acrt_fp_format           00000001800277f4 f   libucrt:cvt.obj
 0001:00026a38       _fputwc_nolock             0000000180027a38 f   libucrt:fputwc.obj
 0001:00026bb4       _fileno                    0000000180027bb4 f   libucrt:fileno.obj
 0001:00026bdc       _fputc_nolock              0000000180027bdc f   libucrt:fputc.obj
 0001:00026bf4       _get_printf_count_output   0000000180027bf4 f   libucrt:printf_count_output.obj
 0001:00026c0c       __pctype_func              0000000180027c0c f   libucrt:ctype.obj
 0001:00026c3c       iswctype                   0000000180027c3c f   libucrt:iswctype.obj
 0001:00026cac       _isctype_l                 0000000180027cac f   libucrt:isctype.obj
 0001:00026dbc       _fcloseall                 0000000180027dbc f   libucrt:closeall.obj
 0001:00026e70       __acrt_stdio_free_buffer_nolock 0000000180027e70 f   libucrt:_freebuf.obj
 0001:00026eb0       ??$?RV<lambda_b521505b218e5242e90febf6bfebc422>@@AEAV<lambda_6978c1fb23f02e42e1d9e99668cc68aa>@@V<lambda_314360699dd331753a4119843814e9a7>@@@?$__crt_seh_guarded_call@H@@QEAAH$$QEAV<lambda_b521505b218e5242e90febf6bfebc422>@@AEAV<lambda_6978c1fb23f02e42e1d9e99668cc68aa>@@$$QEAV<lambda_314360699dd331753a4119843814e9a7>@@@Z 0000000180027eb0 f i libucrt:commit.obj
 0001:00026f3c       _commit                    0000000180027f3c f   libucrt:commit.obj
 0001:00027570       _write                     0000000180028570 f   libucrt:write.obj
 0001:0002765c       _write_nolock              000000018002865c f   libucrt:write.obj
 0001:00027940       _isleadbyte_l              0000000180028940 f i libucrt:_wctype.obj
 0001:00027cdc       __acrt_LCMapStringA        0000000180028cdc f   libucrt:lcmapstringa.obj
 0001:00027d74       __acrt_add_locale_ref      0000000180028d74 f   libucrt:locale_refcounting.obj
 0001:00027e00       __acrt_free_locale         0000000180028e00 f   libucrt:locale_refcounting.obj
 0001:00027f78       __acrt_locale_add_lc_time_reference 0000000180028f78 f   libucrt:locale_refcounting.obj
 0001:00027fa0       __acrt_locale_free_lc_time_if_unreferenced 0000000180028fa0 f   libucrt:locale_refcounting.obj
 0001:00027fd8       __acrt_locale_release_lc_time_reference 0000000180028fd8 f   libucrt:locale_refcounting.obj
 0001:00028000       __acrt_release_locale_ref  0000000180029000 f   libucrt:locale_refcounting.obj
 0001:000280a8       __acrt_update_thread_locale_data 00000001800290a8 f   libucrt:locale_refcounting.obj
 0001:00028118       _updatetlocinfoEx_nolock   0000000180029118 f   libucrt:locale_refcounting.obj
 0001:00028180       __acrt_locale_free_monetary 0000000180029180 f   libucrt:initmon.obj
 0001:0002828c       __acrt_locale_free_numeric 000000018002928c f   libucrt:initnum.obj
 0001:00028350       __acrt_locale_free_time    0000000180029350 f   libucrt:inittime.obj
 0001:00028458       __acrt_GetStringTypeA      0000000180029458 f   libucrt:getstringtypea.obj
 0001:000286d4       __acrt_DownlevelLocaleNameToLCID 00000001800296d4 f   libucrt:lcidtoname_downlevel.obj
 0001:000287e0       qsort                      00000001800297e0 f   libucrt:qsort.obj
 0001:00028b14       strncpy_s                  0000000180029b14 f   libucrt:strncpy_s.obj
 0001:00028be8       strpbrk                    0000000180029be8 f   libucrt:strpbrk.obj
 0001:00028c88       _mbsdec                    0000000180029c88 f   libucrt:mbsdec.obj
 0001:00028c90       _mbsdec_l                  0000000180029c90 f   libucrt:mbsdec.obj
 0001:00028d40       _msize                     0000000180029d40 f   libucrt:msize.obj
 0001:00028d7c       __acrt_lowio_create_handle_array 0000000180029d7c f   libucrt:osfinfo.obj
 0001:00028e14       __acrt_lowio_destroy_handle_array 0000000180029e14 f   libucrt:osfinfo.obj
 0001:00028e64       __acrt_lowio_ensure_fh_exists 0000000180029e64 f   libucrt:osfinfo.obj
 0001:00028f1c       __acrt_lowio_lock_fh       0000000180029f1c f   libucrt:osfinfo.obj
 0001:00028f40       __acrt_lowio_unlock_fh     0000000180029f40 f   libucrt:osfinfo.obj
 0001:00028f64       _free_osfhnd               0000000180029f64 f   libucrt:osfinfo.obj
 0001:00029020       _get_osfhandle             000000018002a020 f   libucrt:osfinfo.obj
 0001:00029098       _isatty                    000000018002a098 f   libucrt:isatty.obj
 0001:000290f8       __acrt_fp_strflt_to_string 000000018002a0f8 f   libucrt:_fptostr.obj
 0001:000291c0       ?divide@__crt_strtox@@YA_KAEAUbig_integer@1@AEBU21@@Z 000000018002a1c0 f i libucrt:cfout.obj
 0001:00029690       __acrt_fltout              000000018002a690 f   libucrt:cfout.obj
 0001:0002ac94       __acrt_stdio_flush_and_write_narrow_nolock 000000018002bc94 f   libucrt:_flsbuf.obj
 0001:0002ad7c       __acrt_stdio_flush_and_write_wide_nolock 000000018002bd7c f   libucrt:_flsbuf.obj
 0001:0002ae68       _fclose_nolock             000000018002be68 f   libucrt:fclose.obj
 0001:0002aeec       fclose                     000000018002beec f   libucrt:fclose.obj
 0001:0002b0e4       _lseeki64                  000000018002c0e4 f   libucrt:lseek.obj
 0001:0002b0ec       _lseeki64_nolock           000000018002c0ec f   libucrt:lseek.obj
 0001:0002b0f4       _putwch_nolock             000000018002c0f4 f   libucrt:putwch.obj
 0001:0002b150       __strncnt                  000000018002c150 f   libucrt:strncnt.obj
 0001:0002b168       fegetenv                   000000018002c168 f   libucrt:fegetenv.obj
 0001:0002b188       fesetenv                   000000018002c188 f   libucrt:fesetenv.obj
 0001:0002b1d4       feholdexcept               000000018002c1d4 f   libucrt:feholdexcept.obj
 0001:0002b224       ceil                       000000018002c224 f   libucrt:ceil.obj
 0001:0002b2f0       log10                      000000018002c2f0 f   libucrt:log10.obj
 0001:0002b89c       __acrt_stdio_allocate_buffer_nolock 000000018002c89c f   libucrt:_getbuf.obj
 0001:0002b900       ??$?RV<lambda_bfedae4ebbf01fab1bb6dcc6a9e276e0>@@AEAV<lambda_2fe9b910cf3cbf4a0ab98a02ba45b3ec>@@V<lambda_237c231691f317818eb88cc1d5d642d6>@@@?$__crt_seh_guarded_call@H@@QEAAH$$QEAV<lambda_bfedae4ebbf01fab1bb6dcc6a9e276e0>@@AEAV<lambda_2fe9b910cf3cbf4a0ab98a02ba45b3ec>@@$$QEAV<lambda_237c231691f317818eb88cc1d5d642d6>@@@Z 000000018002c900 f i libucrt:close.obj
 0001:0002b974       _close                     000000018002c974 f   libucrt:close.obj
 0001:0002ba18       _close_nolock              000000018002ca18 f   libucrt:close.obj
 0001:0002bad4       ?__acrt_stdio_free_stream@@YAXV__crt_stdio_stream@@@Z 000000018002cad4 f   libucrt:stream.obj
 0001:0002bb18       __dcrt_lowio_initialize_console_output 000000018002cb18 f   libucrt:initcon.obj
 0001:0002bb54       __dcrt_terminate_console_output 000000018002cb54 f   libucrt:initcon.obj
 0001:0002bb74       _getfpcontrolword          000000018002cb74 f   libucrt:_fenvutils.obj
 0001:0002bb8c       _getfpstatusword           000000018002cb8c f   libucrt:_fenvutils.obj
 0001:0002bba0       _setfpcontrolword          000000018002cba0 f   libucrt:_fenvutils.obj
 0001:0002bbac       _setfpstatusword           000000018002cbac f   libucrt:_fenvutils.obj
 0001:0002bbfc       _clearfp                   000000018002cbfc f   libucrt:ieee.obj
 0001:0002bc50       _controlfp                 000000018002cc50 f   libucrt:ieee.obj
 0001:0002bc5c       _statusfp                  000000018002cc5c f   libucrt:ieee.obj
 0001:0002c060       _handle_error              000000018002d060 f   libucrt:libm_error.obj
 0001:0002c188       _handle_nan                000000018002d188 f   libucrt:libm_error.obj
 0001:0002c1b0       __acrt_initialize_fma3     000000018002d1b0 f   libucrt:fma3_available.obj
 0001:0002c220       _log10_special             000000018002d220 f   libucrt:log_special.obj
 0001:0002c2f0       _get_fpsr                  000000018002d2f0 f   libucrt:fpsr.obj
 0001:0002c300       _set_fpsr                  000000018002d300 f   libucrt:fpsr.obj
 0001:0002c30a       _fclrf                     000000018002d30a f   libucrt:fpsr.obj
 0001:0002c31e       _frnd                      000000018002d31e f   libucrt:fpsr.obj
 0001:0002c340       _raise_exc                 000000018002d340 f   libucrt:fpexcept.obj
 0001:0002c368       _raise_exc_ex              000000018002d368 f   libucrt:fpexcept.obj
 0001:0002c670       _set_errno_from_matherr    000000018002d670 f   libucrt:fpexcept.obj
 0001:0002c6a0       _clrfp                     000000018002d6a0 f   libucrt:fpctrl.obj
 0001:0002c6c0       _ctrlfp                    000000018002d6c0 f   libucrt:fpctrl.obj
 0001:0002c73c       _set_statfp                000000018002d73c f   libucrt:fpctrl.obj
 0001:0002c75c       _statfp                    000000018002d75c f   libucrt:fpctrl.obj
 0001:0002c76e       IsProcessorFeaturePresent  000000018002d76e f   kernel32:KERNEL32.dll
 0001:0002c774       RtlUnwindEx                000000018002d774 f   kernel32:KERNEL32.dll
 0001:0002c77a       SystemFunction036          000000018002d77a f   advapi32:ADVAPI32.dll
 0001:0002c780       ?DloadAcquireSectionWriteAccess@@YAXXZ 000000018002d780 f i DelayImp:delayhlp.obj
 0001:0002c83c       ?DloadGetSRWLockFunctionPointers@@YAEXZ 000000018002d83c f i DelayImp:delayhlp.obj
 0001:0002c8d8       ?DloadMakePermanentImageCommit@@YAXPEAX_K@Z 000000018002d8d8 f i DelayImp:delayhlp.obj
 0001:0002c970       ?DloadObtainSection@@YAPEAXPEAK0@Z 000000018002d970 f i DelayImp:delayhlp.obj
 0001:0002ca08       ?DloadProtectSection@@YAXKPEAK@Z 000000018002da08 f i DelayImp:delayhlp.obj
 0001:0002ca98       ?DloadReleaseSectionWriteAccess@@YAXXZ 000000018002da98 f i DelayImp:delayhlp.obj
 0001:0002cb3c       __delayLoadHelper2         000000018002db3c f   DelayImp:delayhlp.obj
 0001:0002ce44       __GSHandlerCheck           000000018002de44 f   LIBCMT:_gshandler_.obj
 0001:0002ce64       __GSHandlerCheckCommon     000000018002de64 f   LIBCMT:_gshandler_.obj
 0001:0002cec0       _FindPESection             000000018002dec0 f   LIBCMT:pesect.obj
 0001:0002cf10       _IsNonwritableInCurrentImage 000000018002df10 f   LIBCMT:pesect.obj
 0001:0002cf60       _ValidateImageBase         000000018002df60 f   LIBCMT:pesect.obj
 0001:0002cfa0       __chkstk                   000000018002dfa0 f   LIBCMT:_chkstk_.obj
 0001:0002cfa0       _alloca_probe              000000018002dfa0 f   LIBCMT:_chkstk_.obj
 0001:0002d010       memcmp                     000000018002e010 f   libvcruntime:memcmp.obj
 0001:0002d0d8       strrchr                    000000018002e0d8 f   libvcruntime:strrchr.obj
 0001:0002d230       _guard_dispatch_icall_nop  000000018002e230 f   LIBCMT:_guard_dispatch_.obj
 0002:00000000       __imp_SystemFunction036    000000018002f000     advapi32:ADVAPI32.dll
 0002:00000008       \177ADVAPI32_NULL_THUNK_DATA 000000018002f008     advapi32:ADVAPI32.dll
 0002:00000010       __imp_GetCurrentProcessId  000000018002f010     kernel32:KERNEL32.dll
 0002:00000018       __imp_GetSystemTimeAsFileTime 000000018002f018     kernel32:KERNEL32.dll
 0002:00000020       __imp_RtlCaptureContext    000000018002f020     kernel32:KERNEL32.dll
 0002:00000028       __imp_RtlLookupFunctionEntry 000000018002f028     kernel32:KERNEL32.dll
 0002:00000030       __imp_RtlVirtualUnwind     000000018002f030     kernel32:KERNEL32.dll
 0002:00000038       __imp_UnhandledExceptionFilter 000000018002f038     kernel32:KERNEL32.dll
 0002:00000040       __imp_SetUnhandledExceptionFilter 000000018002f040     kernel32:KERNEL32.dll
 0002:00000048       __imp_GetCurrentProcess    000000018002f048     kernel32:KERNEL32.dll
 0002:00000050       __imp_TerminateProcess     000000018002f050     kernel32:KERNEL32.dll
 0002:00000058       __imp_IsProcessorFeaturePresent 000000018002f058     kernel32:KERNEL32.dll
 0002:00000060       __imp_QueryPerformanceCounter 000000018002f060     kernel32:KERNEL32.dll
 0002:00000068       __imp_GetCurrentThreadId   000000018002f068     kernel32:KERNEL32.dll
 0002:00000070       __imp_InitializeSListHead  000000018002f070     kernel32:KERNEL32.dll
 0002:00000078       __imp_IsDebuggerPresent    000000018002f078     kernel32:KERNEL32.dll
 0002:00000080       __imp_GetStartupInfoW      000000018002f080     kernel32:KERNEL32.dll
 0002:00000088       __imp_GetModuleHandleW     000000018002f088     kernel32:KERNEL32.dll
 0002:00000090       __imp_GetLastError         000000018002f090     kernel32:KERNEL32.dll
 0002:00000098       __imp_GetModuleFileNameW   000000018002f098     kernel32:KERNEL32.dll
 0002:000000a0       __imp_RtlUnwindEx          000000018002f0a0     kernel32:KERNEL32.dll
 0002:000000a8       __imp_RtlPcToFileHeader    000000018002f0a8     kernel32:KERNEL32.dll
 0002:000000b0       __imp_RaiseException       000000018002f0b0     kernel32:KERNEL32.dll
 0002:000000b8       __imp_InterlockedFlushSList 000000018002f0b8     kernel32:KERNEL32.dll
 0002:000000c0       __imp_InitializeCriticalSectionAndSpinCount 000000018002f0c0     kernel32:KERNEL32.dll
 0002:000000c8       __imp_TlsAlloc             000000018002f0c8     kernel32:KERNEL32.dll
 0002:000000d0       __imp_TlsGetValue          000000018002f0d0     kernel32:KERNEL32.dll
 0002:000000d8       __imp_TlsSetValue          000000018002f0d8     kernel32:KERNEL32.dll
 0002:000000e0       __imp_TlsFree              000000018002f0e0     kernel32:KERNEL32.dll
 0002:000000e8       __imp_FreeLibrary          000000018002f0e8     kernel32:KERNEL32.dll
 0002:000000f0       __imp_GetProcAddress       000000018002f0f0     kernel32:KERNEL32.dll
 0002:000000f8       __imp_LoadLibraryExW       000000018002f0f8     kernel32:KERNEL32.dll
 0002:00000100       __imp_SetLastError         000000018002f100     kernel32:KERNEL32.dll
 0002:00000108       __imp_EnterCriticalSection 000000018002f108     kernel32:KERNEL32.dll
 0002:00000110       __imp_LeaveCriticalSection 000000018002f110     kernel32:KERNEL32.dll
 0002:00000118       __imp_DeleteCriticalSection 000000018002f118     kernel32:KERNEL32.dll
 0002:00000120       __imp_GetStdHandle         000000018002f120     kernel32:KERNEL32.dll
 0002:00000128       __imp_GetFileType          000000018002f128     kernel32:KERNEL32.dll
 0002:00000130       __imp_GetModuleFileNameA   000000018002f130     kernel32:KERNEL32.dll
 0002:00000138       __imp_GetModuleHandleExW   000000018002f138     kernel32:KERNEL32.dll
 0002:00000140       __imp_WriteConsoleW        000000018002f140     kernel32:KERNEL32.dll
 0002:00000148       __imp_ExitProcess          000000018002f148     kernel32:KERNEL32.dll
 0002:00000150       __imp_MultiByteToWideChar  000000018002f150     kernel32:KERNEL32.dll
 0002:00000158       __imp_HeapFree             000000018002f158     kernel32:KERNEL32.dll
 0002:00000160       __imp_HeapAlloc            000000018002f160     kernel32:KERNEL32.dll
 0002:00000168       __imp_WriteFile            000000018002f168     kernel32:KERNEL32.dll
 0002:00000170       __imp_OutputDebugStringW   000000018002f170     kernel32:KERNEL32.dll
 0002:00000178       __imp_CloseHandle          000000018002f178     kernel32:KERNEL32.dll
 0002:00000180       __imp_WaitForSingleObjectEx 000000018002f180     kernel32:KERNEL32.dll
 0002:00000188       __imp_CreateThread         000000018002f188     kernel32:KERNEL32.dll
 0002:00000190       __imp_GetACP               000000018002f190     kernel32:KERNEL32.dll
 0002:00000198       __imp_HeapReAlloc          000000018002f198     kernel32:KERNEL32.dll
 0002:000001a0       __imp_LCMapStringW         000000018002f1a0     kernel32:KERNEL32.dll
 0002:000001a8       __imp_FindClose            000000018002f1a8     kernel32:KERNEL32.dll
 0002:000001b0       __imp_FindFirstFileExA     000000018002f1b0     kernel32:KERNEL32.dll
 0002:000001b8       __imp_FindNextFileA        000000018002f1b8     kernel32:KERNEL32.dll
 0002:000001c0       __imp_IsValidCodePage      000000018002f1c0     kernel32:KERNEL32.dll
 0002:000001c8       __imp_GetOEMCP             000000018002f1c8     kernel32:KERNEL32.dll
 0002:000001d0       __imp_GetCPInfo            000000018002f1d0     kernel32:KERNEL32.dll
 0002:000001d8       __imp_GetCommandLineA      000000018002f1d8     kernel32:KERNEL32.dll
 0002:000001e0       __imp_GetCommandLineW      000000018002f1e0     kernel32:KERNEL32.dll
 0002:000001e8       __imp_GetEnvironmentStringsW 000000018002f1e8     kernel32:KERNEL32.dll
 0002:000001f0       __imp_FreeEnvironmentStringsW 000000018002f1f0     kernel32:KERNEL32.dll
 0002:000001f8       __imp_GetProcessHeap       000000018002f1f8     kernel32:KERNEL32.dll
 0002:00000200       __imp_GetStringTypeW       000000018002f200     kernel32:KERNEL32.dll
 0002:00000208       __imp_FlushFileBuffers     000000018002f208     kernel32:KERNEL32.dll
 0002:00000210       __imp_GetConsoleCP         000000018002f210     kernel32:KERNEL32.dll
 0002:00000218       __imp_GetConsoleMode       000000018002f218     kernel32:KERNEL32.dll
 0002:00000220       __imp_HeapSize             000000018002f220     kernel32:KERNEL32.dll
 0002:00000228       __imp_SetStdHandle         000000018002f228     kernel32:KERNEL32.dll
 0002:00000230       __imp_SetFilePointerEx     000000018002f230     kernel32:KERNEL32.dll
 0002:00000238       __imp_CreateFileW          000000018002f238     kernel32:KERNEL32.dll
 0002:00000240       __imp_WideCharToMultiByte  000000018002f240     kernel32:KERNEL32.dll
 0002:00000248       __imp_GetModuleHandleA     000000018002f248     kernel32:KERNEL32.dll
 0002:00000250       __imp_GetSystemInfo        000000018002f250     kernel32:KERNEL32.dll
 0002:00000258       __imp_VirtualProtect       000000018002f258     kernel32:KERNEL32.dll
 0002:00000260       __imp_VirtualQuery         000000018002f260     kernel32:KERNEL32.dll
 0002:00000268       __imp_LoadLibraryExA       000000018002f268     kernel32:KERNEL32.dll
 0002:00000270       \177KERNEL32_NULL_THUNK_DATA 000000018002f270     kernel32:KERNEL32.dll
 0002:00000278       __guard_check_icall_fptr   000000018002f278     LIBCMT:guard_support.obj
 0002:00000280       __guard_dispatch_icall_fptr 000000018002f280     LIBCMT:guard_support.obj
 0002:00000288       __xc_a                     000000018002f288     LIBCMT:initializers.obj
 0002:00000290       _register_node_expat_      000000018002f290     node-expat.obj
 0002:00000298       __xc_z                     000000018002f298     LIBCMT:initializers.obj
 0002:000002a0       __xi_a                     000000018002f2a0     LIBCMT:initializers.obj
 0002:000002a8       __acrt_stdio_initializer   000000018002f2a8     libucrt:stdio_initializer.obj
 0002:000002b0       __acrt_multibyte_initializer 000000018002f2b0     libucrt:multibyte_initializer.obj
 0002:000002b8       __acrt_tran_fma3_initializer 000000018002f2b8     libucrt:fma3_initializer.obj
 0002:000002c0       __xi_z                     000000018002f2c0     LIBCMT:initializers.obj
 0002:000002c8       __xp_a                     000000018002f2c8     LIBCMT:initializers.obj
 0002:000002d0       __acrt_locale_terminator   000000018002f2d0     libucrt:locale_initializer.obj
 0002:000002d8       __dcrt_console_output_terminator 000000018002f2d8     libucrt:console_output_initializer.obj
 0002:000002e0       __acrt_stdio_terminator    000000018002f2e0     libucrt:stdio_initializer.obj
 0002:000002e8       __xp_z                     000000018002f2e8     LIBCMT:initializers.obj
 0002:000002f0       __xt_a                     000000018002f2f0     LIBCMT:initializers.obj
 0002:000002f8       __xt_z                     000000018002f2f8     LIBCMT:initializers.obj
 0002:00000300       __sz_node_exe              000000018002f300     node:node.exe
 0002:00000310       _pRawDllMain               000000018002f310     LIBCMT:dll_dllmain.obj
 0002:00000310       _pDefaultRawDllMain        000000018002f310     LIBCMT:dll_dllmain.obj
 0002:00000330       ??_7exception@std@@6B@     000000018002f330     LIBCMT:throw_bad_alloc.obj
 0002:00000340       ??_C@_0BC@EOODALEL@Unknown?5exception?$AA@ 000000018002f340     LIBCMT:throw_bad_alloc.obj
 0002:00000360       ??_7bad_alloc@std@@6B@     000000018002f360     LIBCMT:throw_bad_alloc.obj
 0002:00000370       ??_C@_0P@GHFPNOJB@bad?5allocation?$AA@ 000000018002f370     LIBCMT:throw_bad_alloc.obj
 0002:00000388       ??_7bad_array_new_length@std@@6B@ 000000018002f388     LIBCMT:throw_bad_alloc.obj
 0002:00000398       ??_C@_0BF@KINCDENJ@bad?5array?5new?5length?$AA@ 000000018002f398     LIBCMT:throw_bad_alloc.obj
 0002:000003b8       ??_7type_info@@6B@         000000018002f3b8     LIBCMT:std_type_info_static.obj
 0002:000003c0       _Microsoft_CRTProvider     000000018002f3c0     libvcruntime:telemetry.obj
 0002:000003c8       ??_C@_00CNPNBAHC@?$AA@     000000018002f3c8     libvcruntime:telemetry.obj
 0002:000003cc       ??_C@_11LOCGONAA@?$AA?$AA@ 000000018002f3cc     libvcruntime:telemetry.obj
 0002:000003d0       ??_C@_0O@JEOPJOMI@Main?5Invoked?4?$AA@ 000000018002f3d0     libvcruntime:telemetry.obj
 0002:000003e0       ??_C@_0P@NEAEIBDO@Main?5Returned?4?$AA@ 000000018002f3e0     libvcruntime:telemetry.obj
 0002:00000450       ??_C@_1BC@DNHGCMLG@?$AAa?$AAd?$AAv?$AAa?$AAp?$AAi?$AA3?$AA2?$AA?$AA@ 000000018002f450     libvcruntime:winapi_downlevel.obj
 0002:00000468       ??_C@_1DM@KHCHBNEB@?$AAa?$AAp?$AAi?$AA?9?$AAm?$AAs?$AA?9?$AAw?$AAi?$AAn?$AA?9?$AAc?$AAo?$AAr?$AAe?$AA?9?$AAf?$AAi?$AAb?$AAe?$AAr?$AAs?$AA?9?$AAl?$AA1?$AA?9?$AA1?$AA?9?$AA1?$AA?$AA@ 000000018002f468     libvcruntime:winapi_downlevel.obj
 0002:000004a8       ??_C@_1DK@LPPGFMPP@?$AAa?$AAp?$AAi?$AA?9?$AAm?$AAs?$AA?9?$AAw?$AAi?$AAn?$AA?9?$AAc?$AAo?$AAr?$AAe?$AA?9?$AAs?$AAy?$AAn?$AAc?$AAh?$AA?9?$AAl?$AA1?$AA?9?$AA2?$AA?9?$AA0?$AA?$AA@ 000000018002f4a8     libvcruntime:winapi_downlevel.obj
 0002:000004e8       ??_C@_1BC@GDMECMAK@?$AAk?$AAe?$AAr?$AAn?$AAe?$AAl?$AA3?$AA2?$AA?$AA@ 000000018002f4e8     libvcruntime:winapi_downlevel.obj
 0002:00000500       ??_C@_0O@BAMBGLIE@EventRegister?$AA@ 000000018002f500     libvcruntime:winapi_downlevel.obj
 0002:00000518       ??_C@_0BE@BJEEGHGK@EventSetInformation?$AA@ 000000018002f518     libvcruntime:winapi_downlevel.obj
 0002:00000530       ??_C@_0BA@FAKLIPIC@EventUnregister?$AA@ 000000018002f530     libvcruntime:winapi_downlevel.obj
 0002:00000548       ??_C@_0BD@PKLHJPHD@EventWriteTransfer?$AA@ 000000018002f548     libvcruntime:winapi_downlevel.obj
 0002:00000568       ??_C@_08KNHFBNJ@FlsAlloc?$AA@ 000000018002f568     libvcruntime:winapi_downlevel.obj
 0002:00000580       ??_C@_07PEJMOBNF@FlsFree?$AA@ 000000018002f580     libvcruntime:winapi_downlevel.obj
 0002:00000590       ??_C@_0M@GDNOONDI@FlsGetValue?$AA@ 000000018002f590     libvcruntime:winapi_downlevel.obj
 0002:000005a8       ??_C@_0M@JCPCPOEF@FlsSetValue?$AA@ 000000018002f5a8     libvcruntime:winapi_downlevel.obj
 0002:000005c0       ??_C@_0BM@HCFOFFN@InitializeCriticalSectionEx?$AA@ 000000018002f5c0     libvcruntime:winapi_downlevel.obj
 0002:00000900       ??_C@_08EHJDFFNH@__based?$CI?$AA@ 000000018002f900     libvcruntime:undname.obj
 0002:00000910       ??_C@_07KOLFKCDI@__cdecl?$AA@ 000000018002f910     libvcruntime:undname.obj
 0002:00000918       ??_C@_08GHMPAG@__pascal?$AA@ 000000018002f918     libvcruntime:undname.obj
 0002:00000928       ??_C@_09IFJBGAPI@__stdcall?$AA@ 000000018002f928     libvcruntime:undname.obj
 0002:00000938       ??_C@_0L@NPHFGOKO@__thiscall?$AA@ 000000018002f938     libvcruntime:undname.obj
 0002:00000948       ??_C@_0L@JMKHOMEK@__fastcall?$AA@ 000000018002f948     libvcruntime:undname.obj
 0002:00000958       ??_C@_0N@BCKKPABJ@__vectorcall?$AA@ 000000018002f958     libvcruntime:undname.obj
 0002:00000968       ??_C@_09HIJEGCPM@__clrcall?$AA@ 000000018002f968     libvcruntime:undname.obj
 0002:00000974       ??_C@_06GHPCKEAG@__eabi?$AA@ 000000018002f974     libvcruntime:undname.obj
 0002:00000980       ??_C@_07JOMMBBKO@__ptr64?$AA@ 000000018002f980     libvcruntime:undname.obj
 0002:00000988       ??_C@_0L@PILCLIHE@__restrict?$AA@ 000000018002f988     libvcruntime:undname.obj
 0002:00000998       ??_C@_0M@GFIIJFMG@__unaligned?$AA@ 000000018002f998     libvcruntime:undname.obj
 0002:000009a8       ??_C@_09DHDLOLLB@restrict?$CI?$AA@ 000000018002f9a8     libvcruntime:undname.obj
 0002:000009b4       ??_C@_04NIHEBCM@?5new?$AA@ 000000018002f9b4     libvcruntime:undname.obj
 0002:000009c0       ??_C@_07FPCDHGMM@?5delete?$AA@ 000000018002f9c0     libvcruntime:undname.obj
 0002:000009c8       ??_C@_01NEMOKFLO@?$DN?$AA@ 000000018002f9c8     libvcruntime:undname.obj
 0002:000009cc       ??_C@_02GPIOPFAK@?$DO?$DO?$AA@ 000000018002f9cc     libvcruntime:undname.obj
 0002:000009d0       ??_C@_02FODMEDOG@?$DM?$DM?$AA@ 000000018002f9d0     libvcruntime:undname.obj
 0002:000009d4       ??_C@_01DCLJPIOD@?$CB?$AA@ 000000018002f9d4     libvcruntime:undname.obj
 0002:000009d8       ??_C@_02EGOFBIJA@?$DN?$DN?$AA@ 000000018002f9d8     libvcruntime:undname.obj
 0002:000009dc       ??_C@_02FDNJECIE@?$CB?$DN?$AA@ 000000018002f9dc     libvcruntime:undname.obj
 0002:000009e0       ??_C@_02GPECMEKF@?$FL?$FN?$AA@ 000000018002f9e0     libvcruntime:undname.obj
 0002:000009e8       ??_C@_08LHJFAFGD@operator?$AA@ 000000018002f9e8     libvcruntime:undname.obj
 0002:000009f4       ??_C@_02HBOOOICD@?9?$DO?$AA@ 000000018002f9f4     libvcruntime:undname.obj
 0002:000009f8       ??_C@_01NBENCBCI@?$CK?$AA@ 000000018002f9f8     libvcruntime:undname.obj
 0002:000009fc       ??_C@_02ECNGHCIF@?$CL?$CL?$AA@ 000000018002f9fc     libvcruntime:undname.obj
 0002:00000a00       ??_C@_02BAABKJLB@?9?9?$AA@ 000000018002fa00     libvcruntime:undname.obj
 0002:00000a04       ??_C@_01JOAMLHOP@?9?$AA@   000000018002fa04     libvcruntime:undname.obj
 0002:00000a08       ??_C@_01MIFGBAGJ@?$CL?$AA@ 000000018002fa08     libvcruntime:undname.obj
 0002:00000a0c       ??_C@_01HNPIGOCE@?$CG?$AA@ 000000018002fa0c     libvcruntime:undname.obj
 0002:00000a10       ??_C@_03MNHNFDLC@?9?$DO?$CK?$AA@ 000000018002fa10     libvcruntime:undname.obj
 0002:00000a14       ??_C@_01KMDKNFGN@?1?$AA@   000000018002fa14     libvcruntime:undname.obj
 0002:00000a18       ??_C@_01FGNFDNOH@?$CF?$AA@ 000000018002fa18     libvcruntime:undname.obj
 0002:00000a1c       ??_C@_01MNNFJEPP@?$DM?$AA@ 000000018002fa1c     libvcruntime:undname.obj
 0002:00000a20       ??_C@_02EHCHHCKH@?$DM?$DN?$AA@ 000000018002fa20     libvcruntime:undname.obj
 0002:00000a24       ??_C@_01PPODPGHN@?$DO?$AA@ 000000018002fa24     libvcruntime:undname.obj
 0002:00000a28       ??_C@_02EEKDKGMJ@?$DO?$DN?$AA@ 000000018002fa28     libvcruntime:undname.obj
 0002:00000a2c       ??_C@_01IHBHIGKO@?0?$AA@   000000018002fa2c     libvcruntime:undname.obj
 0002:00000a30       ??_C@_02HCKGKOFO@?$CI?$CJ?$AA@ 000000018002fa30     libvcruntime:undname.obj
 0002:00000a34       ??_C@_01PJKLJHI@?$HO?$AA@  000000018002fa34     libvcruntime:undname.obj
 0002:00000a38       ??_C@_01JKBOJNNK@?$FO?$AA@ 000000018002fa38     libvcruntime:undname.obj
 0002:00000a3c       ??_C@_01DNKMNLPK@?$HM?$AA@ 000000018002fa3c     libvcruntime:undname.obj
 0002:00000a40       ??_C@_02PPKAJPJL@?$CG?$CG?$AA@ 000000018002fa40     libvcruntime:undname.obj
 0002:00000a44       ??_C@_02NONPIBCD@?$HM?$HM?$AA@ 000000018002fa44     libvcruntime:undname.obj
 0002:00000a48       ??_C@_02FPIMKNGF@?$CK?$DN?$AA@ 000000018002fa48     libvcruntime:undname.obj
 0002:00000a4c       ??_C@_02FOEOMHFC@?$CL?$DN?$AA@ 000000018002fa4c     libvcruntime:undname.obj
 0002:00000a50       ??_C@_02FKMDLLOA@?9?$DN?$AA@ 000000018002fa50     libvcruntime:undname.obj
 0002:00000a54       ??_C@_02FJEHGPIO@?1?$DN?$AA@ 000000018002fa54     libvcruntime:undname.obj
 0002:00000a58       ??_C@_02FENAOKFI@?$CF?$DN?$AA@ 000000018002fa58     libvcruntime:undname.obj
 0002:00000a5c       ??_C@_03IKFCCPFF@?$DO?$DO?$DN?$AA@ 000000018002fa5c     libvcruntime:undname.obj
 0002:00000a60       ??_C@_03CDNPDDLA@?$DM?$DM?$DN?$AA@ 000000018002fa60     libvcruntime:undname.obj
 0002:00000a64       ??_C@_02FGJGFEAB@?$CG?$DN?$AA@ 000000018002fa64     libvcruntime:undname.obj
 0002:00000a68       ??_C@_02DHLNPPGH@?$HM?$DN?$AA@ 000000018002fa68     libvcruntime:undname.obj
 0002:00000a6c       ??_C@_02MHEGNOJ@?$FO?$DN?$AA@ 000000018002fa6c     libvcruntime:undname.obj
 0002:00000a70       ??_C@_09IFPLHPGF@?$GAvftable?8?$AA@ 000000018002fa70     libvcruntime:undname.obj
 0002:00000a80       ??_C@_09BLBHBJP@?$GAvbtable?8?$AA@ 000000018002fa80     libvcruntime:undname.obj
 0002:00000a90       ??_C@_07FEEIOKP@?$GAvcall?8?$AA@ 000000018002fa90     libvcruntime:undname.obj
 0002:00000a98       ??_C@_08LLFFHHDJ@?$GAtypeof?8?$AA@ 000000018002fa98     libvcruntime:undname.obj
 0002:00000aa8       ??_C@_0BF@KDPPACIK@?$GAlocal?5static?5guard?8?$AA@ 000000018002faa8     libvcruntime:undname.obj
 0002:00000ac0       ??_C@_08OBABFOLI@?$GAstring?8?$AA@ 000000018002fac0     libvcruntime:undname.obj
 0002:00000ad0       ??_C@_0BD@JDLKDPAB@?$GAvbase?5destructor?8?$AA@ 000000018002fad0     libvcruntime:undname.obj
 0002:00000ae8       ??_C@_0BN@DEGPLNFK@?$GAvector?5deleting?5destructor?8?$AA@ 000000018002fae8     libvcruntime:undname.obj
 0002:00000b08       ??_C@_0BO@OBMKPJIG@?$GAdefault?5constructor?5closure?8?$AA@ 000000018002fb08     libvcruntime:undname.obj
 0002:00000b28       ??_C@_0BN@IMDCHIKM@?$GAscalar?5deleting?5destructor?8?$AA@ 000000018002fb28     libvcruntime:undname.obj
 0002:00000b48       ??_C@_0BO@PFGOCPJJ@?$GAvector?5constructor?5iterator?8?$AA@ 000000018002fb48     libvcruntime:undname.obj
 0002:00000b68       ??_C@_0BN@LFPFMEDL@?$GAvector?5destructor?5iterator?8?$AA@ 000000018002fb68     libvcruntime:undname.obj
 0002:00000b88       ??_C@_0CE@IKBNEHA@?$GAvector?5vbase?5constructor?5iterat@ 000000018002fb88     libvcruntime:undname.obj
 0002:00000bb0       ??_C@_0BL@NILFHHPC@?$GAvirtual?5displacement?5map?8?$AA@ 000000018002fbb0     libvcruntime:undname.obj
 0002:00000bd0       ??_C@_0CB@JONCMFFK@?$GAeh?5vector?5constructor?5iterator?8@ 000000018002fbd0     libvcruntime:undname.obj
 0002:00000bf8       ??_C@_0CA@GCEOPDGL@?$GAeh?5vector?5destructor?5iterator?8?$AA@ 000000018002fbf8     libvcruntime:undname.obj
 0002:00000c18       ??_C@_0CH@OOJPLCPH@?$GAeh?5vector?5vbase?5constructor?5ite@ 000000018002fc18     libvcruntime:undname.obj
 0002:00000c40       ??_C@_0BL@LLKPOHJI@?$GAcopy?5constructor?5closure?8?$AA@ 000000018002fc40     libvcruntime:undname.obj
 0002:00000c60       ??_C@_0BA@KBCDOMBN@?$GAudt?5returning?8?$AA@ 000000018002fc60     libvcruntime:undname.obj
 0002:00000c70       ??_C@_03KLGMFNMG@?$GAEH?$AA@ 000000018002fc70     libvcruntime:undname.obj
 0002:00000c74       ??_C@_05KHLCHHI@?$GARTTI?$AA@ 000000018002fc74     libvcruntime:undname.obj
 0002:00000c80       ??_C@_0BA@KKLDJDLB@?$GAlocal?5vftable?8?$AA@ 000000018002fc80     libvcruntime:undname.obj
 0002:00000c90       ??_C@_0CE@IIHCMGGL@?$GAlocal?5vftable?5constructor?5closu@ 000000018002fc90     libvcruntime:undname.obj
 0002:00000cb4       ??_C@_06FHBGPFGH@?5new?$FL?$FN?$AA@ 000000018002fcb4     libvcruntime:undname.obj
 0002:00000cc0       ??_C@_09LBNFPBCA@?5delete?$FL?$FN?$AA@ 000000018002fcc0     libvcruntime:undname.obj
 0002:00000cd0       ??_C@_0P@HJKNJFNN@?$GAomni?5callsig?8?$AA@ 000000018002fcd0     libvcruntime:undname.obj
 0002:00000ce0       ??_C@_0BL@CNOONJFP@?$GAplacement?5delete?5closure?8?$AA@ 000000018002fce0     libvcruntime:undname.obj
 0002:00000d00       ??_C@_0BN@CKNJLHMB@?$GAplacement?5delete?$FL?$FN?5closure?8?$AA@ 000000018002fd00     libvcruntime:undname.obj
 0002:00000d20       ??_C@_0CG@CFDHKGGD@?$GAmanaged?5vector?5constructor?5iter@ 000000018002fd20     libvcruntime:undname.obj
 0002:00000d48       ??_C@_0CF@IMGKMJNO@?$GAmanaged?5vector?5destructor?5itera@ 000000018002fd48     libvcruntime:undname.obj
 0002:00000d70       ??_C@_0CG@HLDDJMAG@?$GAeh?5vector?5copy?5constructor?5iter@ 000000018002fd70     libvcruntime:undname.obj
 0002:00000d98       ??_C@_0CM@FCBBDIGB@?$GAeh?5vector?5vbase?5copy?5constructo@ 000000018002fd98     libvcruntime:undname.obj
 0002:00000dc8       ??_C@_0BL@CLIPGLGB@?$GAdynamic?5initializer?5for?5?8?$AA@ 000000018002fdc8     libvcruntime:undname.obj
 0002:00000de8       ??_C@_0CB@PDBIFEP@?$GAdynamic?5atexit?5destructor?5for?5?8@ 000000018002fde8     libvcruntime:undname.obj
 0002:00000e10       ??_C@_0CD@CGAJBKEJ@?$GAvector?5copy?5constructor?5iterato@ 000000018002fe10     libvcruntime:undname.obj
 0002:00000e38       ??_C@_0CJ@GJELGAMM@?$GAvector?5vbase?5copy?5constructor?5i@ 000000018002fe38     libvcruntime:undname.obj
 0002:00000e68       ??_C@_0CL@FGIJHLCE@?$GAmanaged?5vector?5copy?5constructor@ 000000018002fe68     libvcruntime:undname.obj
 0002:00000e98       ??_C@_0BM@PMGGMLDN@?$GAlocal?5static?5thread?5guard?8?$AA@ 000000018002fe98     libvcruntime:undname.obj
 0002:00000eb8       ??_C@_0N@BDNMDMOL@operator?5?$CC?$CC?5?$AA@ 000000018002feb8     libvcruntime:undname.obj
 0002:00000ec8       ??_C@_0BC@DAFEJGAK@?5Type?5Descriptor?8?$AA@ 000000018002fec8     libvcruntime:undname.obj
 0002:00000ee0       ??_C@_0BM@LDKODKLH@?5Base?5Class?5Descriptor?5at?5?$CI?$AA@ 000000018002fee0     libvcruntime:undname.obj
 0002:00000f00       ??_C@_0BD@LGICGFMM@?5Base?5Class?5Array?8?$AA@ 000000018002ff00     libvcruntime:undname.obj
 0002:00000f18       ??_C@_0BN@MECKDCOJ@?5Class?5Hierarchy?5Descriptor?8?$AA@ 000000018002ff18     libvcruntime:undname.obj
 0002:00000f38       ??_C@_0BK@CFCOFLF@?5Complete?5Object?5Locator?8?$AA@ 000000018002ff38     libvcruntime:undname.obj
 0002:00000f60       ??_C@_1EK@MBDPDCGA@?$AAM?$AAi?$AAc?$AAr?$AAo?$AAs?$AAo?$AAf?$AAt?$AA?5?$AAV?$AAi?$AAs?$AAu?$AAa?$AAl?$AA?5?$AAC?$AA?$CL?$AA?$CL?$AA?5?$AAR?$AAu?$AAn?$AAt?$AAi?$AAm?$AAe?$AA?5?$AAL?$AAi?$AAb@ 000000018002ff60     libucrt:assert.obj
 0002:00000fb0       ??_C@_1FE@LHBLIKM@?$AAA?$AAs?$AAs?$AAe?$AAr?$AAt?$AAi?$AAo?$AAn?$AA?5?$AAf?$AAa?$AAi?$AAl?$AAe?$AAd?$AA?3?$AA?5?$AA?$CF?$AAT?$AAs?$AA?0?$AA?5?$AAf?$AAi?$AAl?$AAe?$AA?5?$AA?$CF?$AAT?$AAs?$AA?0@ 000000018002ffb0     libucrt:assert.obj
 0002:00001008       ??_C@_1CE@OJBNHDMO@?$AAA?$AAs?$AAs?$AAe?$AAr?$AAt?$AAi?$AAo?$AAn?$AA?5?$AAf?$AAa?$AAi?$AAl?$AAe?$AAd?$AA?$CB?$AA?$AA@ 0000000180030008     libucrt:assert.obj
 0002:00001030       ??_C@_1BE@PHKBBGE@?$AAP?$AAr?$AAo?$AAg?$AAr?$AAa?$AAm?$AA?3?$AA?5?$AA?$AA@ 0000000180030030     libucrt:assert.obj
 0002:00001048       ??_C@_1O@HEMHKNDC@?$AAF?$AAi?$AAl?$AAe?$AA?3?$AA?5?$AA?$AA@ 0000000180030048     libucrt:assert.obj
 0002:00001058       ??_C@_1O@KCAFKHJE@?$AAL?$AAi?$AAn?$AAe?$AA?3?$AA?5?$AA?$AA@ 0000000180030058     libucrt:assert.obj
 0002:00001068       ??_C@_1BK@PEDCIPMA@?$AAE?$AAx?$AAp?$AAr?$AAe?$AAs?$AAs?$AAi?$AAo?$AAn?$AA?3?$AA?5?$AA?$AA@ 0000000180030068     libucrt:assert.obj
 0002:00001090       ??_C@_1OA@EGMLFBHJ@?$AAF?$AAo?$AAr?$AA?5?$AAi?$AAn?$AAf?$AAo?$AAr?$AAm?$AAa?$AAt?$AAi?$AAo?$AAn?$AA?5?$AAo?$AAn?$AA?5?$AAh?$AAo?$AAw?$AA?5?$AAy?$AAo?$AAu?$AAr?$AA?5?$AAp?$AAr?$AAo?$AAg@ 0000000180030090     libucrt:assert.obj
 0002:00001170       ??_C@_1HK@POCJMFGK@?$AA?$CI?$AAP?$AAr?$AAe?$AAs?$AAs?$AA?5?$AAR?$AAe?$AAt?$AAr?$AAy?$AA?5?$AAt?$AAo?$AA?5?$AAd?$AAe?$AAb?$AAu?$AAg?$AA?5?$AAt?$AAh?$AAe?$AA?5?$AAa?$AAp?$AAp?$AAl?$AAi?$AAc@ 0000000180030170     libucrt:assert.obj
 0002:000011f0       ??_C@_17LGKOMLJ@?$AA?4?$AA?4?$AA?4?$AA?$AA@ 00000001800301f0     libucrt:assert.obj
 0002:000011f8       ??_C@_13LBAGMAIH@?$AA?6?$AA?$AA@ 00000001800301f8     libucrt:assert.obj
 0002:000011fc       ??_C@_15IABLJNFO@?$AA?6?$AA?6?$AA?$AA@ 00000001800301fc     libucrt:assert.obj
 0002:00001208       ??_C@_1CO@EAEJAADC@?$AA?$DM?$AAp?$AAr?$AAo?$AAg?$AAr?$AAa?$AAm?$AA?5?$AAn?$AAa?$AAm?$AAe?$AA?5?$AAu?$AAn?$AAk?$AAn?$AAo?$AAw?$AAn?$AA?$DO?$AA?$AA@ 0000000180030208     libucrt:assert.obj
 0002:00001240       __acrt_exception_action_table 0000000180030240     libucrt:exception_filter.obj
 0002:00001300       __acrt_signal_action_table_count 0000000180030300     libucrt:exception_filter.obj
 0002:00001308       __acrt_signal_action_first_fpe_index 0000000180030308     libucrt:exception_filter.obj
 0002:00001310       __acrt_signal_action_fpe_count 0000000180030310     libucrt:exception_filter.obj
 0002:00001318       ??_C@_1BI@BGOHAHKC@?$AAm?$AAs?$AAc?$AAo?$AAr?$AAe?$AAe?$AA?4?$AAd?$AAl?$AAl?$AA?$AA@ 0000000180030318     libucrt:exit.obj
 0002:00001330       ??_C@_0P@MIGLKIOC@CorExitProcess?$AA@ 0000000180030330     libucrt:exit.obj
 0002:00001430       standard_lookup_table      0000000180030430     libucrt:output.obj
 0002:0000148c       ??_C@_06OJHGLDPL@?$CInull?$CJ?$AA@ 000000018003048c     libucrt:output.obj
 0002:00001498       ??_C@_1O@CEDCILHN@?$AA?$CI?$AAn?$AAu?$AAl?$AAl?$AA?$CJ?$AA?$AA@ 0000000180030498     libucrt:output.obj
 0002:00001620       __lc_time_c                0000000180030620     libucrt:nlsdata.obj
 0002:000018e0       ??_C@_03KOEHGMDN@Sun?$AA@  00000001800308e0     libucrt:nlsdata.obj
 0002:000018e4       ??_C@_03PDAGKDH@Mon?$AA@   00000001800308e4     libucrt:nlsdata.obj
 0002:000018e8       ??_C@_03NAGEINEP@Tue?$AA@  00000001800308e8     libucrt:nlsdata.obj
 0002:000018ec       ??_C@_03MHOMLAJA@Wed?$AA@  00000001800308ec     libucrt:nlsdata.obj
 0002:000018f0       ??_C@_03IOFIKPDN@Thu?$AA@  00000001800308f0     libucrt:nlsdata.obj
 0002:000018f4       ??_C@_03IDIOELNC@Fri?$AA@  00000001800308f4     libucrt:nlsdata.obj
 0002:000018f8       ??_C@_03FEFJNEK@Sat?$AA@   00000001800308f8     libucrt:nlsdata.obj
 0002:000018fc       ??_C@_06OOPIFAJ@Sunday?$AA@ 00000001800308fc     libucrt:nlsdata.obj
 0002:00001904       ??_C@_06JLEDEDGH@Monday?$AA@ 0000000180030904     libucrt:nlsdata.obj
 0002:00001910       ??_C@_07BAAGCFCM@Tuesday?$AA@ 0000000180030910     libucrt:nlsdata.obj
 0002:00001918       ??_C@_09DLIGFAKA@Wednesday?$AA@ 0000000180030918     libucrt:nlsdata.obj
 0002:00001928       ??_C@_08HACCIKIA@Thursday?$AA@ 0000000180030928     libucrt:nlsdata.obj
 0002:00001934       ??_C@_06JECMNKMI@Friday?$AA@ 0000000180030934     libucrt:nlsdata.obj
 0002:00001940       ??_C@_08INBOOONO@Saturday?$AA@ 0000000180030940     libucrt:nlsdata.obj
 0002:0000194c       ??_C@_03JIHJHPIE@Jan?$AA@  000000018003094c     libucrt:nlsdata.obj
 0002:00001950       ??_C@_03HJBDCHOM@Feb?$AA@  0000000180030950     libucrt:nlsdata.obj
 0002:00001954       ??_C@_03ODNJBKGA@Mar?$AA@  0000000180030954     libucrt:nlsdata.obj
 0002:00001958       ??_C@_03LEOLGMJP@Apr?$AA@  0000000180030958     libucrt:nlsdata.obj
 0002:0000195c       ??_C@_03CNMDKL@May?$AA@    000000018003095c     libucrt:nlsdata.obj
 0002:00001960       ??_C@_03IDFGHECI@Jun?$AA@  0000000180030960     libucrt:nlsdata.obj
 0002:00001964       ??_C@_03LBGABGKK@Jul?$AA@  0000000180030964     libucrt:nlsdata.obj
 0002:00001968       ??_C@_03IFJFEIGA@Aug?$AA@  0000000180030968     libucrt:nlsdata.obj
 0002:0000196c       ??_C@_03GGCAPAJC@Sep?$AA@  000000018003096c     libucrt:nlsdata.obj
 0002:00001970       ??_C@_03BMAOKBAD@Oct?$AA@  0000000180030970     libucrt:nlsdata.obj
 0002:00001974       ??_C@_03JPJOFNIA@Nov?$AA@  0000000180030974     libucrt:nlsdata.obj
 0002:00001978       ??_C@_03MKABNOCG@Dec?$AA@  0000000180030978     libucrt:nlsdata.obj
 0002:00001980       ??_C@_07CGJPFGJA@January?$AA@ 0000000180030980     libucrt:nlsdata.obj
 0002:00001988       ??_C@_08GNJGEPFN@February?$AA@ 0000000180030988     libucrt:nlsdata.obj
 0002:00001994       ??_C@_05HPCKOFNC@March?$AA@ 0000000180030994     libucrt:nlsdata.obj
 0002:0000199c       ??_C@_05DMJDNLEJ@April?$AA@ 000000018003099c     libucrt:nlsdata.obj
 0002:000019a4       ??_C@_04CNLMGBGM@June?$AA@ 00000001800309a4     libucrt:nlsdata.obj
 0002:000019ac       ??_C@_04MIEPOIFP@July?$AA@ 00000001800309ac     libucrt:nlsdata.obj
 0002:000019b4       ??_C@_06LBBHFDDG@August?$AA@ 00000001800309b4     libucrt:nlsdata.obj
 0002:000019c0       ??_C@_09BHHEALKD@September?$AA@ 00000001800309c0     libucrt:nlsdata.obj
 0002:000019d0       ??_C@_07JJNFCEND@October?$AA@ 00000001800309d0     libucrt:nlsdata.obj
 0002:000019d8       ??_C@_08HCHEGEOA@November?$AA@ 00000001800309d8     libucrt:nlsdata.obj
 0002:000019e8       ??_C@_08EDHMEBNP@December?$AA@ 00000001800309e8     libucrt:nlsdata.obj
 0002:000019f4       ??_C@_02DEDBPAFC@AM?$AA@   00000001800309f4     libucrt:nlsdata.obj
 0002:000019f8       ??_C@_02CJNFDJBF@PM?$AA@   00000001800309f8     libucrt:nlsdata.obj
 0002:00001a00       ??_C@_08BPBNCDIB@MM?1dd?1yy?$AA@ 0000000180030a00     libucrt:nlsdata.obj
 0002:00001a10       ??_C@_0BE@CKGJFCPC@dddd?0?5MMMM?5dd?0?5yyyy?$AA@ 0000000180030a10     libucrt:nlsdata.obj
 0002:00001a28       ??_C@_08JCCMCCIL@HH?3mm?3ss?$AA@ 0000000180030a28     libucrt:nlsdata.obj
 0002:00001a38       ??_C@_17MBGCMIPB@?$AAS?$AAu?$AAn?$AA?$AA@ 0000000180030a38     libucrt:nlsdata.obj
 0002:00001a40       ??_C@_17KBOMKBF@?$AAM?$AAo?$AAn?$AA?$AA@ 0000000180030a40     libucrt:nlsdata.obj
 0002:00001a48       ??_C@_17BMKGEGOJ@?$AAT?$AAu?$AAe?$AA?$AA@ 0000000180030a48     libucrt:nlsdata.obj
 0002:00001a50       ??_C@_17CJEDCEPE@?$AAW?$AAe?$AAd?$AA?$AA@ 0000000180030a50     libucrt:nlsdata.obj
 0002:00001a58       ??_C@_17PDPHAADD@?$AAT?$AAh?$AAu?$AA?$AA@ 0000000180030a58     libucrt:nlsdata.obj
 0002:00001a60       ??_C@_17HFOLPPLP@?$AAF?$AAr?$AAi?$AA?$AA@ 0000000180030a60     libucrt:nlsdata.obj
 0002:00001a68       ??_C@_17GGIBDPIH@?$AAS?$AAa?$AAt?$AA?$AA@ 0000000180030a68     libucrt:nlsdata.obj
 0002:00001a70       ??_C@_1O@IHNHDHPB@?$AAS?$AAu?$AAn?$AAd?$AAa?$AAy?$AA?$AA@ 0000000180030a70     libucrt:nlsdata.obj
 0002:00001a80       ??_C@_1O@MMNBFLIA@?$AAM?$AAo?$AAn?$AAd?$AAa?$AAy?$AA?$AA@ 0000000180030a80     libucrt:nlsdata.obj
 0002:00001a90       ??_C@_1BA@ENFBFFEK@?$AAT?$AAu?$AAe?$AAs?$AAd?$AAa?$AAy?$AA?$AA@ 0000000180030a90     libucrt:nlsdata.obj
 0002:00001aa0       ??_C@_1BE@EBOGMDOH@?$AAW?$AAe?$AAd?$AAn?$AAe?$AAs?$AAd?$AAa?$AAy?$AA?$AA@ 0000000180030aa0     libucrt:nlsdata.obj
 0002:00001ab8       ??_C@_1BC@HHMNLIHE@?$AAT?$AAh?$AAu?$AAr?$AAs?$AAd?$AAa?$AAy?$AA?$AA@ 0000000180030ab8     libucrt:nlsdata.obj
 0002:00001ad0       ??_C@_1O@PDICJHAG@?$AAF?$AAr?$AAi?$AAd?$AAa?$AAy?$AA?$AA@ 0000000180030ad0     libucrt:nlsdata.obj
 0002:00001ae0       ??_C@_1BC@ENMNNPAJ@?$AAS?$AAa?$AAt?$AAu?$AAr?$AAd?$AAa?$AAy?$AA?$AA@ 0000000180030ae0     libucrt:nlsdata.obj
 0002:00001af8       ??_C@_17DKNBKCHM@?$AAJ?$AAa?$AAn?$AA?$AA@ 0000000180030af8     libucrt:nlsdata.obj
 0002:00001b00       ??_C@_17LMDJEKJN@?$AAF?$AAe?$AAb?$AA?$AA@ 0000000180030b00     libucrt:nlsdata.obj
 0002:00001b08       ??_C@_17CKNLEDEC@?$AAM?$AAa?$AAr?$AA?$AA@ 0000000180030b08     libucrt:nlsdata.obj
 0002:00001b10       ??_C@_17LFPOIHDD@?$AAA?$AAp?$AAr?$AA?$AA@ 0000000180030b10     libucrt:nlsdata.obj
 0002:00001b18       ??_C@_17PNNKMEED@?$AAM?$AAa?$AAy?$AA?$AA@ 0000000180030b18     libucrt:nlsdata.obj
 0002:00001b20       ??_C@_17KCJGOCPB@?$AAJ?$AAu?$AAn?$AA?$AA@ 0000000180030b20     libucrt:nlsdata.obj
 0002:00001b28       ??_C@_17IJPCKHK@?$AAJ?$AAu?$AAl?$AA?$AA@ 0000000180030b28     libucrt:nlsdata.obj
 0002:00001b30       ??_C@_17ICPELBCN@?$AAA?$AAu?$AAg?$AA?$AA@ 0000000180030b30     libucrt:nlsdata.obj
 0002:00001b38       ??_C@_17HCHCOKMG@?$AAS?$AAe?$AAp?$AA?$AA@ 0000000180030b38     libucrt:nlsdata.obj
 0002:00001b40       ??_C@_17FNLKOI@?$AAO?$AAc?$AAt?$AA?$AA@ 0000000180030b40     libucrt:nlsdata.obj
 0002:00001b48       ??_C@_17BBDMLCIG@?$AAN?$AAo?$AAv?$AA?$AA@ 0000000180030b48     libucrt:nlsdata.obj
 0002:00001b50       ??_C@_17EGKACKIF@?$AAD?$AAe?$AAc?$AA?$AA@ 0000000180030b50     libucrt:nlsdata.obj
 0002:00001b58       ??_C@_1BA@EFMEIEBA@?$AAJ?$AAa?$AAn?$AAu?$AAa?$AAr?$AAy?$AA?$AA@ 0000000180030b58     libucrt:nlsdata.obj
 0002:00001b68       ??_C@_1BC@JGDDFFAM@?$AAF?$AAe?$AAb?$AAr?$AAu?$AAa?$AAr?$AAy?$AA?$AA@ 0000000180030b68     libucrt:nlsdata.obj
 0002:00001b80       ??_C@_1M@IKEENEDF@?$AAM?$AAa?$AAr?$AAc?$AAh?$AA?$AA@ 0000000180030b80     libucrt:nlsdata.obj
 0002:00001b90       ??_C@_1M@GJNLMHFD@?$AAA?$AAp?$AAr?$AAi?$AAl?$AA?$AA@ 0000000180030b90     libucrt:nlsdata.obj
 0002:00001ba0       ??_C@_19EPFLPGAP@?$AAJ?$AAu?$AAn?$AAe?$AA?$AA@ 0000000180030ba0     libucrt:nlsdata.obj
 0002:00001bb0       ??_C@_19BIFMLPCD@?$AAJ?$AAu?$AAl?$AAy?$AA?$AA@ 0000000180030bb0     libucrt:nlsdata.obj
 0002:00001bc0       ??_C@_1O@PAHLKOAC@?$AAA?$AAu?$AAg?$AAu?$AAs?$AAt?$AA?$AA@ 0000000180030bc0     libucrt:nlsdata.obj
 0002:00001bd0       ??_C@_1BE@DKAAMBJL@?$AAS?$AAe?$AAp?$AAt?$AAe?$AAm?$AAb?$AAe?$AAr?$AA?$AA@ 0000000180030bd0     libucrt:nlsdata.obj
 0002:00001be8       ??_C@_1BA@EPANDLNG@?$AAO?$AAc?$AAt?$AAo?$AAb?$AAe?$AAr?$AA?$AA@ 0000000180030be8     libucrt:nlsdata.obj
 0002:00001bf8       ??_C@_1BC@BGLIFPF@?$AAN?$AAo?$AAv?$AAe?$AAm?$AAb?$AAe?$AAr?$AA?$AA@ 0000000180030bf8     libucrt:nlsdata.obj
 0002:00001c10       ??_C@_1BC@FEMKIFH@?$AAD?$AAe?$AAc?$AAe?$AAm?$AAb?$AAe?$AAr?$AA?$AA@ 0000000180030c10     libucrt:nlsdata.obj
 0002:00001c24       ??_C@_15ODEHAHHF@?$AAA?$AAM?$AA?$AA@ 0000000180030c24     libucrt:nlsdata.obj
 0002:00001c2c       ??_C@_15CLMNNGEL@?$AAP?$AAM?$AA?$AA@ 0000000180030c2c     libucrt:nlsdata.obj
 0002:00001c38       ??_C@_1BC@IEBCMHCM@?$AAM?$AAM?$AA?1?$AAd?$AAd?$AA?1?$AAy?$AAy?$AA?$AA@ 0000000180030c38     libucrt:nlsdata.obj
 0002:00001c50       ??_C@_1CI@KNAKOEBC@?$AAd?$AAd?$AAd?$AAd?$AA?0?$AA?5?$AAM?$AAM?$AAM?$AAM?$AA?5?$AAd?$AAd?$AA?0?$AA?5?$AAy?$AAy?$AAy?$AAy?$AA?$AA@ 0000000180030c50     libucrt:nlsdata.obj
 0002:00001c78       ??_C@_1BC@GDGBMEMK@?$AAH?$AAH?$AA?3?$AAm?$AAm?$AA?3?$AAs?$AAs?$AA?$AA@ 0000000180030c78     libucrt:nlsdata.obj
 0002:00001c90       ??_C@_1M@BMHNFIME@?$AAe?$AAn?$AA?9?$AAU?$AAS?$AA?$AA@ 0000000180030c90     libucrt:nlsdata.obj
 0002:00001d40       ??_C@_1EG@CNNIPFIM@?$AAa?$AAp?$AAi?$AA?9?$AAm?$AAs?$AA?9?$AAw?$AAi?$AAn?$AA?9?$AAa?$AAp?$AAp?$AAm?$AAo?$AAd?$AAe?$AAl?$AA?9?$AAr?$AAu?$AAn?$AAt?$AAi?$AAm?$AAe?$AA?9?$AAl?$AA1?$AA?9?$AA1@ 0000000180030d40     libucrt:winapi_thunks.obj
 0002:00001d90       ??_C@_1EA@JGEFHKEI@?$AAa?$AAp?$AAi?$AA?9?$AAm?$AAs?$AA?9?$AAw?$AAi?$AAn?$AA?9?$AAc?$AAo?$AAr?$AAe?$AA?9?$AAd?$AAa?$AAt?$AAe?$AAt?$AAi?$AAm?$AAe?$AA?9?$AAl?$AA1?$AA?9?$AA1?$AA?9?$AA1?$AA?$AA@ 0000000180030d90     libucrt:winapi_thunks.obj
 0002:00001dd0       ??_C@_1DI@GCIAAENM@?$AAa?$AAp?$AAi?$AA?9?$AAm?$AAs?$AA?9?$AAw?$AAi?$AAn?$AA?9?$AAc?$AAo?$AAr?$AAe?$AA?9?$AAf?$AAi?$AAl?$AAe?$AA?9?$AAl?$AA2?$AA?9?$AA1?$AA?9?$AA1?$AA?$AA@ 0000000180030dd0     libucrt:winapi_thunks.obj
 0002:00001e10       ??_C@_1EI@MPIAOHOC@?$AAa?$AAp?$AAi?$AA?9?$AAm?$AAs?$AA?9?$AAw?$AAi?$AAn?$AA?9?$AAc?$AAo?$AAr?$AAe?$AA?9?$AAl?$AAo?$AAc?$AAa?$AAl?$AAi?$AAz?$AAa?$AAt?$AAi?$AAo?$AAn?$AA?9?$AAl?$AA1?$AA?9@ 0000000180030e10     libucrt:winapi_thunks.obj
 0002:00001e60       ??_C@_1FK@FPHCKFIE@?$AAa?$AAp?$AAi?$AA?9?$AAm?$AAs?$AA?9?$AAw?$AAi?$AAn?$AA?9?$AAc?$AAo?$AAr?$AAe?$AA?9?$AAl?$AAo?$AAc?$AAa?$AAl?$AAi?$AAz?$AAa?$AAt?$AAi?$AAo?$AAn?$AA?9?$AAo?$AAb?$AAs@ 0000000180030e60     libucrt:winapi_thunks.obj
 0002:00001ec0       ??_C@_1EM@DILCGIIO@?$AAa?$AAp?$AAi?$AA?9?$AAm?$AAs?$AA?9?$AAw?$AAi?$AAn?$AA?9?$AAc?$AAo?$AAr?$AAe?$AA?9?$AAp?$AAr?$AAo?$AAc?$AAe?$AAs?$AAs?$AAt?$AAh?$AAr?$AAe?$AAa?$AAd?$AAs?$AA?9?$AAl@ 0000000180030ec0     libucrt:winapi_thunks.obj
 0002:00001f10       ??_C@_1DM@LNCGDDPN@?$AAa?$AAp?$AAi?$AA?9?$AAm?$AAs?$AA?9?$AAw?$AAi?$AAn?$AA?9?$AAc?$AAo?$AAr?$AAe?$AA?9?$AAs?$AAt?$AAr?$AAi?$AAn?$AAg?$AA?9?$AAl?$AA1?$AA?9?$AA1?$AA?9?$AA0?$AA?$AA@ 0000000180030f10     libucrt:winapi_thunks.obj
 0002:00001f50       ??_C@_1DO@FPAPJEMD@?$AAa?$AAp?$AAi?$AA?9?$AAm?$AAs?$AA?9?$AAw?$AAi?$AAn?$AA?9?$AAc?$AAo?$AAr?$AAe?$AA?9?$AAs?$AAy?$AAs?$AAi?$AAn?$AAf?$AAo?$AA?9?$AAl?$AA1?$AA?9?$AA2?$AA?9?$AA1?$AA?$AA@ 0000000180030f50     libucrt:winapi_thunks.obj
 0002:00001f90       ??_C@_1DK@NDHNAHIO@?$AAa?$AAp?$AAi?$AA?9?$AAm?$AAs?$AA?9?$AAw?$AAi?$AAn?$AA?9?$AAc?$AAo?$AAr?$AAe?$AA?9?$AAw?$AAi?$AAn?$AAr?$AAt?$AA?9?$AAl?$AA1?$AA?9?$AA1?$AA?9?$AA0?$AA?$AA@ 0000000180030f90     libucrt:winapi_thunks.obj
 0002:00001fd0       ??_C@_1DM@KGHDGBCM@?$AAa?$AAp?$AAi?$AA?9?$AAm?$AAs?$AA?9?$AAw?$AAi?$AAn?$AA?9?$AAc?$AAo?$AAr?$AAe?$AA?9?$AAx?$AAs?$AAt?$AAa?$AAt?$AAe?$AA?9?$AAl?$AA2?$AA?9?$AA1?$AA?9?$AA0?$AA?$AA@ 0000000180030fd0     libucrt:winapi_thunks.obj
 0002:00002010       ??_C@_1EO@IJIOEFOH@?$AAa?$AAp?$AAi?$AA?9?$AAm?$AAs?$AA?9?$AAw?$AAi?$AAn?$AA?9?$AAr?$AAt?$AAc?$AAo?$AAr?$AAe?$AA?9?$AAn?$AAt?$AAu?$AAs?$AAe?$AAr?$AA?9?$AAw?$AAi?$AAn?$AAd?$AAo?$AAw?$AA?9@ 0000000180031010     libucrt:winapi_thunks.obj
 0002:00002060       ??_C@_1FG@HHGEKANL@?$AAa?$AAp?$AAi?$AA?9?$AAm?$AAs?$AA?9?$AAw?$AAi?$AAn?$AA?9?$AAs?$AAe?$AAc?$AAu?$AAr?$AAi?$AAt?$AAy?$AA?9?$AAs?$AAy?$AAs?$AAt?$AAe?$AAm?$AAf?$AAu?$AAn?$AAc?$AAt?$AAi@ 0000000180031060     libucrt:winapi_thunks.obj
 0002:000020c0       ??_C@_1FG@NCKKOLKO@?$AAe?$AAx?$AAt?$AA?9?$AAm?$AAs?$AA?9?$AAw?$AAi?$AAn?$AA?9?$AAk?$AAe?$AAr?$AAn?$AAe?$AAl?$AA3?$AA2?$AA?9?$AAp?$AAa?$AAc?$AAk?$AAa?$AAg?$AAe?$AA?9?$AAc?$AAu?$AAr?$AAr@ 00000001800310c0     libucrt:winapi_thunks.obj
 0002:00002120       ??_C@_1EG@DBIOJECG@?$AAe?$AAx?$AAt?$AA?9?$AAm?$AAs?$AA?9?$AAw?$AAi?$AAn?$AA?9?$AAn?$AAt?$AAu?$AAs?$AAe?$AAr?$AA?9?$AAd?$AAi?$AAa?$AAl?$AAo?$AAg?$AAb?$AAo?$AAx?$AA?9?$AAl?$AA1?$AA?9?$AA1@ 0000000180031120     libucrt:winapi_thunks.obj
 0002:00002170       ??_C@_1EO@FIHMJCLF@?$AAe?$AAx?$AAt?$AA?9?$AAm?$AAs?$AA?9?$AAw?$AAi?$AAn?$AA?9?$AAn?$AAt?$AAu?$AAs?$AAe?$AAr?$AA?9?$AAw?$AAi?$AAn?$AAd?$AAo?$AAw?$AAs?$AAt?$AAa?$AAt?$AAi?$AAo?$AAn?$AA?9@ 0000000180031170     libucrt:winapi_thunks.obj
 0002:000021c0       ??_C@_1O@BCCLBEOE@?$AAu?$AAs?$AAe?$AAr?$AA3?$AA2?$AA?$AA@ 00000001800311c0     libucrt:winapi_thunks.obj
 0002:000021f8       ??_C@_0BA@HNOPNCHB@GetActiveWindow?$AA@ 00000001800311f8     libucrt:winapi_thunks.obj
 0002:00002210       ??_C@_0BE@JOGNEJCI@GetCurrentPackageId?$AA@ 0000000180031210     libucrt:winapi_thunks.obj
 0002:00002230       ??_C@_0BD@HHGDFDBJ@GetLastActivePopup?$AA@ 0000000180031230     libucrt:winapi_thunks.obj
 0002:00002250       ??_C@_0BI@DFKBFLJE@GetProcessWindowStation?$AA@ 0000000180031250     libucrt:winapi_thunks.obj
 0002:00002270       ??_C@_0BK@DEKFELLI@GetUserObjectInformationW?$AA@ 0000000180031270     libucrt:winapi_thunks.obj
 0002:000022a0       ??_C@_0O@KKBNKAPF@LCMapStringEx?$AA@ 00000001800312a0     libucrt:winapi_thunks.obj
 0002:000022b8       ??_C@_0BB@HBDEELFH@LocaleNameToLCID?$AA@ 00000001800312b8     libucrt:winapi_thunks.obj
 0002:000022d8       ??_C@_0M@CHKKJDAI@MessageBoxA?$AA@ 00000001800312d8     libucrt:winapi_thunks.obj
 0002:000022f0       ??_C@_0M@DLDCCGNP@MessageBoxW?$AA@ 00000001800312f0     libucrt:winapi_thunks.obj
 0002:00002320       ??_C@_1M@HPNHIDJI@?$AAj?$AAa?$AA?9?$AAJ?$AAP?$AA?$AA@ 0000000180031320     libucrt:mbctype.obj
 0002:00002330       ??_C@_1M@BIBDDEMK@?$AAz?$AAh?$AA?9?$AAC?$AAN?$AA?$AA@ 0000000180031330     libucrt:mbctype.obj
 0002:00002340       ??_C@_1M@JLOOOEGK@?$AAk?$AAo?$AA?9?$AAK?$AAR?$AA?$AA@ 0000000180031340     libucrt:mbctype.obj
 0002:00002350       ??_C@_1M@CLNBBOPM@?$AAz?$AAh?$AA?9?$AAT?$AAW?$AA?$AA@ 0000000180031350     libucrt:mbctype.obj
 0002:0000235c       ??_C@_03OEIAHPBN@INF?$AA@  000000018003135c     libucrt:cvt.obj
 0002:00002360       ??_C@_03OJHLLCGB@inf?$AA@  0000000180031360     libucrt:cvt.obj
 0002:00002364       ??_C@_03LKNCIKJB@NAN?$AA@  0000000180031364     libucrt:cvt.obj
 0002:00002368       ??_C@_03LHCJEHON@nan?$AA@  0000000180031368     libucrt:cvt.obj
 0002:00002370       ??_C@_09OFJJIMPC@NAN?$CISNAN?$CJ?$AA@ 0000000180031370     libucrt:cvt.obj
 0002:00002380       ??_C@_09IPFBKMDL@nan?$CIsnan?$CJ?$AA@ 0000000180031380     libucrt:cvt.obj
 0002:00002390       ??_C@_08IKHNHAJ@NAN?$CIIND?$CJ?$AA@ 0000000180031390     libucrt:cvt.obj
 0002:000023a0       ??_C@_08OFCDMILK@nan?$CIind?$CJ?$AA@ 00000001800313a0     libucrt:cvt.obj
 0002:000023ac       ??_C@_05KLBDPFGC@e?$CL000?$AA@ 00000001800313ac     libucrt:cvt.obj
 0002:000023c0       __newctype                 00000001800313c0     libucrt:ctype.obj
 0002:000026c0       __newclmap                 00000001800316c0     libucrt:ctype.obj
 0002:00002840       __newcumap                 0000000180031840     libucrt:ctype.obj
 0002:000029c0       _wctype                    00000001800319c0     libucrt:ctype.obj
 0002:00002bc4       ??_C@_15PJPFLCCM@?$AAu?$AAk?$AA?$AA@ 0000000180031bc4     libucrt:get_qualified_locale.obj
 0002:00003a10       ??_C@_15EMKDOKLE@?$AAa?$AAr?$AA?$AA@ 0000000180032a10     libucrt:lcidtoname_downlevel.obj
 0002:00003a18       ??_C@_15KNPADPLH@?$AAb?$AAg?$AA?$AA@ 0000000180032a18     libucrt:lcidtoname_downlevel.obj
 0002:00003a20       ??_C@_15EDMHLDMO@?$AAc?$AAa?$AA?$AA@ 0000000180032a20     libucrt:lcidtoname_downlevel.obj
 0002:00003a28       ??_C@_1O@BPEAJADD@?$AAz?$AAh?$AA?9?$AAC?$AAH?$AAS?$AA?$AA@ 0000000180032a28     libucrt:lcidtoname_downlevel.obj
 0002:00003a38       ??_C@_15LJNHCMNK@?$AAc?$AAs?$AA?$AA@ 0000000180032a38     libucrt:lcidtoname_downlevel.obj
 0002:00003a40       ??_C@_15FOMCIDHG@?$AAd?$AAa?$AA?$AA@ 0000000180032a40     libucrt:lcidtoname_downlevel.obj
 0002:00003a48       ??_C@_15NBKABECB@?$AAd?$AAe?$AA?$AA@ 0000000180032a48     libucrt:lcidtoname_downlevel.obj
 0002:00003a50       ??_C@_15GHPEIIAO@?$AAe?$AAl?$AA?$AA@ 0000000180032a50     libucrt:lcidtoname_downlevel.obj
 0002:00003a58       ??_C@_15MNPNEAIF@?$AAe?$AAn?$AA?$AA@ 0000000180032a58     libucrt:lcidtoname_downlevel.obj
 0002:00003a60       ??_C@_15GPIOMPMH@?$AAe?$AAs?$AA?$AA@ 0000000180032a60     libucrt:lcidtoname_downlevel.obj
 0002:00003a68       ??_C@_15NGLOAKJC@?$AAf?$AAi?$AA?$AA@ 0000000180032a68     libucrt:lcidtoname_downlevel.obj
 0002:00003a70       ??_C@_15FBKGNKAM@?$AAf?$AAr?$AA?$AA@ 0000000180032a70     libucrt:lcidtoname_downlevel.obj
 0002:00003a78       ??_C@_15KGGCNEFK@?$AAh?$AAe?$AA?$AA@ 0000000180032a78     libucrt:lcidtoname_downlevel.obj
 0002:00003a80       ??_C@_15PGHLIDMF@?$AAh?$AAu?$AA?$AA@ 0000000180032a80     libucrt:lcidtoname_downlevel.obj
 0002:00003a88       ??_C@_15BIEMAPLM@?$AAi?$AAs?$AA?$AA@ 0000000180032a88     libucrt:lcidtoname_downlevel.obj
 0002:00003a90       ??_C@_15IFJLDHAF@?$AAi?$AAt?$AA?$AA@ 0000000180032a90     libucrt:lcidtoname_downlevel.obj
 0002:00003a98       ??_C@_15GEMIOCAG@?$AAj?$AAa?$AA?$AA@ 0000000180032a98     libucrt:lcidtoname_downlevel.obj
 0002:00003aa0       ??_C@_15EPELEGJA@?$AAk?$AAo?$AA?$AA@ 0000000180032aa0     libucrt:lcidtoname_downlevel.obj
 0002:00003aa8       ??_C@_15NDDHIMN@?$AAn?$AAl?$AA?$AA@ 0000000180032aa8     libucrt:lcidtoname_downlevel.obj
 0002:00003ab0       ??_C@_15BPIGNHCD@?$AAn?$AAo?$AA?$AA@ 0000000180032ab0     libucrt:lcidtoname_downlevel.obj
 0002:00003ab8       ??_C@_15DEOPBLCG@?$AAp?$AAl?$AA?$AA@ 0000000180032ab8     libucrt:lcidtoname_downlevel.obj
 0002:00003ac0       ??_C@_15KBECGEFG@?$AAp?$AAt?$AA?$AA@ 0000000180032ac0     libucrt:lcidtoname_downlevel.obj
 0002:00003ac8       ??_C@_15GLJCBFMD@?$AAr?$AAo?$AA?$AA@ 0000000180032ac8     libucrt:lcidtoname_downlevel.obj
 0002:00003ad0       ??_C@_15FEDGKCDI@?$AAr?$AAu?$AA?$AA@ 0000000180032ad0     libucrt:lcidtoname_downlevel.obj
 0002:00003ad8       ??_C@_15GLKMLLHM@?$AAh?$AAr?$AA?$AA@ 0000000180032ad8     libucrt:lcidtoname_downlevel.obj
 0002:00003ae0       ??_C@_15CPKMFBDB@?$AAs?$AAk?$AA?$AA@ 0000000180032ae0     libucrt:lcidtoname_downlevel.obj
 0002:00003ae8       ??_C@_15BAAIOGMK@?$AAs?$AAq?$AA?$AA@ 0000000180032ae8     libucrt:lcidtoname_downlevel.obj
 0002:00003af0       ??_C@_15INNPNOHD@?$AAs?$AAv?$AA?$AA@ 0000000180032af0     libucrt:lcidtoname_downlevel.obj
 0002:00003af8       ??_C@_15CABMMOGH@?$AAt?$AAh?$AA?$AA@ 0000000180032af8     libucrt:lcidtoname_downlevel.obj
 0002:00003b00       ??_C@_15BPLIHJJM@?$AAt?$AAr?$AA?$AA@ 0000000180032b00     libucrt:lcidtoname_downlevel.obj
 0002:00003b08       ??_C@_15NEOEKKDJ@?$AAu?$AAr?$AA?$AA@ 0000000180032b08     libucrt:lcidtoname_downlevel.obj
 0002:00003b10       ??_C@_15NFICGAJK@?$AAi?$AAd?$AA?$AA@ 0000000180032b10     libucrt:lcidtoname_downlevel.obj
 0002:00003b18       ??_C@_15HPJPHDM@?$AAb?$AAe?$AA?$AA@ 0000000180032b18     libucrt:lcidtoname_downlevel.obj
 0002:00003b20       ??_C@_15LCHLGJII@?$AAs?$AAl?$AA?$AA@ 0000000180032b20     libucrt:lcidtoname_downlevel.obj
 0002:00003b28       ??_C@_15PCFJPHHO@?$AAe?$AAt?$AA?$AA@ 0000000180032b28     libucrt:lcidtoname_downlevel.obj
 0002:00003b30       ??_C@_15HPFPGODN@?$AAl?$AAv?$AA?$AA@ 0000000180032b30     libucrt:lcidtoname_downlevel.obj
 0002:00003b38       ??_C@_15NFFGKGLG@?$AAl?$AAt?$AA?$AA@ 0000000180032b38     libucrt:lcidtoname_downlevel.obj
 0002:00003b40       ??_C@_15BDAKCCHN@?$AAf?$AAa?$AA?$AA@ 0000000180032b40     libucrt:lcidtoname_downlevel.obj
 0002:00003b48       ??_C@_15NFGIAIAJ@?$AAv?$AAi?$AA?$AA@ 0000000180032b48     libucrt:lcidtoname_downlevel.obj
 0002:00003b50       ??_C@_15LMKNDMHN@?$AAh?$AAy?$AA?$AA@ 0000000180032b50     libucrt:lcidtoname_downlevel.obj
 0002:00003b58       ??_C@_15IJBHMCFL@?$AAa?$AAz?$AA?$AA@ 0000000180032b58     libucrt:lcidtoname_downlevel.obj
 0002:00003b60       ??_C@_15EKOFJABL@?$AAe?$AAu?$AA?$AA@ 0000000180032b60     libucrt:lcidtoname_downlevel.obj
 0002:00003b68       ??_C@_15BGHADCNK@?$AAm?$AAk?$AA?$AA@ 0000000180032b68     libucrt:lcidtoname_downlevel.obj
 0002:00003b70       ??_C@_15JDNICKHM@?$AAa?$AAf?$AA?$AA@ 0000000180032b70     libucrt:lcidtoname_downlevel.obj
 0002:00003b78       ??_C@_15KPJEDBKD@?$AAk?$AAa?$AA?$AA@ 0000000180032b78     libucrt:lcidtoname_downlevel.obj
 0002:00003b80       ??_C@_15PDNFFFEO@?$AAf?$AAo?$AA?$AA@ 0000000180032b80     libucrt:lcidtoname_downlevel.obj
 0002:00003b88       ??_C@_15OMLEGLOC@?$AAh?$AAi?$AA?$AA@ 0000000180032b88     libucrt:lcidtoname_downlevel.obj
 0002:00003b90       ??_C@_15IDNNENKK@?$AAm?$AAs?$AA?$AA@ 0000000180032b90     libucrt:lcidtoname_downlevel.obj
 0002:00003b98       ??_C@_15MACJNBMH@?$AAk?$AAk?$AA?$AA@ 0000000180032b98     libucrt:lcidtoname_downlevel.obj
 0002:00003ba0       ??_C@_15DKDJEOND@?$AAk?$AAy?$AA?$AA@ 0000000180032ba0     libucrt:lcidtoname_downlevel.obj
 0002:00003ba8       ??_C@_15DFGDLJBG@?$AAs?$AAw?$AA?$AA@ 0000000180032ba8     libucrt:lcidtoname_downlevel.obj
 0002:00003bb0       ??_C@_15BBFAICNG@?$AAu?$AAz?$AA?$AA@ 0000000180032bb0     libucrt:lcidtoname_downlevel.obj
 0002:00003bb8       ??_C@_15DKNDCGEA@?$AAt?$AAt?$AA?$AA@ 0000000180032bb8     libucrt:lcidtoname_downlevel.obj
 0002:00003bc0       ??_C@_15MGIFMDPL@?$AAp?$AAa?$AA?$AA@ 0000000180032bc0     libucrt:lcidtoname_downlevel.obj
 0002:00003bc8       ??_C@_15HCNDBBA@?$AAg?$AAu?$AA?$AA@ 0000000180032bc8     libucrt:lcidtoname_downlevel.obj
 0002:00003bd0       ??_C@_15FNBEIBON@?$AAt?$AAa?$AA?$AA@ 0000000180032bd0     libucrt:lcidtoname_downlevel.obj
 0002:00003bd8       ??_C@_15NCHGBGLK@?$AAt?$AAe?$AA?$AA@ 0000000180032bd8     libucrt:lcidtoname_downlevel.obj
 0002:00003be0       ??_C@_15PHPHCBPF@?$AAk?$AAn?$AA?$AA@ 0000000180032be0     libucrt:lcidtoname_downlevel.obj
 0002:00003be8       ??_C@_15DLGBCKMP@?$AAm?$AAr?$AA?$AA@ 0000000180032be8     libucrt:lcidtoname_downlevel.obj
 0002:00003bf0       ??_C@_15EABBLBFF@?$AAs?$AAa?$AA?$AA@ 0000000180032bf0     libucrt:lcidtoname_downlevel.obj
 0002:00003bf8       ??_C@_15CBKOMCOI@?$AAm?$AAn?$AA?$AA@ 0000000180032bf8     libucrt:lcidtoname_downlevel.obj
 0002:00003c00       ??_C@_15CKDMCJAF@?$AAg?$AAl?$AA?$AA@ 0000000180032c00     libucrt:lcidtoname_downlevel.obj
 0002:00003c08       ??_C@_17CNJFBPG@?$AAk?$AAo?$AAk?$AA?$AA@ 0000000180032c08     libucrt:lcidtoname_downlevel.obj
 0002:00003c10       ??_C@_17FFBJICPL@?$AAs?$AAy?$AAr?$AA?$AA@ 0000000180032c10     libucrt:lcidtoname_downlevel.obj
 0002:00003c18       ??_C@_17KPNDCPAF@?$AAd?$AAi?$AAv?$AA?$AA@ 0000000180032c18     libucrt:lcidtoname_downlevel.obj
 0002:00003c20       ??_C@_1M@OKAHONE@?$AAa?$AAr?$AA?9?$AAS?$AAA?$AA?$AA@ 0000000180032c20     libucrt:lcidtoname_downlevel.obj
 0002:00003c30       ??_C@_1M@FFFIGIGK@?$AAb?$AAg?$AA?9?$AAB?$AAG?$AA?$AA@ 0000000180032c30     libucrt:lcidtoname_downlevel.obj
 0002:00003c40       ??_C@_1M@BJNKEDC@?$AAc?$AAa?$AA?9?$AAE?$AAS?$AA?$AA@ 0000000180032c40     libucrt:lcidtoname_downlevel.obj
 0002:00003c50       ??_C@_1M@IJJHFJHA@?$AAc?$AAs?$AA?9?$AAC?$AAZ?$AA?$AA@ 0000000180032c50     libucrt:lcidtoname_downlevel.obj
 0002:00003c60       ??_C@_1M@CLPEOBGI@?$AAd?$AAa?$AA?9?$AAD?$AAK?$AA?$AA@ 0000000180032c60     libucrt:lcidtoname_downlevel.obj
 0002:00003c70       ??_C@_1M@MCMADGCB@?$AAd?$AAe?$AA?9?$AAD?$AAE?$AA?$AA@ 0000000180032c70     libucrt:lcidtoname_downlevel.obj
 0002:00003c80       ??_C@_1M@OOCKEMAM@?$AAe?$AAl?$AA?9?$AAG?$AAR?$AA?$AA@ 0000000180032c80     libucrt:lcidtoname_downlevel.obj
 0002:00003c90       ??_C@_1M@DDNJFGID@?$AAf?$AAi?$AA?9?$AAF?$AAI?$AA?$AA@ 0000000180032c90     libucrt:lcidtoname_downlevel.obj
 0002:00003ca0       ??_C@_1M@GLIPPMAC@?$AAf?$AAr?$AA?9?$AAF?$AAR?$AA?$AA@ 0000000180032ca0     libucrt:lcidtoname_downlevel.obj
 0002:00003cb0       ??_C@_1M@GFMCHPE@?$AAh?$AAe?$AA?9?$AAI?$AAL?$AA?$AA@ 0000000180032cb0     libucrt:lcidtoname_downlevel.obj
 0002:00003cc0       ??_C@_1M@MHLPGNKM@?$AAh?$AAu?$AA?9?$AAH?$AAU?$AA?$AA@ 0000000180032cc0     libucrt:lcidtoname_downlevel.obj
 0002:00003cd0       ??_C@_1M@LPDDNNPN@?$AAi?$AAs?$AA?9?$AAI?$AAS?$AA?$AA@ 0000000180032cd0     libucrt:lcidtoname_downlevel.obj
 0002:00003ce0       ??_C@_1M@MADIPODN@?$AAi?$AAt?$AA?9?$AAI?$AAT?$AA?$AA@ 0000000180032ce0     libucrt:lcidtoname_downlevel.obj
 0002:00003cf0       ??_C@_1M@IHBJJGG@?$AAn?$AAl?$AA?9?$AAN?$AAL?$AA?$AA@ 0000000180032cf0     libucrt:lcidtoname_downlevel.obj
 0002:00003d00       ??_C@_1M@EANAGDL@?$AAn?$AAb?$AA?9?$AAN?$AAO?$AA?$AA@ 0000000180032d00     libucrt:lcidtoname_downlevel.obj
 0002:00003d10       ??_C@_1M@NEIEMEGP@?$AAp?$AAl?$AA?9?$AAP?$AAL?$AA?$AA@ 0000000180032d10     libucrt:lcidtoname_downlevel.obj
 0002:00003d20       ??_C@_1M@BOCFIGEP@?$AAp?$AAt?$AA?9?$AAB?$AAR?$AA?$AA@ 0000000180032d20     libucrt:lcidtoname_downlevel.obj
 0002:00003d30       ??_C@_1M@IMPFOPBG@?$AAr?$AAo?$AA?9?$AAR?$AAO?$AA?$AA@ 0000000180032d30     libucrt:lcidtoname_downlevel.obj
 0002:00003d40       ??_C@_1M@IDNNEJMM@?$AAr?$AAu?$AA?9?$AAR?$AAU?$AA?$AA@ 0000000180032d40     libucrt:lcidtoname_downlevel.obj
 0002:00003d50       ??_C@_1M@LILEEOGM@?$AAh?$AAr?$AA?9?$AAH?$AAR?$AA?$AA@ 0000000180032d50     libucrt:lcidtoname_downlevel.obj
 0002:00003d60       ??_C@_1M@FKIFEHPB@?$AAs?$AAk?$AA?9?$AAS?$AAK?$AA?$AA@ 0000000180032d60     libucrt:lcidtoname_downlevel.obj
 0002:00003d70       ??_C@_1M@LJMAMNPJ@?$AAs?$AAq?$AA?9?$AAA?$AAL?$AA?$AA@ 0000000180032d70     libucrt:lcidtoname_downlevel.obj
 0002:00003d80       ??_C@_1M@GIAKDKJK@?$AAs?$AAv?$AA?9?$AAS?$AAE?$AA?$AA@ 0000000180032d80     libucrt:lcidtoname_downlevel.obj
 0002:00003d90       ??_C@_1M@MKJKIKCL@?$AAt?$AAh?$AA?9?$AAT?$AAH?$AA?$AA@ 0000000180032d90     libucrt:lcidtoname_downlevel.obj
 0002:00003da0       ??_C@_1M@MFLCCMPB@?$AAt?$AAr?$AA?9?$AAT?$AAR?$AA?$AA@ 0000000180032da0     libucrt:lcidtoname_downlevel.obj
 0002:00003db0       ??_C@_1M@OIJHDKJN@?$AAu?$AAr?$AA?9?$AAP?$AAK?$AA?$AA@ 0000000180032db0     libucrt:lcidtoname_downlevel.obj
 0002:00003dc0       ??_C@_1M@LHIPCIEK@?$AAi?$AAd?$AA?9?$AAI?$AAD?$AA?$AA@ 0000000180032dc0     libucrt:lcidtoname_downlevel.obj
 0002:00003dd0       ??_C@_1M@MFMOBGI@?$AAu?$AAk?$AA?9?$AAU?$AAA?$AA?$AA@ 0000000180032dd0     libucrt:lcidtoname_downlevel.obj
 0002:00003de0       ??_C@_1M@OBGLJIPL@?$AAb?$AAe?$AA?9?$AAB?$AAY?$AA?$AA@ 0000000180032de0     libucrt:lcidtoname_downlevel.obj
 0002:00003df0       ??_C@_1M@BCFAJEAD@?$AAs?$AAl?$AA?9?$AAS?$AAI?$AA?$AA@ 0000000180032df0     libucrt:lcidtoname_downlevel.obj
 0002:00003e00       ??_C@_1M@FKFFEDDN@?$AAe?$AAt?$AA?9?$AAE?$AAE?$AA?$AA@ 0000000180032e00     libucrt:lcidtoname_downlevel.obj
 0002:00003e10       ??_C@_1M@KGKKAACI@?$AAl?$AAv?$AA?9?$AAL?$AAV?$AA?$AA@ 0000000180032e10     libucrt:lcidtoname_downlevel.obj
 0002:00003e20       ??_C@_1M@IFGBIJO@?$AAl?$AAt?$AA?9?$AAL?$AAT?$AA?$AA@ 0000000180032e20     libucrt:lcidtoname_downlevel.obj
 0002:00003e30       ??_C@_1M@FGEAHEDM@?$AAf?$AAa?$AA?9?$AAI?$AAR?$AA?$AA@ 0000000180032e30     libucrt:lcidtoname_downlevel.obj
 0002:00003e40       ??_C@_1M@KBMAIBFN@?$AAv?$AAi?$AA?9?$AAV?$AAN?$AA?$AA@ 0000000180032e40     libucrt:lcidtoname_downlevel.obj
 0002:00003e50       ??_C@_1M@GPCBKDJK@?$AAh?$AAy?$AA?9?$AAA?$AAM?$AA?$AA@ 0000000180032e50     libucrt:lcidtoname_downlevel.obj
 0002:00003e60       ??_C@_1BG@BECMDDJB@?$AAa?$AAz?$AA?9?$AAA?$AAZ?$AA?9?$AAL?$AAa?$AAt?$AAn?$AA?$AA@ 0000000180032e60     libucrt:lcidtoname_downlevel.obj
 0002:00003e78       ??_C@_1M@MAOFCAEA@?$AAe?$AAu?$AA?9?$AAE?$AAS?$AA?$AA@ 0000000180032e78     libucrt:lcidtoname_downlevel.obj
 0002:00003e88       ??_C@_1M@IGHABKPI@?$AAm?$AAk?$AA?9?$AAM?$AAK?$AA?$AA@ 0000000180032e88     libucrt:lcidtoname_downlevel.obj
 0002:00003e98       ??_C@_1M@IAIGNEJG@?$AAt?$AAn?$AA?9?$AAZ?$AAA?$AA?$AA@ 0000000180032e98     libucrt:lcidtoname_downlevel.obj
 0002:00003ea8       ??_C@_1M@IIJCOJFA@?$AAx?$AAh?$AA?9?$AAZ?$AAA?$AA?$AA@ 0000000180032ea8     libucrt:lcidtoname_downlevel.obj
 0002:00003eb8       ??_C@_1M@LGPJHNJH@?$AAz?$AAu?$AA?9?$AAZ?$AAA?$AA?$AA@ 0000000180032eb8     libucrt:lcidtoname_downlevel.obj
 0002:00003ec8       ??_C@_1M@HOKAOIO@?$AAa?$AAf?$AA?9?$AAZ?$AAA?$AA?$AA@ 0000000180032ec8     libucrt:lcidtoname_downlevel.obj
 0002:00003ed8       ??_C@_1M@DPCLHLIE@?$AAk?$AAa?$AA?9?$AAG?$AAE?$AA?$AA@ 0000000180032ed8     libucrt:lcidtoname_downlevel.obj
 0002:00003ee8       ??_C@_1M@BLKMHJBI@?$AAf?$AAo?$AA?9?$AAF?$AAO?$AA?$AA@ 0000000180032ee8     libucrt:lcidtoname_downlevel.obj
 0002:00003ef8       ??_C@_1M@LGGJAPPB@?$AAh?$AAi?$AA?9?$AAI?$AAN?$AA?$AA@ 0000000180032ef8     libucrt:lcidtoname_downlevel.obj
 0002:00003f08       ??_C@_1M@FIKPIHFE@?$AAm?$AAt?$AA?9?$AAM?$AAT?$AA?$AA@ 0000000180032f08     libucrt:lcidtoname_downlevel.obj
 0002:00003f18       ??_C@_1M@HEGGPBFA@?$AAs?$AAe?$AA?9?$AAN?$AAO?$AA?$AA@ 0000000180032f18     libucrt:lcidtoname_downlevel.obj
 0002:00003f28       ??_C@_1M@EIBJEEPA@?$AAm?$AAs?$AA?9?$AAM?$AAY?$AA?$AA@ 0000000180032f28     libucrt:lcidtoname_downlevel.obj
 0002:00003f38       ??_C@_1M@FHLBGMPP@?$AAk?$AAk?$AA?9?$AAK?$AAZ?$AA?$AA@ 0000000180032f38     libucrt:lcidtoname_downlevel.obj
 0002:00003f48       ??_C@_1M@NGJJLCGI@?$AAk?$AAy?$AA?9?$AAK?$AAG?$AA?$AA@ 0000000180032f48     libucrt:lcidtoname_downlevel.obj
 0002:00003f58       ??_C@_1M@GIENNBFC@?$AAs?$AAw?$AA?9?$AAK?$AAE?$AA?$AA@ 0000000180032f58     libucrt:lcidtoname_downlevel.obj
 0002:00003f68       ??_C@_1BG@NDGMJIMJ@?$AAu?$AAz?$AA?9?$AAU?$AAZ?$AA?9?$AAL?$AAa?$AAt?$AAn?$AA?$AA@ 0000000180032f68     libucrt:lcidtoname_downlevel.obj
 0002:00003f80       ??_C@_1M@IDCCIHBC@?$AAt?$AAt?$AA?9?$AAR?$AAU?$AA?$AA@ 0000000180032f80     libucrt:lcidtoname_downlevel.obj
 0002:00003f90       ??_C@_1M@LOICPMOJ@?$AAb?$AAn?$AA?9?$AAI?$AAN?$AA?$AA@ 0000000180032f90     libucrt:lcidtoname_downlevel.obj
 0002:00003fa0       ??_C@_1M@KPKKNEAH@?$AAp?$AAa?$AA?9?$AAI?$AAN?$AA?$AA@ 0000000180032fa0     libucrt:lcidtoname_downlevel.obj
 0002:00003fb0       ??_C@_1M@PJGPPBOG@?$AAg?$AAu?$AA?9?$AAI?$AAN?$AA?$AA@ 0000000180032fb0     libucrt:lcidtoname_downlevel.obj
 0002:00003fc0       ??_C@_1M@KMKMOPHI@?$AAt?$AAa?$AA?9?$AAI?$AAN?$AA?$AA@ 0000000180032fc0     libucrt:lcidtoname_downlevel.obj
 0002:00003fd0       ??_C@_1M@KFEHEPAC@?$AAt?$AAe?$AA?9?$AAI?$AAN?$AA?$AA@ 0000000180032fd0     libucrt:lcidtoname_downlevel.obj
 0002:00003fe0       ??_C@_1M@CDCLMGHI@?$AAk?$AAn?$AA?9?$AAI?$AAN?$AA?$AA@ 0000000180032fe0     libucrt:lcidtoname_downlevel.obj
 0002:00003ff0       ??_C@_1M@MIODLDKF@?$AAm?$AAl?$AA?9?$AAI?$AAN?$AA?$AA@ 0000000180032ff0     libucrt:lcidtoname_downlevel.obj
 0002:00004000       ??_C@_1M@PBIEACPO@?$AAm?$AAr?$AA?9?$AAI?$AAN?$AA?$AA@ 0000000180033000     libucrt:lcidtoname_downlevel.obj
 0002:00004010       ??_C@_1M@NIDEAGPH@?$AAs?$AAa?$AA?9?$AAI?$AAN?$AA?$AA@ 0000000180033010     libucrt:lcidtoname_downlevel.obj
 0002:00004020       ??_C@_1M@FHIHCBIO@?$AAm?$AAn?$AA?9?$AAM?$AAN?$AA?$AA@ 0000000180033020     libucrt:lcidtoname_downlevel.obj
 0002:00004030       ??_C@_1M@JAIJPENP@?$AAc?$AAy?$AA?9?$AAG?$AAB?$AA?$AA@ 0000000180033030     libucrt:lcidtoname_downlevel.obj
 0002:00004040       ??_C@_1M@PHGFBEPN@?$AAg?$AAl?$AA?9?$AAE?$AAS?$AA?$AA@ 0000000180033040     libucrt:lcidtoname_downlevel.obj
 0002:00004050       ??_C@_1O@KPIPDNCP@?$AAk?$AAo?$AAk?$AA?9?$AAI?$AAN?$AA?$AA@ 0000000180033050     libucrt:lcidtoname_downlevel.obj
 0002:00004060       ??_C@_1O@KNHJLDJA@?$AAs?$AAy?$AAr?$AA?9?$AAS?$AAY?$AA?$AA@ 0000000180033060     libucrt:lcidtoname_downlevel.obj
 0002:00004070       ??_C@_1O@MKEKBLAH@?$AAd?$AAi?$AAv?$AA?9?$AAM?$AAV?$AA?$AA@ 0000000180033070     libucrt:lcidtoname_downlevel.obj
 0002:00004080       ??_C@_1O@OHDCKDDF@?$AAq?$AAu?$AAz?$AA?9?$AAB?$AAO?$AA?$AA@ 0000000180033080     libucrt:lcidtoname_downlevel.obj
 0002:00004090       ??_C@_1M@LEPJNLFD@?$AAn?$AAs?$AA?9?$AAZ?$AAA?$AA?$AA@ 0000000180033090     libucrt:lcidtoname_downlevel.obj
 0002:000040a0       ??_C@_1M@OMLEIIJB@?$AAm?$AAi?$AA?9?$AAN?$AAZ?$AA?$AA@ 00000001800330a0     libucrt:lcidtoname_downlevel.obj
 0002:000040b0       ??_C@_1M@PMPEAILG@?$AAa?$AAr?$AA?9?$AAI?$AAQ?$AA?$AA@ 00000001800330b0     libucrt:lcidtoname_downlevel.obj
 0002:000040c0       ??_C@_1M@CNKPNOEE@?$AAd?$AAe?$AA?9?$AAC?$AAH?$AA?$AA@ 00000001800330c0     libucrt:lcidtoname_downlevel.obj
 0002:000040d0       ??_C@_1M@LKMGMLKO@?$AAe?$AAn?$AA?9?$AAG?$AAB?$AA?$AA@ 00000001800330d0     libucrt:lcidtoname_downlevel.obj
 0002:000040e0       ??_C@_1M@PGKJFFGL@?$AAe?$AAs?$AA?9?$AAM?$AAX?$AA?$AA@ 00000001800330e0     libucrt:lcidtoname_downlevel.obj
 0002:000040f0       ??_C@_1M@DNNANBDC@?$AAf?$AAr?$AA?9?$AAB?$AAE?$AA?$AA@ 00000001800330f0     libucrt:lcidtoname_downlevel.obj
 0002:00004100       ??_C@_1M@HLGMDFHM@?$AAi?$AAt?$AA?9?$AAC?$AAH?$AA?$AA@ 0000000180033100     libucrt:lcidtoname_downlevel.obj
 0002:00004110       ??_C@_1M@CLLBGJH@?$AAn?$AAl?$AA?9?$AAB?$AAE?$AA?$AA@ 0000000180033110     libucrt:lcidtoname_downlevel.obj
 0002:00004120       ??_C@_1M@BODBOGLF@?$AAn?$AAn?$AA?9?$AAN?$AAO?$AA?$AA@ 0000000180033120     libucrt:lcidtoname_downlevel.obj
 0002:00004130       ??_C@_1M@HFFAHKAD@?$AAp?$AAt?$AA?9?$AAP?$AAT?$AA?$AA@ 0000000180033130     libucrt:lcidtoname_downlevel.obj
 0002:00004140       ??_C@_1BG@LNOAKHIE@?$AAs?$AAr?$AA?9?$AAS?$AAP?$AA?9?$AAL?$AAa?$AAt?$AAn?$AA?$AA@ 0000000180033140     libucrt:lcidtoname_downlevel.obj
 0002:00004158       ??_C@_1M@HBMHBGAK@?$AAs?$AAv?$AA?9?$AAF?$AAI?$AA?$AA@ 0000000180033158     libucrt:lcidtoname_downlevel.obj
 0002:00004168       ??_C@_1BG@DGCJGJBE@?$AAa?$AAz?$AA?9?$AAA?$AAZ?$AA?9?$AAC?$AAy?$AAr?$AAl?$AA?$AA@ 0000000180033168     libucrt:lcidtoname_downlevel.obj
 0002:00004180       ??_C@_1M@KEJDAAHB@?$AAs?$AAe?$AA?9?$AAS?$AAE?$AA?$AA@ 0000000180033180     libucrt:lcidtoname_downlevel.obj
 0002:00004190       ??_C@_1M@HEIBJJAD@?$AAm?$AAs?$AA?9?$AAB?$AAN?$AA?$AA@ 0000000180033190     libucrt:lcidtoname_downlevel.obj
 0002:000041a0       ??_C@_1BG@PBGJMCEM@?$AAu?$AAz?$AA?9?$AAU?$AAZ?$AA?9?$AAC?$AAy?$AAr?$AAl?$AA?$AA@ 00000001800331a0     libucrt:lcidtoname_downlevel.obj
 0002:000041b8       ??_C@_1O@LAOBCMDF@?$AAq?$AAu?$AAz?$AA?9?$AAE?$AAC?$AA?$AA@ 00000001800331b8     libucrt:lcidtoname_downlevel.obj
 0002:000041c8       ??_C@_1M@POEEMAIO@?$AAa?$AAr?$AA?9?$AAE?$AAG?$AA?$AA@ 00000001800331c8     libucrt:lcidtoname_downlevel.obj
 0002:000041d8       ??_C@_1M@EFAKDEDL@?$AAz?$AAh?$AA?9?$AAH?$AAK?$AA?$AA@ 00000001800331d8     libucrt:lcidtoname_downlevel.obj
 0002:000041e8       ??_C@_1M@HKKIJHGI@?$AAd?$AAe?$AA?9?$AAA?$AAT?$AA?$AA@ 00000001800331e8     libucrt:lcidtoname_downlevel.obj
 0002:000041f8       ??_C@_1M@KBFBEHJF@?$AAe?$AAn?$AA?9?$AAA?$AAU?$AA?$AA@ 00000001800331f8     libucrt:lcidtoname_downlevel.obj
 0002:00004208       ??_C@_1M@MNPLFAAH@?$AAe?$AAs?$AA?9?$AAE?$AAS?$AA?$AA@ 0000000180033208     libucrt:lcidtoname_downlevel.obj
 0002:00004218       ??_C@_1M@HJOOJFMA@?$AAf?$AAr?$AA?9?$AAC?$AAA?$AA?$AA@ 0000000180033218     libucrt:lcidtoname_downlevel.obj
 0002:00004228       ??_C@_1BG@JPOFPNAB@?$AAs?$AAr?$AA?9?$AAS?$AAP?$AA?9?$AAC?$AAy?$AAr?$AAl?$AA?$AA@ 0000000180033228     libucrt:lcidtoname_downlevel.obj
 0002:00004240       ??_C@_1M@LNFOCMOB@?$AAs?$AAe?$AA?9?$AAF?$AAI?$AA?$AA@ 0000000180033240     libucrt:lcidtoname_downlevel.obj
 0002:00004250       ??_C@_1O@MGJBOAMB@?$AAq?$AAu?$AAz?$AA?9?$AAP?$AAE?$AA?$AA@ 0000000180033250     libucrt:lcidtoname_downlevel.obj
 0002:00004260       ??_C@_1M@GJINLBOK@?$AAa?$AAr?$AA?9?$AAL?$AAY?$AA?$AA@ 0000000180033260     libucrt:lcidtoname_downlevel.obj
 0002:00004270       ??_C@_1M@GGMNHJNL@?$AAz?$AAh?$AA?9?$AAS?$AAG?$AA?$AA@ 0000000180033270     libucrt:lcidtoname_downlevel.obj
 0002:00004280       ??_C@_1M@HOIKODND@?$AAd?$AAe?$AA?9?$AAL?$AAU?$AA?$AA@ 0000000180033280     libucrt:lcidtoname_downlevel.obj
 0002:00004290       ??_C@_1M@DDOCCGFG@?$AAe?$AAn?$AA?9?$AAC?$AAA?$AA?$AA@ 0000000180033290     libucrt:lcidtoname_downlevel.obj
 0002:000042a0       ??_C@_1M@BNOEMJLF@?$AAe?$AAs?$AA?9?$AAG?$AAT?$AA?$AA@ 00000001800332a0     libucrt:lcidtoname_downlevel.obj
 0002:000042b0       ??_C@_1M@EOGNKEK@?$AAf?$AAr?$AA?9?$AAC?$AAH?$AA?$AA@ 00000001800332b0     libucrt:lcidtoname_downlevel.obj
 0002:000042c0       ??_C@_1M@FLIDJFHL@?$AAh?$AAr?$AA?9?$AAB?$AAA?$AA?$AA@ 00000001800332c0     libucrt:lcidtoname_downlevel.obj
 0002:000042d0       ??_C@_1O@FMCELNAJ@?$AAs?$AAm?$AAj?$AA?9?$AAN?$AAO?$AA?$AA@ 00000001800332d0     libucrt:lcidtoname_downlevel.obj
 0002:000042e0       ??_C@_1M@JHGLJMGJ@?$AAa?$AAr?$AA?9?$AAD?$AAZ?$AA?$AA@ 00000001800332e0     libucrt:lcidtoname_downlevel.obj
 0002:000042f0       ??_C@_1M@JKKFDCNP@?$AAz?$AAh?$AA?9?$AAM?$AAO?$AA?$AA@ 00000001800332f0     libucrt:lcidtoname_downlevel.obj
 0002:00004300       ??_C@_1M@GEEFALPE@?$AAd?$AAe?$AA?9?$AAL?$AAI?$AA?$AA@ 0000000180033300     libucrt:lcidtoname_downlevel.obj
 0002:00004310       ??_C@_1M@IGEOFBG@?$AAe?$AAn?$AA?9?$AAN?$AAZ?$AA?$AA@ 0000000180033310     libucrt:lcidtoname_downlevel.obj
 0002:00004320       ??_C@_1M@KDBONEHP@?$AAe?$AAs?$AA?9?$AAC?$AAR?$AA?$AA@ 0000000180033320     libucrt:lcidtoname_downlevel.obj
 0002:00004330       ??_C@_1M@FHMDOHNN@?$AAf?$AAr?$AA?9?$AAL?$AAU?$AA?$AA@ 0000000180033330     libucrt:lcidtoname_downlevel.obj
 0002:00004340       ??_C@_1BG@NFKKMAFG@?$AAb?$AAs?$AA?9?$AAB?$AAA?$AA?9?$AAL?$AAa?$AAt?$AAn?$AA?$AA@ 0000000180033340     libucrt:lcidtoname_downlevel.obj
 0002:00004358       ??_C@_1O@IMNBEMCI@?$AAs?$AAm?$AAj?$AA?9?$AAS?$AAE?$AA?$AA@ 0000000180033358     libucrt:lcidtoname_downlevel.obj
 0002:00004368       ??_C@_1M@DHHMBNDP@?$AAa?$AAr?$AA?9?$AAM?$AAA?$AA?$AA@ 0000000180033368     libucrt:lcidtoname_downlevel.obj
 0002:00004378       ??_C@_1M@BNBLJCGH@?$AAe?$AAn?$AA?9?$AAI?$AAE?$AA?$AA@ 0000000180033378     libucrt:lcidtoname_downlevel.obj
 0002:00004388       ??_C@_1M@GEPAFMDL@?$AAe?$AAs?$AA?9?$AAP?$AAA?$AA?$AA@ 0000000180033388     libucrt:lcidtoname_downlevel.obj
 0002:00004398       ??_C@_1M@OJONDMDL@?$AAf?$AAr?$AA?9?$AAM?$AAC?$AA?$AA@ 0000000180033398     libucrt:lcidtoname_downlevel.obj
 0002:000043a8       ??_C@_1BG@OBCNFJB@?$AAs?$AAr?$AA?9?$AAB?$AAA?$AA?9?$AAL?$AAa?$AAt?$AAn?$AA?$AA@ 00000001800333a8     libucrt:lcidtoname_downlevel.obj
 0002:000043c0       ??_C@_1O@KEMEEGPO@?$AAs?$AAm?$AAa?$AA?9?$AAN?$AAO?$AA?$AA@ 00000001800333c0     libucrt:lcidtoname_downlevel.obj
 0002:000043d0       ??_C@_1M@ELMGFODK@?$AAa?$AAr?$AA?9?$AAT?$AAN?$AA?$AA@ 00000001800333d0     libucrt:lcidtoname_downlevel.obj
 0002:000043e0       ??_C@_1M@BHDLHFAF@?$AAe?$AAn?$AA?9?$AAZ?$AAA?$AA?$AA@ 00000001800333e0     libucrt:lcidtoname_downlevel.obj
 0002:000043f0       ??_C@_1M@BMGIGLIF@?$AAe?$AAs?$AA?9?$AAD?$AAO?$AA?$AA@ 00000001800333f0     libucrt:lcidtoname_downlevel.obj
 0002:00004400       ??_C@_1BG@CMBHIPBE@?$AAs?$AAr?$AA?9?$AAB?$AAA?$AA?9?$AAC?$AAy?$AAr?$AAl?$AA?$AA@ 0000000180033400     libucrt:lcidtoname_downlevel.obj
 0002:00004418       ??_C@_1O@HEDBLHNP@?$AAs?$AAm?$AAa?$AA?9?$AAS?$AAE?$AA?$AA@ 0000000180033418     libucrt:lcidtoname_downlevel.obj
 0002:00004428       ??_C@_1M@DAGCADIM@?$AAa?$AAr?$AA?9?$AAO?$AAM?$AA?$AA@ 0000000180033428     libucrt:lcidtoname_downlevel.obj
 0002:00004438       ??_C@_1M@FODLMICG@?$AAe?$AAn?$AA?9?$AAJ?$AAM?$AA?$AA@ 0000000180033438     libucrt:lcidtoname_downlevel.obj
 0002:00004448       ??_C@_1M@DNMLCIHB@?$AAe?$AAs?$AA?9?$AAV?$AAE?$AA?$AA@ 0000000180033448     libucrt:lcidtoname_downlevel.obj
 0002:00004458       ??_C@_1O@EOKHMKJK@?$AAs?$AAm?$AAs?$AA?9?$AAF?$AAI?$AA?$AA@ 0000000180033458     libucrt:lcidtoname_downlevel.obj
 0002:00004468       ??_C@_1M@CAFJMKOF@?$AAa?$AAr?$AA?9?$AAY?$AAE?$AA?$AA@ 0000000180033468     libucrt:lcidtoname_downlevel.obj
 0002:00004478       ??_C@_1M@CBFHIJLI@?$AAe?$AAn?$AA?9?$AAC?$AAB?$AA?$AA@ 0000000180033478     libucrt:lcidtoname_downlevel.obj
 0002:00004488       ??_C@_1M@BGNFLDN@?$AAe?$AAs?$AA?9?$AAC?$AAO?$AA?$AA@ 0000000180033488     libucrt:lcidtoname_downlevel.obj
 0002:00004498       ??_C@_1O@JMPHMAMC@?$AAs?$AAm?$AAn?$AA?9?$AAF?$AAI?$AA?$AA@ 0000000180033498     libucrt:lcidtoname_downlevel.obj
 0002:000044a8       ??_C@_1M@JLANABKE@?$AAa?$AAr?$AA?9?$AAS?$AAY?$AA?$AA@ 00000001800334a8     libucrt:lcidtoname_downlevel.obj
 0002:000044b8       ??_C@_1M@HPKGCFGN@?$AAe?$AAn?$AA?9?$AAB?$AAZ?$AA?$AA@ 00000001800334b8     libucrt:lcidtoname_downlevel.obj
 0002:000044c8       ??_C@_1M@OLJCMLGM@?$AAe?$AAs?$AA?9?$AAP?$AAE?$AA?$AA@ 00000001800334c8     libucrt:lcidtoname_downlevel.obj
 0002:000044d8       ??_C@_1M@MKKGFKLE@?$AAa?$AAr?$AA?9?$AAJ?$AAO?$AA?$AA@ 00000001800334d8     libucrt:lcidtoname_downlevel.obj
 0002:000044e8       ??_C@_1M@EKPGLDNI@?$AAe?$AAn?$AA?9?$AAT?$AAT?$AA?$AA@ 00000001800334e8     libucrt:lcidtoname_downlevel.obj
 0002:000044f8       ??_C@_1M@OONGHFHE@?$AAe?$AAs?$AA?9?$AAA?$AAR?$AA?$AA@ 00000001800334f8     libucrt:lcidtoname_downlevel.obj
 0002:00004508       ??_C@_1M@OOJFGBHE@?$AAa?$AAr?$AA?9?$AAL?$AAB?$AA?$AA@ 0000000180033508     libucrt:lcidtoname_downlevel.obj
 0002:00004518       ??_C@_1M@GCEJHNEG@?$AAe?$AAn?$AA?9?$AAZ?$AAW?$AA?$AA@ 0000000180033518     libucrt:lcidtoname_downlevel.obj
 0002:00004528       ??_C@_1M@JNOCAHJI@?$AAe?$AAs?$AA?9?$AAE?$AAC?$AA?$AA@ 0000000180033528     libucrt:lcidtoname_downlevel.obj
 0002:00004538       ??_C@_1M@JEFHPGGB@?$AAa?$AAr?$AA?9?$AAK?$AAW?$AA?$AA@ 0000000180033538     libucrt:lcidtoname_downlevel.obj
 0002:00004548       ??_C@_1M@MLKIBJOJ@?$AAe?$AAn?$AA?9?$AAP?$AAH?$AA?$AA@ 0000000180033548     libucrt:lcidtoname_downlevel.obj
 0002:00004558       ??_C@_1M@BDNIPEND@?$AAe?$AAs?$AA?9?$AAC?$AAL?$AA?$AA@ 0000000180033558     libucrt:lcidtoname_downlevel.obj
 0002:00004568       ??_C@_1M@MPNMEKBD@?$AAa?$AAr?$AA?9?$AAA?$AAE?$AA?$AA@ 0000000180033568     libucrt:lcidtoname_downlevel.obj
 0002:00004578       ??_C@_1M@KBJALCPI@?$AAe?$AAs?$AA?9?$AAU?$AAY?$AA?$AA@ 0000000180033578     libucrt:lcidtoname_downlevel.obj
 0002:00004588       ??_C@_1M@LLCCOAGA@?$AAa?$AAr?$AA?9?$AAB?$AAH?$AA?$AA@ 0000000180033588     libucrt:lcidtoname_downlevel.obj
 0002:00004598       ??_C@_1M@PBFNCDEL@?$AAe?$AAs?$AA?9?$AAP?$AAY?$AA?$AA@ 0000000180033598     libucrt:lcidtoname_downlevel.obj
 0002:000045a8       ??_C@_1M@EDGINPNP@?$AAa?$AAr?$AA?9?$AAQ?$AAA?$AA?$AA@ 00000001800335a8     libucrt:lcidtoname_downlevel.obj
 0002:000045b8       ??_C@_1M@MKDBIIJI@?$AAe?$AAs?$AA?9?$AAB?$AAO?$AA?$AA@ 00000001800335b8     libucrt:lcidtoname_downlevel.obj
 0002:000045c8       ??_C@_1M@CPKKEBLD@?$AAe?$AAs?$AA?9?$AAS?$AAV?$AA?$AA@ 00000001800335c8     libucrt:lcidtoname_downlevel.obj
 0002:000045d8       ??_C@_1M@NDBGMMJL@?$AAe?$AAs?$AA?9?$AAH?$AAN?$AA?$AA@ 00000001800335d8     libucrt:lcidtoname_downlevel.obj
 0002:000045e8       ??_C@_1M@JIJIBHDP@?$AAe?$AAs?$AA?9?$AAN?$AAI?$AA?$AA@ 00000001800335e8     libucrt:lcidtoname_downlevel.obj
 0002:000045f8       ??_C@_1M@CGFMKEEK@?$AAe?$AAs?$AA?9?$AAP?$AAR?$AA?$AA@ 00000001800335f8     libucrt:lcidtoname_downlevel.obj
 0002:00004608       ??_C@_1O@ICJHKIIK@?$AAz?$AAh?$AA?9?$AAC?$AAH?$AAT?$AA?$AA@ 0000000180033608     libucrt:lcidtoname_downlevel.obj
 0002:00004618       ??_C@_15CLNEJCE@?$AAs?$AAr?$AA?$AA@ 0000000180033618     libucrt:lcidtoname_downlevel.obj
 0002:00005460       ??_C@_1M@KAHEKEIG@?$AAa?$AAf?$AA?9?$AAz?$AAa?$AA?$AA@ 0000000180034460     libucrt:lcidtoname_downlevel.obj
 0002:00005470       ??_C@_1M@GIECOABL@?$AAa?$AAr?$AA?9?$AAa?$AAe?$AA?$AA@ 0000000180034470     libucrt:lcidtoname_downlevel.obj
 0002:00005480       ??_C@_1M@BMLMEKGI@?$AAa?$AAr?$AA?9?$AAb?$AAh?$AA?$AA@ 0000000180034480     libucrt:lcidtoname_downlevel.obj
 0002:00005490       ??_C@_1M@DAPFDGGB@?$AAa?$AAr?$AA?9?$AAd?$AAz?$AA?$AA@ 0000000180034490     libucrt:lcidtoname_downlevel.obj
 0002:000054a0       ??_C@_1M@FJNKGKIG@?$AAa?$AAr?$AA?9?$AAe?$AAg?$AA?$AA@ 00000001800344a0     libucrt:lcidtoname_downlevel.obj
 0002:000054b0       ??_C@_1M@FLGKKCLO@?$AAa?$AAr?$AA?9?$AAi?$AAq?$AA?$AA@ 00000001800344b0     libucrt:lcidtoname_downlevel.obj
 0002:000054c0       ??_C@_1M@GNDIPALM@?$AAa?$AAr?$AA?9?$AAj?$AAo?$AA?$AA@ 00000001800344c0     libucrt:lcidtoname_downlevel.obj
 0002:000054d0       ??_C@_1M@DDMJFMGJ@?$AAa?$AAr?$AA?9?$AAk?$AAw?$AA?$AA@ 00000001800344d0     libucrt:lcidtoname_downlevel.obj
 0002:000054e0       ??_C@_1M@EJALMLHM@?$AAa?$AAr?$AA?9?$AAl?$AAb?$AA?$AA@ 00000001800344e0     libucrt:lcidtoname_downlevel.obj
 0002:000054f0       ??_C@_1M@MOBDBLOC@?$AAa?$AAr?$AA?9?$AAl?$AAy?$AA?$AA@ 00000001800344f0     libucrt:lcidtoname_downlevel.obj
 0002:00005500       ??_C@_1M@JAOCLHDH@?$AAa?$AAr?$AA?9?$AAm?$AAa?$AA?$AA@ 0000000180034500     libucrt:lcidtoname_downlevel.obj
 0002:00005510       ??_C@_1M@JHPMKJIE@?$AAa?$AAr?$AA?9?$AAo?$AAm?$AA?$AA@ 0000000180034510     libucrt:lcidtoname_downlevel.obj
 0002:00005520       ??_C@_1M@OEPGHFNH@?$AAa?$AAr?$AA?9?$AAq?$AAa?$AA?$AA@ 0000000180034520     libucrt:lcidtoname_downlevel.obj
 0002:00005530       ??_C@_1M@KJDONENM@?$AAa?$AAr?$AA?9?$AAs?$AAa?$AA?$AA@ 0000000180034530     libucrt:lcidtoname_downlevel.obj
 0002:00005540       ??_C@_1M@DMJDKLKM@?$AAa?$AAr?$AA?9?$AAs?$AAy?$AA?$AA@ 0000000180034540     libucrt:lcidtoname_downlevel.obj
 0002:00005550       ??_C@_1M@OMFIPEDC@?$AAa?$AAr?$AA?9?$AAt?$AAn?$AA?$AA@ 0000000180034550     libucrt:lcidtoname_downlevel.obj
 0002:00005560       ??_C@_1M@IHMHGAON@?$AAa?$AAr?$AA?9?$AAy?$AAe?$AA?$AA@ 0000000180034560     libucrt:lcidtoname_downlevel.obj
 0002:00005570       ??_C@_1BG@KDCPGJGB@?$AAa?$AAz?$AA?9?$AAa?$AAz?$AA?9?$AAc?$AAy?$AAr?$AAl?$AA?$AA@ 0000000180034570     libucrt:lcidtoname_downlevel.obj
 0002:00005588       ??_C@_1BG@IBCKDDOE@?$AAa?$AAz?$AA?9?$AAa?$AAz?$AA?9?$AAl?$AAa?$AAt?$AAn?$AA?$AA@ 0000000180034588     libucrt:lcidtoname_downlevel.obj
 0002:000055a0       ??_C@_1M@EGPFDCPD@?$AAb?$AAe?$AA?9?$AAb?$AAy?$AA?$AA@ 00000001800345a0     libucrt:lcidtoname_downlevel.obj
 0002:000055b0       ??_C@_1M@PCMGMCGC@?$AAb?$AAg?$AA?9?$AAb?$AAg?$AA?$AA@ 00000001800345b0     libucrt:lcidtoname_downlevel.obj
 0002:000055c0       ??_C@_1M@BJBMFGOB@?$AAb?$AAn?$AA?9?$AAi?$AAn?$AA?$AA@ 00000001800345c0     libucrt:lcidtoname_downlevel.obj
 0002:000055d0       ??_C@_1BG@EAKMMACD@?$AAb?$AAs?$AA?9?$AAb?$AAa?$AA?9?$AAl?$AAa?$AAt?$AAn?$AA?$AA@ 00000001800345d0     libucrt:lcidtoname_downlevel.obj
 0002:000055e8       ??_C@_1M@KGADAODK@?$AAc?$AAa?$AA?9?$AAe?$AAs?$AA?$AA@ 00000001800345e8     libucrt:lcidtoname_downlevel.obj
 0002:000055f8       ??_C@_1M@COAJPDHI@?$AAc?$AAs?$AA?9?$AAc?$AAz?$AA?$AA@ 00000001800345f8     libucrt:lcidtoname_downlevel.obj
 0002:00005608       ??_C@_1M@DHBHFONH@?$AAc?$AAy?$AA?9?$AAg?$AAb?$AA?$AA@ 0000000180034608     libucrt:lcidtoname_downlevel.obj
 0002:00005618       ??_C@_1M@IMGKELGA@?$AAd?$AAa?$AA?9?$AAd?$AAk?$AA?$AA@ 0000000180034618     libucrt:lcidtoname_downlevel.obj
 0002:00005628       ??_C@_1M@NNDGDNGA@?$AAd?$AAe?$AA?9?$AAa?$AAt?$AA?$AA@ 0000000180034628     libucrt:lcidtoname_downlevel.obj
 0002:00005638       ??_C@_1M@IKDBHEEM@?$AAd?$AAe?$AA?9?$AAc?$AAh?$AA?$AA@ 0000000180034638     libucrt:lcidtoname_downlevel.obj
 0002:00005648       ??_C@_1M@GFFOJMCJ@?$AAd?$AAe?$AA?9?$AAd?$AAe?$AA?$AA@ 0000000180034648     libucrt:lcidtoname_downlevel.obj
 0002:00005658       ??_C@_1M@MDNLKBPM@?$AAd?$AAe?$AA?9?$AAl?$AAi?$AA?$AA@ 0000000180034658     libucrt:lcidtoname_downlevel.obj
 0002:00005668       ??_C@_1M@NJBEEJNL@?$AAd?$AAe?$AA?9?$AAl?$AAu?$AA?$AA@ 0000000180034668     libucrt:lcidtoname_downlevel.obj
 0002:00005678       ??_C@_1O@GNNELBAP@?$AAd?$AAi?$AAv?$AA?9?$AAm?$AAv?$AA?$AA@ 0000000180034678     libucrt:lcidtoname_downlevel.obj
 0002:00005688       ??_C@_1M@EJLEOGAE@?$AAe?$AAl?$AA?9?$AAg?$AAr?$AA?$AA@ 0000000180034688     libucrt:lcidtoname_downlevel.obj
 0002:00005698       ??_C@_1M@GMPONJN@?$AAe?$AAn?$AA?9?$AAa?$AAu?$AA?$AA@ 0000000180034698     libucrt:lcidtoname_downlevel.obj
 0002:000056a8       ??_C@_1M@NIDIIPGF@?$AAe?$AAn?$AA?9?$AAb?$AAz?$AA?$AA@ 00000001800346a8     libucrt:lcidtoname_downlevel.obj
 0002:000056b8       ??_C@_1M@JEHMIMFO@?$AAe?$AAn?$AA?9?$AAc?$AAa?$AA?$AA@ 00000001800346b8     libucrt:lcidtoname_downlevel.obj
 0002:000056c8       ??_C@_1M@IGMJCDLA@?$AAe?$AAn?$AA?9?$AAc?$AAb?$AA?$AA@ 00000001800346c8     libucrt:lcidtoname_downlevel.obj
 0002:000056d8       ??_C@_1M@BNFIGBKG@?$AAe?$AAn?$AA?9?$AAg?$AAb?$AA?$AA@ 00000001800346d8     libucrt:lcidtoname_downlevel.obj
 0002:000056e8       ??_C@_1M@LKIFDIGP@?$AAe?$AAn?$AA?9?$AAi?$AAe?$AA?$AA@ 00000001800346e8     libucrt:lcidtoname_downlevel.obj
 0002:000056f8       ??_C@_1M@PJKFGCCO@?$AAe?$AAn?$AA?9?$AAj?$AAm?$AA?$AA@ 00000001800346f8     libucrt:lcidtoname_downlevel.obj
 0002:00005708       ??_C@_1M@KPPKEPBO@?$AAe?$AAn?$AA?9?$AAn?$AAz?$AA?$AA@ 0000000180034708     libucrt:lcidtoname_downlevel.obj
 0002:00005718       ??_C@_1M@GMDGLDOB@?$AAe?$AAn?$AA?9?$AAp?$AAh?$AA?$AA@ 0000000180034718     libucrt:lcidtoname_downlevel.obj
 0002:00005728       ??_C@_1M@ONGIBJNA@?$AAe?$AAn?$AA?9?$AAt?$AAt?$AA?$AA@ 0000000180034728     libucrt:lcidtoname_downlevel.obj
 0002:00005738       ??_C@_1M@LLODPCMM@?$AAe?$AAn?$AA?9?$AAu?$AAs?$AA?$AA@ 0000000180034738     libucrt:lcidtoname_downlevel.obj
 0002:00005748       ??_C@_1M@LAKFNPAN@?$AAe?$AAn?$AA?9?$AAz?$AAa?$AA?$AA@ 0000000180034748     libucrt:lcidtoname_downlevel.obj
 0002:00005758       ??_C@_1M@MFNHNHEO@?$AAe?$AAn?$AA?9?$AAz?$AAw?$AA?$AA@ 0000000180034758     libucrt:lcidtoname_downlevel.obj
 0002:00005768       ??_C@_1M@EJEINPHM@?$AAe?$AAs?$AA?9?$AAa?$AAr?$AA?$AA@ 0000000180034768     libucrt:lcidtoname_downlevel.obj
 0002:00005778       ??_C@_1M@GNKPCCJA@?$AAe?$AAs?$AA?9?$AAb?$AAo?$AA?$AA@ 0000000180034778     libucrt:lcidtoname_downlevel.obj
 0002:00005788       ??_C@_1M@LEEGFONL@?$AAe?$AAs?$AA?9?$AAc?$AAl?$AA?$AA@ 0000000180034788     libucrt:lcidtoname_downlevel.obj
 0002:00005798       ??_C@_1M@KGPDPBDF@?$AAe?$AAs?$AA?9?$AAc?$AAo?$AA?$AA@ 0000000180034798     libucrt:lcidtoname_downlevel.obj
 0002:000057a8       ??_C@_1M@EIAHOHH@?$AAe?$AAs?$AA?9?$AAc?$AAr?$AA?$AA@ 00000001800347a8     libucrt:lcidtoname_downlevel.obj
 0002:000057b8       ??_C@_1M@LLPGMBIN@?$AAe?$AAs?$AA?9?$AAd?$AAo?$AA?$AA@ 00000001800347b8     libucrt:lcidtoname_downlevel.obj
 0002:000057c8       ??_C@_1M@DKHMKNJA@?$AAe?$AAs?$AA?9?$AAe?$AAc?$AA?$AA@ 00000001800347c8     libucrt:lcidtoname_downlevel.obj
 0002:000057d8       ??_C@_1M@GKGFPKAP@?$AAe?$AAs?$AA?9?$AAe?$AAs?$AA?$AA@ 00000001800347d8     libucrt:lcidtoname_downlevel.obj
 0002:000057e8       ??_C@_1M@LKHKGDLN@?$AAe?$AAs?$AA?9?$AAg?$AAt?$AA?$AA@ 00000001800347e8     libucrt:lcidtoname_downlevel.obj
 0002:000057f8       ??_C@_1M@HEIIGGJD@?$AAe?$AAs?$AA?9?$AAh?$AAn?$AA?$AA@ 00000001800347f8     libucrt:lcidtoname_downlevel.obj
 0002:00005808       ??_C@_1M@FBDHPPGD@?$AAe?$AAs?$AA?9?$AAm?$AAx?$AA?$AA@ 0000000180034808     libucrt:lcidtoname_downlevel.obj
 0002:00005818       ??_C@_1M@DPAGLNDH@?$AAe?$AAs?$AA?9?$AAn?$AAi?$AA?$AA@ 0000000180034818     libucrt:lcidtoname_downlevel.obj
 0002:00005828       ??_C@_1M@MDGOPGDD@?$AAe?$AAs?$AA?9?$AAp?$AAa?$AA?$AA@ 0000000180034828     libucrt:lcidtoname_downlevel.obj
 0002:00005838       ??_C@_1M@EMAMGBGE@?$AAe?$AAs?$AA?9?$AAp?$AAe?$AA?$AA@ 0000000180034838     libucrt:lcidtoname_downlevel.obj
 0002:00005848       ??_C@_1M@IBMCAOEC@?$AAe?$AAs?$AA?9?$AAp?$AAr?$AA?$AA@ 0000000180034848     libucrt:lcidtoname_downlevel.obj
 0002:00005858       ??_C@_1M@FGMDIJED@?$AAe?$AAs?$AA?9?$AAp?$AAy?$AA?$AA@ 0000000180034858     libucrt:lcidtoname_downlevel.obj
 0002:00005868       ??_C@_1M@IIDEOLLL@?$AAe?$AAs?$AA?9?$AAs?$AAv?$AA?$AA@ 0000000180034868     libucrt:lcidtoname_downlevel.obj
 0002:00005878       ??_C@_1M@GAOBIPA@?$AAe?$AAs?$AA?9?$AAu?$AAy?$AA?$AA@ 0000000180034878     libucrt:lcidtoname_downlevel.obj
 0002:00005888       ??_C@_1M@JKFFICHJ@?$AAe?$AAs?$AA?9?$AAv?$AAe?$AA?$AA@ 0000000180034888     libucrt:lcidtoname_downlevel.obj
 0002:00005898       ??_C@_1M@PNMLOJDF@?$AAe?$AAt?$AA?9?$AAe?$AAe?$AA?$AA@ 0000000180034898     libucrt:lcidtoname_downlevel.obj
 0002:000058a8       ??_C@_1M@GHHLIKEI@?$AAe?$AAu?$AA?9?$AAe?$AAs?$AA?$AA@ 00000001800348a8     libucrt:lcidtoname_downlevel.obj
 0002:000058b8       ??_C@_1M@PBNONODE@?$AAf?$AAa?$AA?9?$AAi?$AAr?$AA?$AA@ 00000001800348b8     libucrt:lcidtoname_downlevel.obj
 0002:000058c8       ??_C@_1M@JEEHPMIL@?$AAf?$AAi?$AA?9?$AAf?$AAi?$AA?$AA@ 00000001800348c8     libucrt:lcidtoname_downlevel.obj
 0002:000058d8       ??_C@_1M@LMDCNDBA@?$AAf?$AAo?$AA?9?$AAf?$AAo?$AA?$AA@ 00000001800348d8     libucrt:lcidtoname_downlevel.obj
 0002:000058e8       ??_C@_1M@JKEOHLDK@?$AAf?$AAr?$AA?9?$AAb?$AAe?$AA?$AA@ 00000001800348e8     libucrt:lcidtoname_downlevel.obj
 0002:000058f8       ??_C@_1M@NOHADPMI@?$AAf?$AAr?$AA?9?$AAc?$AAa?$AA?$AA@ 00000001800348f8     libucrt:lcidtoname_downlevel.obj
 0002:00005908       ??_C@_1M@KDHIHAEC@?$AAf?$AAr?$AA?9?$AAc?$AAh?$AA?$AA@ 0000000180034908     libucrt:lcidtoname_downlevel.obj
 0002:00005918       ??_C@_1M@MMBBFGAK@?$AAf?$AAr?$AA?9?$AAf?$AAr?$AA?$AA@ 0000000180034918     libucrt:lcidtoname_downlevel.obj
 0002:00005928       ??_C@_1M@PAFNENNF@?$AAf?$AAr?$AA?9?$AAl?$AAu?$AA?$AA@ 0000000180034928     libucrt:lcidtoname_downlevel.obj
 0002:00005938       ??_C@_1M@EOHDJGDD@?$AAf?$AAr?$AA?9?$AAm?$AAc?$AA?$AA@ 0000000180034938     libucrt:lcidtoname_downlevel.obj
 0002:00005948       ??_C@_1M@FAPLLOPF@?$AAg?$AAl?$AA?9?$AAe?$AAs?$AA?$AA@ 0000000180034948     libucrt:lcidtoname_downlevel.obj
 0002:00005958       ??_C@_1M@FOPBFLOO@?$AAg?$AAu?$AA?9?$AAi?$AAn?$AA?$AA@ 0000000180034958     libucrt:lcidtoname_downlevel.obj
 0002:00005968       ??_C@_1M@KBMCINPM@?$AAh?$AAe?$AA?9?$AAi?$AAl?$AA?$AA@ 0000000180034968     libucrt:lcidtoname_downlevel.obj
 0002:00005978       ??_C@_1M@BBPHKFPJ@?$AAh?$AAi?$AA?9?$AAi?$AAn?$AA?$AA@ 0000000180034978     libucrt:lcidtoname_downlevel.obj
 0002:00005988       ??_C@_1M@PMBNDPHD@?$AAh?$AAr?$AA?9?$AAb?$AAa?$AA?$AA@ 0000000180034988     libucrt:lcidtoname_downlevel.obj
 0002:00005998       ??_C@_1M@BPCKOEGE@?$AAh?$AAr?$AA?9?$AAh?$AAr?$AA?$AA@ 0000000180034998     libucrt:lcidtoname_downlevel.obj
 0002:000059a8       ??_C@_1M@GACBMHKE@?$AAh?$AAu?$AA?9?$AAh?$AAu?$AA?$AA@ 00000001800349a8     libucrt:lcidtoname_downlevel.obj
 0002:000059b8       ??_C@_1M@MILPAJJC@?$AAh?$AAy?$AA?9?$AAa?$AAm?$AA?$AA@ 00000001800349b8     libucrt:lcidtoname_downlevel.obj
 0002:000059c8       ??_C@_1M@BABBICEC@?$AAi?$AAd?$AA?9?$AAi?$AAd?$AA?$AA@ 00000001800349c8     libucrt:lcidtoname_downlevel.obj
 0002:000059d8       ??_C@_1M@BIKNHHPF@?$AAi?$AAs?$AA?9?$AAi?$AAs?$AA?$AA@ 00000001800349d8     libucrt:lcidtoname_downlevel.obj
 0002:000059e8       ??_C@_1M@NMPCJPHE@?$AAi?$AAt?$AA?9?$AAc?$AAh?$AA?$AA@ 00000001800349e8     libucrt:lcidtoname_downlevel.obj
 0002:000059f8       ??_C@_1M@GHKGFEDF@?$AAi?$AAt?$AA?9?$AAi?$AAt?$AA?$AA@ 00000001800349f8     libucrt:lcidtoname_downlevel.obj
 0002:00005a08       ??_C@_1M@NIEJCJJA@?$AAj?$AAa?$AA?9?$AAj?$AAp?$AA?$AA@ 0000000180034a08     libucrt:lcidtoname_downlevel.obj
 0002:00005a18       ??_C@_1M@JILFNBIM@?$AAk?$AAa?$AA?9?$AAg?$AAe?$AA?$AA@ 0000000180034a18     libucrt:lcidtoname_downlevel.obj
 0002:00005a28       ??_C@_1M@PACPMGPH@?$AAk?$AAk?$AA?9?$AAk?$AAz?$AA?$AA@ 0000000180034a28     libucrt:lcidtoname_downlevel.obj
 0002:00005a38       ??_C@_1M@IELFGMHA@?$AAk?$AAn?$AA?9?$AAi?$AAn?$AA?$AA@ 0000000180034a38     libucrt:lcidtoname_downlevel.obj
 0002:00005a48       ??_C@_1O@IBBJHCH@?$AAk?$AAo?$AAk?$AA?9?$AAi?$AAn?$AA?$AA@ 0000000180034a48     libucrt:lcidtoname_downlevel.obj
 0002:00005a58       ??_C@_1M@DMHAEOGC@?$AAk?$AAo?$AA?9?$AAk?$AAr?$AA?$AA@ 0000000180034a58     libucrt:lcidtoname_downlevel.obj
 0002:00005a68       ??_C@_1M@HBAHBIGA@?$AAk?$AAy?$AA?9?$AAk?$AAg?$AA?$AA@ 0000000180034a68     libucrt:lcidtoname_downlevel.obj
 0002:00005a78       ??_C@_1M@KPMILCJG@?$AAl?$AAt?$AA?9?$AAl?$AAt?$AA?$AA@ 0000000180034a78     libucrt:lcidtoname_downlevel.obj
 0002:00005a88       ??_C@_1M@BDEKKCA@?$AAl?$AAv?$AA?9?$AAl?$AAv?$AA?$AA@ 0000000180034a88     libucrt:lcidtoname_downlevel.obj
 0002:00005a98       ??_C@_1M@ELCKCCJJ@?$AAm?$AAi?$AA?9?$AAn?$AAz?$AA?$AA@ 0000000180034a98     libucrt:lcidtoname_downlevel.obj
 0002:00005aa8       ??_C@_1M@CBOOLAPA@?$AAm?$AAk?$AA?9?$AAm?$AAk?$AA?$AA@ 0000000180034aa8     libucrt:lcidtoname_downlevel.obj
 0002:00005ab8       ??_C@_1M@GPHNBJKN@?$AAm?$AAl?$AA?9?$AAi?$AAn?$AA?$AA@ 0000000180034ab8     libucrt:lcidtoname_downlevel.obj
 0002:00005ac8       ??_C@_1M@PABJILIG@?$AAm?$AAn?$AA?9?$AAm?$AAn?$AA?$AA@ 0000000180034ac8     libucrt:lcidtoname_downlevel.obj
 0002:00005ad8       ??_C@_1M@FGBKKIPG@?$AAm?$AAr?$AA?9?$AAi?$AAn?$AA?$AA@ 0000000180034ad8     libucrt:lcidtoname_downlevel.obj
 0002:00005ae8       ??_C@_1M@NDBPDDAL@?$AAm?$AAs?$AA?9?$AAb?$AAn?$AA?$AA@ 0000000180034ae8     libucrt:lcidtoname_downlevel.obj
 0002:00005af8       ??_C@_1M@OPIHOOPI@?$AAm?$AAs?$AA?9?$AAm?$AAy?$AA?$AA@ 0000000180034af8     libucrt:lcidtoname_downlevel.obj
 0002:00005b08       ??_C@_1M@PPDBCNFM@?$AAm?$AAt?$AA?9?$AAm?$AAt?$AA?$AA@ 0000000180034b08     libucrt:lcidtoname_downlevel.obj
 0002:00005b18       ??_C@_1M@KDJDKMDD@?$AAn?$AAb?$AA?9?$AAn?$AAo?$AA?$AA@ 0000000180034b18     libucrt:lcidtoname_downlevel.obj
 0002:00005b28       ??_C@_1M@KFCFLMJP@?$AAn?$AAl?$AA?9?$AAb?$AAe?$AA?$AA@ 0000000180034b28     libucrt:lcidtoname_downlevel.obj
 0002:00005b38       ??_C@_1M@KPOPDDGO@?$AAn?$AAl?$AA?9?$AAn?$AAl?$AA?$AA@ 0000000180034b38     libucrt:lcidtoname_downlevel.obj
 0002:00005b48       ??_C@_1M@LJKPEMLN@?$AAn?$AAn?$AA?9?$AAn?$AAo?$AA?$AA@ 0000000180034b48     libucrt:lcidtoname_downlevel.obj
 0002:00005b58       ??_C@_1M@BDGHHBFL@?$AAn?$AAs?$AA?9?$AAz?$AAa?$AA?$AA@ 0000000180034b58     libucrt:lcidtoname_downlevel.obj
 0002:00005b68       ??_C@_1M@IDEHOAP@?$AAp?$AAa?$AA?9?$AAi?$AAn?$AA?$AA@ 0000000180034b68     libucrt:lcidtoname_downlevel.obj
 0002:00005b78       ??_C@_1M@HDBKGOGH@?$AAp?$AAl?$AA?9?$AAp?$AAl?$AA?$AA@ 0000000180034b78     libucrt:lcidtoname_downlevel.obj
 0002:00005b88       ??_C@_1M@LJLLCMEH@?$AAp?$AAt?$AA?9?$AAb?$AAr?$AA?$AA@ 0000000180034b88     libucrt:lcidtoname_downlevel.obj
 0002:00005b98       ??_C@_1M@NCMONAAL@?$AAp?$AAt?$AA?9?$AAp?$AAt?$AA?$AA@ 0000000180034b98     libucrt:lcidtoname_downlevel.obj
 0002:00005ba8       ??_C@_1O@EAKMAJDN@?$AAq?$AAu?$AAz?$AA?9?$AAb?$AAo?$AA?$AA@ 0000000180034ba8     libucrt:lcidtoname_downlevel.obj
 0002:00005bb8       ??_C@_1O@BHHPIGDN@?$AAq?$AAu?$AAz?$AA?9?$AAe?$AAc?$AA?$AA@ 0000000180034bb8     libucrt:lcidtoname_downlevel.obj
 0002:00005bc8       ??_C@_1O@GBAPEKMJ@?$AAq?$AAu?$AAz?$AA?9?$AAp?$AAe?$AA?$AA@ 0000000180034bc8     libucrt:lcidtoname_downlevel.obj
 0002:00005bd8       ??_C@_1M@CLGLEFBO@?$AAr?$AAo?$AA?9?$AAr?$AAo?$AA?$AA@ 0000000180034bd8     libucrt:lcidtoname_downlevel.obj
 0002:00005be8       ??_C@_1M@CEEDODME@?$AAr?$AAu?$AA?9?$AAr?$AAu?$AA?$AA@ 0000000180034be8     libucrt:lcidtoname_downlevel.obj
 0002:00005bf8       ??_C@_1M@HPKKKMPP@?$AAs?$AAa?$AA?9?$AAi?$AAn?$AA?$AA@ 0000000180034bf8     libucrt:lcidtoname_downlevel.obj
 0002:00005c08       ??_C@_1M@BKMAIGOJ@?$AAs?$AAe?$AA?9?$AAf?$AAi?$AA?$AA@ 0000000180034c08     libucrt:lcidtoname_downlevel.obj
 0002:00005c18       ??_C@_1M@NDPIFLFI@?$AAs?$AAe?$AA?9?$AAn?$AAo?$AA?$AA@ 0000000180034c18     libucrt:lcidtoname_downlevel.obj
 0002:00005c28       ??_C@_1M@DANKKHJ@?$AAs?$AAe?$AA?9?$AAs?$AAe?$AA?$AA@ 0000000180034c28     libucrt:lcidtoname_downlevel.obj
 0002:00005c38       ??_C@_1M@PNBLONPJ@?$AAs?$AAk?$AA?9?$AAs?$AAk?$AA?$AA@ 0000000180034c38     libucrt:lcidtoname_downlevel.obj
 0002:00005c48       ??_C@_1M@LFMODOAL@?$AAs?$AAl?$AA?9?$AAs?$AAi?$AA?$AA@ 0000000180034c48     libucrt:lcidtoname_downlevel.obj
 0002:00005c58       ??_C@_1O@DFKOMPG@?$AAs?$AAm?$AAa?$AA?9?$AAn?$AAo?$AA?$AA@ 0000000180034c58     libucrt:lcidtoname_downlevel.obj
 0002:00005c68       ??_C@_1O@NDKPBNNH@?$AAs?$AAm?$AAa?$AA?9?$AAs?$AAe?$AA?$AA@ 0000000180034c68     libucrt:lcidtoname_downlevel.obj
 0002:00005c78       ??_C@_1O@PLLKBHAB@?$AAs?$AAm?$AAj?$AA?9?$AAn?$AAo?$AA?$AA@ 0000000180034c78     libucrt:lcidtoname_downlevel.obj
 0002:00005c88       ??_C@_1O@CLEPOGCA@?$AAs?$AAm?$AAj?$AA?9?$AAs?$AAe?$AA?$AA@ 0000000180034c88     libucrt:lcidtoname_downlevel.obj
 0002:00005c98       ??_C@_1O@DLGJGKMK@?$AAs?$AAm?$AAn?$AA?9?$AAf?$AAi?$AA?$AA@ 0000000180034c98     libucrt:lcidtoname_downlevel.obj
 0002:00005ca8       ??_C@_1O@OJDJGAJC@?$AAs?$AAm?$AAs?$AA?9?$AAf?$AAi?$AA?$AA@ 0000000180034ca8     libucrt:lcidtoname_downlevel.obj
 0002:00005cb8       ??_C@_1M@BOFOGHPB@?$AAs?$AAq?$AA?9?$AAa?$AAl?$AA?$AA@ 0000000180034cb8     libucrt:lcidtoname_downlevel.obj
 0002:00005cc8       ??_C@_1BG@LJBBIPGB@?$AAs?$AAr?$AA?9?$AAb?$AAa?$AA?9?$AAc?$AAy?$AAr?$AAl?$AA?$AA@ 0000000180034cc8     libucrt:lcidtoname_downlevel.obj
 0002:00005ce0       ??_C@_1BG@JLBENFOE@?$AAs?$AAr?$AA?9?$AAb?$AAa?$AA?9?$AAl?$AAa?$AAt?$AAn?$AA?$AA@ 0000000180034ce0     libucrt:lcidtoname_downlevel.obj
 0002:00005cf8       ??_C@_1BG@KODPNHE@?$AAs?$AAr?$AA?9?$AAs?$AAp?$AA?9?$AAc?$AAy?$AAr?$AAl?$AA?$AA@ 0000000180034cf8     libucrt:lcidtoname_downlevel.obj
 0002:00005d10       ??_C@_1BG@CIOGKHPB@?$AAs?$AAr?$AA?9?$AAs?$AAp?$AA?9?$AAl?$AAa?$AAt?$AAn?$AA?$AA@ 0000000180034d10     libucrt:lcidtoname_downlevel.obj
 0002:00005d28       ??_C@_1M@NGFJLMAC@?$AAs?$AAv?$AA?9?$AAf?$AAi?$AA?$AA@ 0000000180034d28     libucrt:lcidtoname_downlevel.obj
 0002:00005d38       ??_C@_1M@MPJEJAJC@?$AAs?$AAv?$AA?9?$AAs?$AAe?$AA?$AA@ 0000000180034d38     libucrt:lcidtoname_downlevel.obj
 0002:00005d48       ??_C@_1M@MPNDHLFK@?$AAs?$AAw?$AA?9?$AAk?$AAe?$AA?$AA@ 0000000180034d48     libucrt:lcidtoname_downlevel.obj
 0002:00005d58       ??_C@_1O@KOHBJJI@?$AAs?$AAy?$AAr?$AA?9?$AAs?$AAy?$AA?$AA@ 0000000180034d58     libucrt:lcidtoname_downlevel.obj
 0002:00005d68       ??_C@_1M@LDCEFHA@?$AAt?$AAa?$AA?9?$AAi?$AAn?$AA?$AA@ 0000000180034d68     libucrt:lcidtoname_downlevel.obj
 0002:00005d78       ??_C@_1M@CNJOFAK@?$AAt?$AAe?$AA?9?$AAi?$AAn?$AA?$AA@ 0000000180034d78     libucrt:lcidtoname_downlevel.obj
 0002:00005d88       ??_C@_1M@GNAECACD@?$AAt?$AAh?$AA?9?$AAt?$AAh?$AA?$AA@ 0000000180034d88     libucrt:lcidtoname_downlevel.obj
 0002:00005d98       ??_C@_1M@CHBIHOJO@?$AAt?$AAn?$AA?9?$AAz?$AAa?$AA?$AA@ 0000000180034d98     libucrt:lcidtoname_downlevel.obj
 0002:00005da8       ??_C@_1M@GCCMIGPJ@?$AAt?$AAr?$AA?9?$AAt?$AAr?$AA?$AA@ 0000000180034da8     libucrt:lcidtoname_downlevel.obj
 0002:00005db8       ??_C@_1M@CELMCNBK@?$AAt?$AAt?$AA?9?$AAr?$AAu?$AA?$AA@ 0000000180034db8     libucrt:lcidtoname_downlevel.obj
 0002:00005dc8       ??_C@_1M@KLMCELGA@?$AAu?$AAk?$AA?9?$AAu?$AAa?$AA?$AA@ 0000000180034dc8     libucrt:lcidtoname_downlevel.obj
 0002:00005dd8       ??_C@_1M@EPAJJAJF@?$AAu?$AAr?$AA?9?$AAp?$AAk?$AA?$AA@ 0000000180034dd8     libucrt:lcidtoname_downlevel.obj
 0002:00005de8       ??_C@_1BG@GEGPMCDJ@?$AAu?$AAz?$AA?9?$AAu?$AAz?$AA?9?$AAc?$AAy?$AAr?$AAl?$AA?$AA@ 0000000180034de8     libucrt:lcidtoname_downlevel.obj
 0002:00005e00       ??_C@_1BG@EGGKJILM@?$AAu?$AAz?$AA?9?$AAu?$AAz?$AA?9?$AAl?$AAa?$AAt?$AAn?$AA?$AA@ 0000000180034e00     libucrt:lcidtoname_downlevel.obj
 0002:00005e18       ??_C@_1M@GFOCLFF@?$AAv?$AAi?$AA?9?$AAv?$AAn?$AA?$AA@ 0000000180034e18     libucrt:lcidtoname_downlevel.obj
 0002:00005e28       ??_C@_1M@CPAMEDFI@?$AAx?$AAh?$AA?9?$AAz?$AAa?$AA?$AA@ 0000000180034e28     libucrt:lcidtoname_downlevel.obj
 0002:00005e38       ??_C@_1O@EBKIFIGN@?$AAz?$AAh?$AA?9?$AAc?$AAh?$AAs?$AA?$AA@ 0000000180034e38     libucrt:lcidtoname_downlevel.obj
 0002:00005e48       ??_C@_1O@NMHPGANE@?$AAz?$AAh?$AA?9?$AAc?$AAh?$AAt?$AA?$AA@ 0000000180034e48     libucrt:lcidtoname_downlevel.obj
 0002:00005e58       ??_C@_1M@LPINJOMC@?$AAz?$AAh?$AA?9?$AAc?$AAn?$AA?$AA@ 0000000180034e58     libucrt:lcidtoname_downlevel.obj
 0002:00005e68       ??_C@_1M@OCJEJODD@?$AAz?$AAh?$AA?9?$AAh?$AAk?$AA?$AA@ 0000000180034e68     libucrt:lcidtoname_downlevel.obj
 0002:00005e78       ??_C@_1M@DNDLJINH@?$AAz?$AAh?$AA?9?$AAm?$AAo?$AA?$AA@ 0000000180034e78     libucrt:lcidtoname_downlevel.obj
 0002:00005e88       ??_C@_1M@MBFDNDND@?$AAz?$AAh?$AA?9?$AAs?$AAg?$AA?$AA@ 0000000180034e88     libucrt:lcidtoname_downlevel.obj
 0002:00005e98       ??_C@_1M@IMEPLEPE@?$AAz?$AAh?$AA?9?$AAt?$AAw?$AA?$AA@ 0000000180034e98     libucrt:lcidtoname_downlevel.obj
 0002:00005ea8       ??_C@_1M@BBGHNHJP@?$AAz?$AAu?$AA?9?$AAz?$AAa?$AA?$AA@ 0000000180034ea8     libucrt:lcidtoname_downlevel.obj
 0002:00005ec0       ?large_power_data@?1??multiply_by_power_of_ten@__crt_strtox@@YA_NAEAUbig_integer@2@I@Z@4QBIB 0000000180034ec0     libucrt:cfout.obj
 0002:000067d0       ?large_power_indices@?1??multiply_by_power_of_ten@__crt_strtox@@YA_NAEAUbig_integer@2@I@Z@4QBUunpack_index@?1??12@YA_N0I@Z@B 00000001800357d0     libucrt:cfout.obj
 0002:00006868       ?small_powers_of_ten@?6??multiply_by_power_of_ten@__crt_strtox@@YA_NAEAUbig_integer@2@I@Z@4QBIB 0000000180035868     libucrt:cfout.obj
 0002:0000688c       ??_C@_01GBGANLPD@0?$AA@    000000018003588c     libucrt:cfout.obj
 0002:00006890       ??_C@_05DNEBIAHO@1?$CDINF?$AA@ 0000000180035890     libucrt:cfout.obj
 0002:00006898       ??_C@_06IMKFLFPG@1?$CDQNAN?$AA@ 0000000180035898     libucrt:cfout.obj
 0002:000068a0       ??_C@_06PGGFOGJG@1?$CDSNAN?$AA@ 00000001800358a0     libucrt:cfout.obj
 0002:000068a8       ??_C@_05PHHOCPM@1?$CDIND?$AA@ 00000001800358a8     libucrt:cfout.obj
 0002:000068b0       __real@3ff0000000000000    00000001800358b0     libucrt:ceil.obj
 0002:00006b10       ??_C@_1BA@BALFACEM@?$AAC?$AAO?$AAN?$AAO?$AAU?$AAT?$AA$?$AA?$AA@ 0000000180035b10     libucrt:initcon.obj
 0002:00006b20       __log10_256_lead           0000000180035b20     libucrt:log10_256_lead_tail_table.obj
 0002:00007330       __log10_256_tail           0000000180036330     libucrt:log10_256_lead_tail_table.obj
 0002:00007b40       __log_F_inv_qword          0000000180036b40     libucrt:log_f_inv_qword_table.obj
 0002:00008350       ??_C@_05HGHHAHAP@log10?$AA@ 0000000180037350     libucrt:log_special.obj
 0002:00008370       ??_C@_1BK@DBDEIDLH@?$AAK?$AAE?$AAR?$AAN?$AAE?$AAL?$AA3?$AA2?$AA?4?$AAD?$AAL?$AAL?$AA?$AA@ 0000000180037370     DelayImp:delayhlp.obj
 0002:00008390       ??_C@_0BI@OMNLIJDB@AcquireSRWLockExclusive?$AA@ 0000000180037390     DelayImp:delayhlp.obj
 0002:000083a8       ??_C@_0BI@HMIEPCNJ@ReleaseSRWLockExclusive?$AA@ 00000001800373a8     DelayImp:delayhlp.obj
 0002:000083c0       _load_config_used          00000001800373c0     LIBCMT:loadcfg.obj
 0002:00008458       ??_C@_1DG@OKCGPKIB@?$AAp?$AAe?$AAr?$AAs?$AAi?$AAs?$AAt?$AAe?$AAn?$AAt?$AA?$CI?$AA?$CJ?$AA?4?$AAI?$AAs?$AAN?$AAe?$AAa?$AAr?$AAD?$AAe?$AAa?$AAt?$AAh?$AA?$CI?$AA?$CJ?$AA?$AA@ 0000000180037458     node-expat.obj
 0002:00008490       ??_C@_1CO@EGNPJLKI@?$AAp?$AAe?$AAr?$AAs?$AAi?$AAs?$AAt?$AAe?$AAn?$AAt?$AA?$CI?$AA?$CJ?$AA?4?$AAI?$AAs?$AAE?$AAm?$AAp?$AAt?$AAy?$AA?$CI?$AA?$CJ?$AA?$AA@ 0000000180037490     node-expat.obj
 0002:000084c0       ??_C@_1DA@FBGAEOIO@?$AA?$CB?$AAp?$AAe?$AAr?$AAs?$AAi?$AAs?$AAt?$AAe?$AAn?$AAt?$AA?$CI?$AA?$CJ?$AA?4?$AAI?$AAs?$AAE?$AAm?$AAp?$AAt?$AAy?$AA?$CI?$AA?$CJ?$AA?$AA@ 00000001800374c0     node-expat.obj
 0002:000084f0       ??_C@_1CO@JCKLEFMA@?$AA?$CB?$AAp?$AAe?$AAr?$AAs?$AAi?$AAs?$AAt?$AAe?$AAn?$AAt?$AA?$CI?$AA?$CJ?$AA?4?$AAI?$AAs?$AAW?$AAe?$AAa?$AAk?$AA?$CI?$AA?$CJ?$AA?$AA@ 00000001800374f0     node-expat.obj
 0002:00008520       ??_C@_1BE@GMLLOIPJ@?$AAr?$AAe?$AAf?$AAs?$AA_?$AA?5?$AA?$DO?$AA?5?$AA0?$AA?$AA@ 0000000180037520     node-expat.obj
 0002:00008538       ??_C@_1CC@GBFLAAPF@?$AAw?$AAr?$AAa?$AAp?$AA?9?$AA?$DO?$AAr?$AAe?$AAf?$AAs?$AA_?$AA?5?$AA?$DN?$AA?$DN?$AA?5?$AA0?$AA?$AA@ 0000000180037538     node-expat.obj
 0002:00008560       ??_C@_1IA@OMANJILP@?$AAC?$AA?3?$AA?2?$AAU?$AAs?$AAe?$AAr?$AAs?$AA?2?$AAd?$AAj?$AAr?$AAh?$AAy?$AA?2?$AAE?$AAn?$AAr?$AAa?$AAg?$AAe?$AAd?$AAG?$AAa?$AAm?$AAe?$AAr?$AAs?$AA?9?$AAF?$AAi?$AAn@ 0000000180037560     node-expat.obj
 0002:000085e0       ??_C@_1BO@OPFMAOCA@?$AAl?$AAe?$AAn?$AA?5?$AA?$DM?$AA?$DN?$AA?5?$AAI?$AAN?$AAT?$AA_?$AAM?$AAA?$AAX?$AA?$AA@ 00000001800375e0     node-expat.obj
 0002:00008600       ??_C@_1BE@CKDJNAPC@?$AAs?$AAt?$AAr?$AA_?$AA?5?$AA?$CB?$AA?$DN?$AA?5?$AA0?$AA?$AA@ 0000000180037600     node-expat.obj
 0002:00008620       ??_C@_1JI@OKNECAGG@?$AAc?$AA?3?$AA?2?$AAu?$AAs?$AAe?$AAr?$AAs?$AA?2?$AAd?$AAj?$AAr?$AAh?$AAy?$AA?2?$AAe?$AAn?$AAr?$AAa?$AAg?$AAe?$AAd?$AAg?$AAa?$AAm?$AAe?$AAr?$AAs?$AA?9?$AAf?$AAi?$AAn@ 0000000180037620     node-expat.obj
 0002:000086c0       ??_C@_1EC@MGGLMBLC@?$AAo?$AAb?$AAj?$AAe?$AAc?$AAt?$AA?9?$AA?$DO?$AAI?$AAn?$AAt?$AAe?$AAr?$AAn?$AAa?$AAl?$AAF?$AAi?$AAe?$AAl?$AAd?$AAC?$AAo?$AAu?$AAn?$AAt?$AA?$CI?$AA?$CJ?$AA?5?$AA?$DO?$AA?5?$AA0@ 00000001800376c0     node-expat.obj
 0002:00008708       ??_C@_1DI@ELDBKNAK@?$AAw?$AAr?$AAa?$AAp?$AA?9?$AA?$DO?$AAh?$AAa?$AAn?$AAd?$AAl?$AAe?$AA_?$AA?4?$AAI?$AAs?$AAN?$AAe?$AAa?$AAr?$AAD?$AAe?$AAa?$AAt?$AAh?$AA?$CI?$AA?$CJ?$AA?$AA@ 0000000180037708     node-expat.obj
 0002:00008740       ??_C@_05GOEGCMJM@parse?$AA@ 0000000180037740     node-expat.obj
 0002:00008748       ??_C@_0M@FJCOBIHE@setEncoding?$AA@ 0000000180037748     node-expat.obj
 0002:00008758       ??_C@_0BD@NCFPJGHI@setUnknownEncoding?$AA@ 0000000180037758     node-expat.obj
 0002:00008770       ??_C@_08OCOLIKNF@getError?$AA@ 0000000180037770     node-expat.obj
 0002:0000877c       ??_C@_04PEGFANN@stop?$AA@  000000018003777c     node-expat.obj
 0002:00008784       ??_C@_06PLELHCEK@resume?$AA@ 0000000180037784     node-expat.obj
 0002:0000878c       ??_C@_05CFMALAOA@reset?$AA@ 000000018003778c     node-expat.obj
 0002:00008798       ??_C@_0BF@NNHOPLKO@getCurrentLineNumber?$AA@ 0000000180037798     node-expat.obj
 0002:000087b0       ??_C@_0BH@OEDDKDKJ@getCurrentColumnNumber?$AA@ 00000001800377b0     node-expat.obj
 0002:000087c8       ??_C@_0BE@BPOAILGG@getCurrentByteIndex?$AA@ 00000001800377c8     node-expat.obj
 0002:000087dc       ??_C@_06CLGDLLKL@Parser?$AA@ 00000001800377dc     node-expat.obj
 0002:000087e8       ??_C@_1CC@CDADAAOF@?$AA?4?$AA?4?$AA?2?$AAn?$AAo?$AAd?$AAe?$AA?9?$AAe?$AAx?$AAp?$AAa?$AAt?$AA?4?$AAc?$AAc?$AA?$AA@ 00000001800377e8     node-expat.obj
 0002:00008810       ??_C@_1BO@PPKGEODP@?$AAp?$AAa?$AAr?$AAs?$AAe?$AAr?$AA?5?$AA?$CB?$AA?$DN?$AA?5?$AAN?$AAU?$AAL?$AAL?$AA?$AA@ 0000000180037810     node-expat.obj
 0002:00008830       ??_C@_0CG@LMFBHNNP@Parse?5buffer?5must?5be?5String?5or?5B@ 0000000180037830     node-expat.obj
 0002:00008858       ??_C@_1BI@ICGGMGLK@?$AAb?$AAu?$AAf?$AA?5?$AA?$CB?$AA?$DN?$AA?5?$AAN?$AAU?$AAL?$AAL?$AA?$AA@ 0000000180037858     node-expat.obj
 0002:00008870       ??_C@_1GI@FDKMMJNH@?$AAs?$AAt?$AAr?$AA?4?$AAW?$AAr?$AAi?$AAt?$AAe?$AAU?$AAt?$AAf?$AA8?$AA?$CI?$AAs?$AAt?$AAa?$AAt?$AAi?$AAc?$AA_?$AAc?$AAa?$AAs?$AAt?$AA?$DM?$AAc?$AAh?$AAa?$AAr?$AA?5?$AA?$CK@ 0000000180037870     node-expat.obj
 0002:000088d8       ??_C@_0N@PECAHNM@startElement?$AA@ 00000001800378d8     node-expat.obj
 0002:000088e8       ??_C@_0L@GKEIAKOG@endElement?$AA@ 00000001800378e8     node-expat.obj
 0002:000088f8       ??_C@_0L@PIKKALHC@startCdata?$AA@ 00000001800378f8     node-expat.obj
 0002:00008908       ??_C@_08PMGAFGIG@endCdata?$AA@ 0000000180037908     node-expat.obj
 0002:00008914       ??_C@_04CIMGMMMG@text?$AA@ 0000000180037914     node-expat.obj
 0002:00008920       ??_C@_0BG@BKBGIBPJ@processingInstruction?$AA@ 0000000180037920     node-expat.obj
 0002:00008938       ??_C@_07GJGNEJFD@comment?$AA@ 0000000180037938     node-expat.obj
 0002:00008940       ??_C@_07FCGNOANN@xmlDecl?$AA@ 0000000180037940     node-expat.obj
 0002:00008948       ??_C@_0L@OGGGJLI@entityDecl?$AA@ 0000000180037948     node-expat.obj
 0002:00008958       ??_C@_0BA@DMMGAIKL@unknownEncoding?$AA@ 0000000180037958     node-expat.obj
 0002:00008970       ??_C@_0FJ@CMONEKKA@setUnknownEncoding?$CI?$CJ?5must?5be?5syn@ 0000000180037970     node-expat.obj
 0002:000089d0       ??_C@_0CN@NKFBPONF@UnknownEncoding?5map?5must?5consist@ 00000001800379d0     node-expat.obj
 0002:00008a00       ??_C@_0CH@HNDNKAFP@SetUnknownEncoding?5expects?5a?5map@ 0000000180037a00     node-expat.obj
 0002:00008a28       ??_C@_04KNBGJDFM@emit?$AA@ 0000000180037a28     node-expat.obj
 0002:00008a30       ??_C@_0BB@HFIIKFIE@?4?4?2node?9expat?4cc?$AA@ 0000000180037a30     node-expat.obj
 0002:00008a48       ??_C@_0L@CMNMDGH@node_expat?$AA@ 0000000180037a48     node-expat.obj
 0002:00008a58       ??_C@_1CE@LNAGEONJ@?$AA?$CB?$AAo?$AAb?$AAj?$AAe?$AAc?$AAt?$AA?4?$AAI?$AAs?$AAE?$AAm?$AAp?$AAt?$AAy?$AA?$CI?$AA?$CJ?$AA?$AA@ 0000000180037a58     node-expat.obj
 0002:00008a80       ??_7ObjectWrap@Nan@@6B@    0000000180037a80     node-expat.obj
 0002:00008a98       ??_7Parser@@6B@            0000000180037a98     node-expat.obj
 0002:00008ab0       ??_C@_08HCOMDCCD@iojs?4exe?$AA@ 0000000180037ab0     win_delay_load_hook.obj
 0002:00008ac0       ??_C@_08JDDNMFDB@node?4exe?$AA@ 0000000180037ac0     win_delay_load_hook.obj
 0002:00008ad0       ??_C@_0O@BNNCBLEN@out?5of?5memory?$AA@ 0000000180037ad0     libexpat:xmlparse.obj
 0002:00008ae0       ??_C@_0N@MNJHOOI@syntax?5error?$AA@ 0000000180037ae0     libexpat:xmlparse.obj
 0002:00008af0       ??_C@_0BB@BCAHBADH@no?5element?5found?$AA@ 0000000180037af0     libexpat:xmlparse.obj
 0002:00008b08       ??_C@_0CA@BLMFJLH@not?5well?9formed?5?$CIinvalid?5token?$CJ?$AA@ 0000000180037b08     libexpat:xmlparse.obj
 0002:00008b28       ??_C@_0P@EFPOEKHH@unclosed?5token?$AA@ 0000000180037b28     libexpat:xmlparse.obj
 0002:00008b38       ??_C@_0BC@DLKMMFBA@partial?5character?$AA@ 0000000180037b38     libexpat:xmlparse.obj
 0002:00008b50       ??_C@_0P@BJCMGPB@mismatched?5tag?$AA@ 0000000180037b50     libexpat:xmlparse.obj
 0002:00008b60       ??_C@_0BE@JIEGOGM@duplicate?5attribute?$AA@ 0000000180037b60     libexpat:xmlparse.obj
 0002:00008b78       ??_C@_0BM@IPDLAPKG@junk?5after?5document?5element?$AA@ 0000000180037b78     libexpat:xmlparse.obj
 0002:00008b98       ??_C@_0CD@DPHGJCFM@illegal?5parameter?5entity?5referen@ 0000000180037b98     libexpat:xmlparse.obj
 0002:00008bc0       ??_C@_0BB@KFIEPEGG@undefined?5entity?$AA@ 0000000180037bc0     libexpat:xmlparse.obj
 0002:00008bd8       ??_C@_0BL@OMDFBMFF@recursive?5entity?5reference?$AA@ 0000000180037bd8     libexpat:xmlparse.obj
 0002:00008bf8       ??_C@_0BE@PDLJJMLG@asynchronous?5entity?$AA@ 0000000180037bf8     libexpat:xmlparse.obj
 0002:00008c10       ??_C@_0CG@DAIFOKHG@reference?5to?5invalid?5character?5n@ 0000000180037c10     libexpat:xmlparse.obj
 0002:00008c38       ??_C@_0BL@LDLBPPBJ@reference?5to?5binary?5entity?$AA@ 0000000180037c38     libexpat:xmlparse.obj
 0002:00008c58       ??_C@_0CK@BFEDEECD@reference?5to?5external?5entity?5in?5@ 0000000180037c58     libexpat:xmlparse.obj
 0002:00008c88       ??_C@_0CP@GDJNCKID@XML?5or?5text?5declaration?5not?5at?5s@ 0000000180037c88     libexpat:xmlparse.obj
 0002:00008cb8       ??_C@_0BB@ICOLFIAA@unknown?5encoding?$AA@ 0000000180037cb8     libexpat:xmlparse.obj
 0002:00008cd0       ??_C@_0DD@GOCEPOFM@encoding?5specified?5in?5XML?5declar@ 0000000180037cd0     libexpat:xmlparse.obj
 0002:00008d08       ??_C@_0BH@MDDEMGAA@unclosed?5CDATA?5section?$AA@ 0000000180037d08     libexpat:xmlparse.obj
 0002:00008d20       ??_C@_0CO@FNPHCKLH@error?5in?5processing?5external?5ent@ 0000000180037d20     libexpat:xmlparse.obj
 0002:00008d50       ??_C@_0BL@EIMELDJB@document?5is?5not?5standalone?$AA@ 0000000180037d50     libexpat:xmlparse.obj
 0002:00008d70       ??_C@_0DD@IKDGPBBK@unexpected?5parser?5state?5?9?5please@ 0000000180037d70     libexpat:xmlparse.obj
 0002:00008da8       ??_C@_0CE@NOGIMGHN@entity?5declared?5in?5parameter?5ent@ 0000000180037da8     libexpat:xmlparse.obj
 0002:00008dd0       ??_C@_0DE@GICHNEBE@requested?5feature?5requires?5XML_D@ 0000000180037dd0     libexpat:xmlparse.obj
 0002:00008e08       ??_C@_0CN@OFAMBGCK@cannot?5change?5setting?5once?5parsi@ 0000000180037e08     libexpat:xmlparse.obj
 0002:00008e38       ??_C@_0P@JDIHIJCE@unbound?5prefix?$AA@ 0000000180037e38     libexpat:xmlparse.obj
 0002:00008e48       ??_C@_0BK@MOPPLLIH@must?5not?5undeclare?5prefix?$AA@ 0000000180037e48     libexpat:xmlparse.obj
 0002:00008e68       ??_C@_0CG@GAKHJBB@incomplete?5markup?5in?5parameter?5e@ 0000000180037e68     libexpat:xmlparse.obj
 0002:00008e90       ??_C@_0CA@MFJNBIIE@XML?5declaration?5not?5well?9formed?$AA@ 0000000180037e90     libexpat:xmlparse.obj
 0002:00008eb0       ??_C@_0CB@CMKECMLJ@text?5declaration?5not?5well?9formed@ 0000000180037eb0     libexpat:xmlparse.obj
 0002:00008ed8       ??_C@_0CC@KJFFNAB@illegal?5character?$CIs?$CJ?5in?5public?5i@ 0000000180037ed8     libexpat:xmlparse.obj
 0002:00008f00       ??_C@_0BB@EMGHLGNF@parser?5suspended?$AA@ 0000000180037f00     libexpat:xmlparse.obj
 0002:00008f18       ??_C@_0BF@IHJDPIFP@parser?5not?5suspended?$AA@ 0000000180037f18     libexpat:xmlparse.obj
 0002:00008f30       ??_C@_0BA@OMEDOLHN@parsing?5aborted?$AA@ 0000000180037f30     libexpat:xmlparse.obj
 0002:00008f40       ??_C@_0BB@JICMAGEA@parsing?5finished?$AA@ 0000000180037f40     libexpat:xmlparse.obj
 0002:00008f58       ??_C@_0CM@DAGNAICL@cannot?5suspend?5in?5external?5param@ 0000000180037f58     libexpat:xmlparse.obj
 0002:00008f90       ??_C@_0FA@GCHHMGIN@reserved?5prefix?5?$CIxml?$CJ?5must?5not?5b@ 0000000180037f90     libexpat:xmlparse.obj
 0002:00008fe0       ??_C@_0DL@LHGBEOM@reserved?5prefix?5?$CIxmlns?$CJ?5must?5not@ 0000000180037fe0     libexpat:xmlparse.obj
 0002:00009020       ??_C@_0EA@IHHBKGMF@prefix?5must?5not?5be?5bound?5to?5one?5@ 0000000180038020     libexpat:xmlparse.obj
 0002:00009060       ??_C@_0BB@MAAMGNOO@sizeof?$CIXML_Char?$CJ?$AA@ 0000000180038060     libexpat:xmlparse.obj
 0002:00009078       ??_C@_0BC@LHECICLE@sizeof?$CIXML_LChar?$CJ?$AA@ 0000000180038078     libexpat:xmlparse.obj
 0002:00009090       ??_C@_07BAMNINFG@XML_DTD?$AA@ 0000000180038090     libexpat:xmlparse.obj
 0002:00009098       ??_C@_0BC@NAONLODN@XML_CONTEXT_BYTES?$AA@ 0000000180038098     libexpat:xmlparse.obj
 0002:000090ac       ??_C@_06CEJAJKAC@XML_NS?$AA@ 00000001800380ac     libexpat:xmlparse.obj
 0002:0000b6f8       ??_R4exception@std@@6B@    000000018003a6f8     LIBCMT:throw_bad_alloc.obj
 0002:0000b720       ??_R3exception@std@@8      000000018003a720     LIBCMT:throw_bad_alloc.obj
 0002:0000b738       ??_R2exception@std@@8      000000018003a738     LIBCMT:throw_bad_alloc.obj
 0002:0000b748       ??_R1A@?0A@EA@exception@std@@8 000000018003a748     LIBCMT:throw_bad_alloc.obj
 0002:0000b770       ??_R4bad_alloc@std@@6B@    000000018003a770     LIBCMT:throw_bad_alloc.obj
 0002:0000b798       ??_R3bad_alloc@std@@8      000000018003a798     LIBCMT:throw_bad_alloc.obj
 0002:0000b7b0       ??_R2bad_alloc@std@@8      000000018003a7b0     LIBCMT:throw_bad_alloc.obj
 0002:0000b7c8       ??_R1A@?0A@EA@bad_alloc@std@@8 000000018003a7c8     LIBCMT:throw_bad_alloc.obj
 0002:0000b7f0       ??_R4bad_array_new_length@std@@6B@ 000000018003a7f0     LIBCMT:throw_bad_alloc.obj
 0002:0000b818       ??_R3bad_array_new_length@std@@8 000000018003a818     LIBCMT:throw_bad_alloc.obj
 0002:0000b830       ??_R2bad_array_new_length@std@@8 000000018003a830     LIBCMT:throw_bad_alloc.obj
 0002:0000b850       ??_R1A@?0A@EA@bad_array_new_length@std@@8 000000018003a850     LIBCMT:throw_bad_alloc.obj
 0002:0000b878       ??_R4type_info@@6B@        000000018003a878     LIBCMT:std_type_info_static.obj
 0002:0000b8a0       ??_R3type_info@@8          000000018003a8a0     LIBCMT:std_type_info_static.obj
 0002:0000b8b8       ??_R2type_info@@8          000000018003a8b8     LIBCMT:std_type_info_static.obj
 0002:0000b8c8       ??_R1A@?0A@EA@type_info@@8 000000018003a8c8     LIBCMT:std_type_info_static.obj
 0002:0000b8f0       ?_TraceLoggingMetadata@?1??_TlgWrite@__vcrt_trace_logging_provider@@YAJPEBU_TlgProvider_t@2@PEFBXPEBU_GUID@@2IPEAU_EVENT_DATA_DESCRIPTOR@@@Z@4U_TraceLoggingMetadata_t@2@B 000000018003a8f0     libvcruntime:telemetry.obj
 0002:0000b9a3       ?_TraceLoggingMetadataEnd@?1??_TlgWrite@__vcrt_trace_logging_provider@@YAJPEBU_TlgProvider_t@2@PEFBXPEBU_GUID@@2IPEAU_EVENT_DATA_DESCRIPTOR@@@Z@4EB 000000018003a9a3     libvcruntime:telemetry.obj
 0002:0000be08       __rtc_iaa                  000000018003ae08     LIBCMT:_initsect_.obj
 0002:0000be10       __rtc_izz                  000000018003ae10     LIBCMT:_initsect_.obj
 0002:0000be18       __rtc_taa                  000000018003ae18     LIBCMT:_initsect_.obj
 0002:0000be20       __rtc_tzz                  000000018003ae20     LIBCMT:_initsect_.obj
 0002:0000e258       _TI2?AVbad_alloc@std@@     000000018003d258     LIBCMT:throw_bad_alloc.obj
 0002:0000e278       _CTA2?AVbad_alloc@std@@    000000018003d278     LIBCMT:throw_bad_alloc.obj
 0002:0000e290       _CT??_R0?AVbad_alloc@std@@@8??0bad_alloc@std@@QEAA@AEBV01@@Z24 000000018003d290     LIBCMT:throw_bad_alloc.obj
 0002:0000e2b8       _CT??_R0?AVexception@std@@@8??0exception@std@@QEAA@AEBV01@@Z24 000000018003d2b8     LIBCMT:throw_bad_alloc.obj
 0002:0000e2e0       _TI3?AVbad_array_new_length@std@@ 000000018003d2e0     LIBCMT:throw_bad_alloc.obj
 0002:0000e300       _CTA3?AVbad_array_new_length@std@@ 000000018003d300     LIBCMT:throw_bad_alloc.obj
 0002:0000e320       _CT??_R0?AVbad_array_new_length@std@@@8??0bad_array_new_length@std@@QEAA@AEBV01@@Z24 000000018003d320     LIBCMT:throw_bad_alloc.obj
 0002:0000e344       __DELAY_IMPORT_DESCRIPTOR_node_exe 000000018003d344     node:node.exe
 0002:0000e364       __NULL_DELAY_IMPORT_DESCRIPTOR 000000018003d364     node:node.exe
 0002:0000e548       \177node_NULL_THUNK_DATA_DLN 000000018003d548     node:node.exe
 0002:0000f380       \177node_NULL_THUNK_DATA_DLB 000000018003e380     node:node.exe
 0002:0000f598       __IMPORT_DESCRIPTOR_KERNEL32 000000018003e598     kernel32:KERNEL32.dll
 0002:0000f5ac       __IMPORT_DESCRIPTOR_ADVAPI32 000000018003e5ac     advapi32:ADVAPI32.dll
 0002:0000f5c0       __NULL_IMPORT_DESCRIPTOR   000000018003e5c0     kernel32:KERNEL32.dll
 0003:00000000       __security_cookie          000000018003f000     LIBCMT:gs_cookie.obj
 0003:00000008       __security_cookie_complement 000000018003f008     LIBCMT:gs_cookie.obj
 0003:00000010       __scrt_native_dllmain_reason 000000018003f010     LIBCMT:utility.obj
 0003:00000018       __isa_available            000000018003f018     LIBCMT:_cpu_disp_.obj
 0003:0000001c       __isa_enabled              000000018003f01c     LIBCMT:_cpu_disp_.obj
 0003:00000020       __memcpy_nt_iters          000000018003f020     LIBCMT:_cpu_disp_.obj
 0003:00000084       __abort_behavior           000000018003f084     libucrt:abort.obj
 0003:00000090       _iob                       000000018003f090     libucrt:_file.obj
 0003:000001a0       __acrt_initial_locale_data 000000018003f1a0     libucrt:nlsdata.obj
 0003:000002f8       __acrt_initial_locale_pointers 000000018003f2f8     libucrt:nlsdata.obj
 0003:00000308       __acrt_wide_c_locale_string 000000018003f308     libucrt:nlsdata.obj
 0003:00000310       __acrt_initial_multibyte_data 000000018003f310     libucrt:mbctype.obj
 0003:00000538       __acrt_current_multibyte_data 000000018003f538     libucrt:mbctype.obj
 0003:00000640       _mbctype                   000000018003f640     libucrt:mbctype.obj
 0003:00000750       _mbcasemap                 000000018003f750     libucrt:mbctype.obj
 0003:00000850       __badioinfo                000000018003f850     libucrt:ioinit.obj
 0003:00000890       _pwctype                   000000018003f890     libucrt:ctype.obj
 0003:00000898       __globallocalestatus       000000018003f898     libucrt:glstatus.obj
 0003:000008a0       __acrt_lconv_c             000000018003f8a0     libucrt:localeconv.obj
 0003:00000938       __acrt_lconv_static_decimal 000000018003f938     libucrt:localeconv.obj
 0003:0000093c       __acrt_lconv_static_W_decimal 000000018003f93c     libucrt:localeconv.obj
 0003:00000940       __dcrt_lowio_console_output_handle 000000018003f940     libucrt:initcon.obj
 0003:00000960       _fltused                   000000018003f960     LIBCMT:fltused.obj
 0003:000009b0       __pfnDliNotifyHook2        000000018003f9b0     win_delay_load_hook.obj
 0003:000009b8       ??_R0?AVbad_alloc@std@@@8  000000018003f9b8     LIBCMT:throw_bad_alloc.obj
 0003:000009e0       ??_R0?AVexception@std@@@8  000000018003f9e0     LIBCMT:throw_bad_alloc.obj
 0003:00000a08       ??_R0?AVbad_array_new_length@std@@@8 000000018003fa08     LIBCMT:throw_bad_alloc.obj
 0003:00000a38       ??_R0?AVtype_info@@@8      000000018003fa38     LIBCMT:std_type_info_static.obj
 0003:00000a58       __imp_?Value@External@v8@@QEBAPEAXXZ 000000018003fa58     node:node.exe
 0003:00000a60       __imp_?New@External@v8@@SA?AV?$Local@VExternal@v8@@@2@PEAVIsolate@2@PEAX@Z 000000018003fa60     node:node.exe
 0003:00000a68       __imp_?NewFromUnsigned@Integer@v8@@SA?AV?$Local@VInteger@v8@@@2@PEAVIsolate@2@I@Z 000000018003fa68     node:node.exe
 0003:00000a70       __imp_?New@Integer@v8@@SA?AV?$Local@VInteger@v8@@@2@PEAVIsolate@2@H@Z 000000018003fa70     node:node.exe
 0003:00000a78       __imp_?New@Signature@v8@@SA?AV?$Local@VSignature@v8@@@2@PEAVIsolate@2@V?$Local@VFunctionTemplate@v8@@@2@@Z 000000018003fa78     node:node.exe
 0003:00000a80       __imp_?ThrowException@Isolate@v8@@QEAA?AV?$Local@VValue@v8@@@2@V32@@Z 000000018003fa80     node:node.exe
 0003:00000a88       __imp_?GetCurrentContext@Isolate@v8@@QEAA?AV?$Local@VContext@v8@@@2@XZ 000000018003fa88     node:node.exe
 0003:00000a90       __imp_?GetCurrent@Isolate@v8@@SAPEAV12@XZ 000000018003fa90     node:node.exe
 0003:00000a98       __imp_?CreateHandle@HandleScope@v8@@KAPEAPEAVObject@internal@2@PEAVIsolate@42@PEAV342@@Z 000000018003fa98     node:node.exe
 0003:00000aa0       __imp_?CreateHandle@HandleScope@v8@@CAPEAPEAVObject@internal@2@PEAVHeapObject@42@PEAV342@@Z 000000018003faa0     node:node.exe
 0003:00000aa8       __imp_??1HandleScope@v8@@QEAA@XZ 000000018003faa8     node:node.exe
 0003:00000ab0       __imp_??0HandleScope@v8@@QEAA@PEAVIsolate@1@@Z 000000018003fab0     node:node.exe
 0003:00000ab8       __imp_?Set@Template@v8@@QEAAXV?$Local@VName@v8@@@2@V?$Local@VData@v8@@@2@W4PropertyAttribute@2@@Z 000000018003fab8     node:node.exe
 0003:00000ac0       __imp_?Error@Exception@v8@@SA?AV?$Local@VValue@v8@@@2@V?$Local@VString@v8@@@2@@Z 000000018003fac0     node:node.exe
 0003:00000ac8       __imp_?TypeError@Exception@v8@@SA?AV?$Local@VValue@v8@@@2@V?$Local@VString@v8@@@2@@Z 000000018003fac8     node:node.exe
 0003:00000ad0       __imp_?SetClassName@FunctionTemplate@v8@@QEAAXV?$Local@VString@v8@@@2@@Z 000000018003fad0     node:node.exe
 0003:00000ad8       __imp_?PrototypeTemplate@FunctionTemplate@v8@@QEAA?AV?$Local@VObjectTemplate@v8@@@2@XZ 000000018003fad8     node:node.exe
 0003:00000ae0       __imp_?InstanceTemplate@FunctionTemplate@v8@@QEAA?AV?$Local@VObjectTemplate@v8@@@2@XZ 000000018003fae0     node:node.exe
 0003:00000ae8       __imp_?GetFunction@FunctionTemplate@v8@@QEAA?AV?$Local@VFunction@v8@@@2@XZ 000000018003fae8     node:node.exe
 0003:00000af0       __imp_?New@FunctionTemplate@v8@@SA?AV?$Local@VFunctionTemplate@v8@@@2@PEAVIsolate@2@P6AXAEBV?$FunctionCallbackInfo@VValue@v8@@@2@@ZV?$Local@VValue@v8@@@2@V?$Local@VSignature@v8@@@2@H@Z 000000018003faf0     node:node.exe
 0003:00000af8       __imp_?ToLocalEmpty@V8@v8@@CAXXZ 000000018003faf8     node:node.exe
 0003:00000b00       __imp_?ClearWeak@V8@v8@@CAPEAXPEAPEAVObject@internal@2@@Z 000000018003fb00     node:node.exe
 0003:00000b08       __imp_?MakeWeak@V8@v8@@CAXPEAPEAVObject@internal@2@PEAXP6AXAEBV?$WeakCallbackInfo@X@2@@ZW4WeakCallbackType@2@@Z 000000018003fb08     node:node.exe
 0003:00000b10       __imp_?DisposeGlobal@V8@v8@@CAXPEAPEAVObject@internal@2@@Z 000000018003fb10     node:node.exe
 0003:00000b18       __imp_?GlobalizeReference@V8@v8@@CAPEAPEAVObject@internal@2@PEAVIsolate@42@PEAPEAV342@@Z 000000018003fb18     node:node.exe
 0003:00000b20       __imp_?Int32Value@Value@v8@@QEBAHXZ 000000018003fb20     node:node.exe
 0003:00000b28       __imp_?ToInt32@Value@v8@@QEBA?AV?$MaybeLocal@VInt32@v8@@@2@V?$Local@VContext@v8@@@2@@Z 000000018003fb28     node:node.exe
 0003:00000b30       __imp_?ToUint32@Value@v8@@QEBA?AV?$MaybeLocal@VUint32@v8@@@2@V?$Local@VContext@v8@@@2@@Z 000000018003fb30     node:node.exe
 0003:00000b38       __imp_?IsInt32@Value@v8@@QEBA_NXZ 000000018003fb38     node:node.exe
 0003:00000b40       __imp_?IsObject@Value@v8@@QEBA_NXZ 000000018003fb40     node:node.exe
 0003:00000b48       __imp_?IsArray@Value@v8@@QEBA_NXZ 000000018003fb48     node:node.exe
 0003:00000b50       __imp_?IsTrue@Value@v8@@QEBA_NXZ 000000018003fb50     node:node.exe
 0003:00000b58       __imp_?Escape@EscapableHandleScope@v8@@AEAAPEAPEAVObject@internal@2@PEAPEAV342@@Z 000000018003fb58     node:node.exe
 0003:00000b60       __imp_??0EscapableHandleScope@v8@@QEAA@PEAVIsolate@1@@Z 000000018003fb60     node:node.exe
 0003:00000b68       __imp_?NewFromUtf8@String@v8@@SA?AV?$MaybeLocal@VString@v8@@@2@PEAVIsolate@2@PEBDW4NewStringType@2@H@Z 000000018003fb68     node:node.exe
 0003:00000b70       __imp_?WriteUtf8@String@v8@@QEBAHPEADHPEAHH@Z 000000018003fb70     node:node.exe
 0003:00000b78       __imp_?Utf8Length@String@v8@@QEBAHXZ 000000018003fb78     node:node.exe
 0003:00000b80       __imp_?Length@String@v8@@QEBAHXZ 000000018003fb80     node:node.exe
 0003:00000b88       __imp_?SlowGetAlignedPointerFromInternalField@Object@v8@@AEAAPEAXH@Z 000000018003fb88     node:node.exe
 0003:00000b90       __imp_?SlowGetInternalField@Object@v8@@AEAA?AV?$Local@VValue@v8@@@2@H@Z 000000018003fb90     node:node.exe
 0003:00000b98       __imp_?New@Object@v8@@SA?AV?$Local@VObject@v8@@@2@PEAVIsolate@2@@Z 000000018003fb98     node:node.exe
 0003:00000ba0       __imp_?SetAlignedPointerInInternalField@Object@v8@@QEAAXHPEAX@Z 000000018003fba0     node:node.exe
 0003:00000ba8       __imp_?SetInternalField@Object@v8@@QEAAXHV?$Local@VValue@v8@@@2@@Z 000000018003fba8     node:node.exe
 0003:00000bb0       __imp_?InternalFieldCount@Object@v8@@QEAAHXZ 000000018003fbb0     node:node.exe
 0003:00000bb8       __imp_?Get@Object@v8@@QEAA?AV?$Local@VValue@v8@@@2@V32@@Z 000000018003fbb8     node:node.exe
 0003:00000bc0       __imp_?Set@Object@v8@@QEAA_NV?$Local@VValue@v8@@@2@0@Z 000000018003fbc0     node:node.exe
 0003:00000bc8       __imp_?Call@Function@v8@@QEAA?AV?$Local@VValue@v8@@@2@V32@HQEAV32@@Z 000000018003fbc8     node:node.exe
 0003:00000bd0       __imp_?SetInternalFieldCount@ObjectTemplate@v8@@QEAAXH@Z 000000018003fbd0     node:node.exe
 0003:00000bd8       __imp_?NewInstance@ObjectTemplate@v8@@QEAA?AV?$MaybeLocal@VObject@v8@@@2@V?$Local@VContext@v8@@@2@@Z 000000018003fbd8     node:node.exe
 0003:00000be0       __imp_?New@ObjectTemplate@v8@@SA?AV?$Local@VObjectTemplate@v8@@@2@PEAVIsolate@2@V?$Local@VFunctionTemplate@v8@@@2@@Z 000000018003fbe0     node:node.exe
 0003:00000be8       __imp_node_module_register 000000018003fbe8     node:node.exe
 0003:00000bf0       __imp_?HasInstance@Buffer@node@@YA_NV?$Local@VObject@v8@@@v8@@@Z 000000018003fbf0     node:node.exe
 0003:00000bf8       __imp_?Data@Buffer@node@@YAPEADV?$Local@VObject@v8@@@v8@@@Z 000000018003fbf8     node:node.exe
 0003:00000c00       __imp_?Length@Buffer@node@@YA_KV?$Local@VObject@v8@@@v8@@@Z 000000018003fc00     node:node.exe
 0003:00000c08       __imp_?ToObject@Value@v8@@QEBA?AV?$Local@VObject@v8@@@2@XZ 000000018003fc08     node:node.exe
 0003:00000c10       __imp_?ToString@Value@v8@@QEBA?AV?$Local@VString@v8@@@2@XZ 000000018003fc10     node:node.exe
 0003:00000c18       \177node_NULL_THUNK_DATA_DLA 000000018003fc18     node:node.exe
 0003:00000c20       __hmod__node_exe           000000018003fc20     node:node.exe
 0003:000011a0       __scrt_current_native_startup_state 00000001800401a0     LIBCMT:utility.obj
 0003:000011a8       __scrt_native_startup_lock 00000001800401a8     LIBCMT:utility.obj
 0003:000011f0       ?__type_info_root_node@@3U__type_info_node@@A 00000001800401f0     LIBCMT:tncleanup.obj
 0003:00001200       ?_OptionsStorage@?1??__local_stdio_printf_options@@9@4_KA 0000000180040200     LIBCMT:default_local_stdio_options.obj
 0003:00001208       ?_OptionsStorage@?1??__local_stdio_scanf_options@@9@4_KA 0000000180040208     LIBCMT:default_local_stdio_options.obj
 0003:00001210       __scrt_debugger_hook_flag  0000000180040210     LIBCMT:utility_desktop.obj
 0003:00001214       __favor                    0000000180040214     LIBCMT:_cpu_disp_.obj
 0003:00001338       __pPurecall                0000000180040338     libvcruntime:purevirt_data.obj
 0003:00001340       ?pArgList@UnDecorator@@0PEAVReplicator@@EA 0000000180040340     libvcruntime:undname.obj
 0003:00001348       ?pZNameList@UnDecorator@@0PEAVReplicator@@EA 0000000180040348     libvcruntime:undname.obj
 0003:00001350       ?pTemplateArgList@UnDecorator@@0PEAVReplicator@@EA 0000000180040350     libvcruntime:undname.obj
 0003:00001358       ?gName@UnDecorator@@0PEBDEB 0000000180040358     libvcruntime:undname.obj
 0003:00001360       ?name@UnDecorator@@0PEBDEB 0000000180040360     libvcruntime:undname.obj
 0003:00001368       ?outputString@UnDecorator@@0PEADEA 0000000180040368     libvcruntime:undname.obj
 0003:00001370       ?maxStringLength@UnDecorator@@0HA 0000000180040370     libvcruntime:undname.obj
 0003:00001374       ?disableFlags@UnDecorator@@0KA 0000000180040374     libvcruntime:undname.obj
 0003:00001378       ?fExplicitTemplateParams@UnDecorator@@0_NA 0000000180040378     libvcruntime:undname.obj
 0003:00001379       ?fGetTemplateArgumentList@UnDecorator@@0_NA 0000000180040379     libvcruntime:undname.obj
 0003:00001380       ?m_pGetParameter@UnDecorator@@0P6APEADJ@ZEA 0000000180040380     libvcruntime:undname.obj
 0003:000014d8       _environ_table             00000001800404d8     libucrt:environment_initialization.obj
 0003:000014e0       _wenviron_table            00000001800404e0     libucrt:environment_initialization.obj
 0003:000014e8       __dcrt_initial_wide_environment 00000001800404e8     libucrt:environment_initialization.obj
 0003:000014f0       __dcrt_initial_narrow_environment 00000001800404f0     libucrt:environment_initialization.obj
 0003:000014f8       __acrt_atexit_table        00000001800404f8     libucrt:onexit.obj
 0003:00001510       __acrt_at_quick_exit_table 0000000180040510     libucrt:onexit.obj
 0003:00001538       _nstream                   0000000180040538     libucrt:_file.obj
 0003:00001540       __piob                     0000000180040540     libucrt:_file.obj
 0003:00001548       _cflush                    0000000180040548     libucrt:_file.obj
 0003:00001570       __acrt_locale_changed_data 0000000180040570     libucrt:wsetlocale.obj
 0003:00001578       __acrt_current_locale_data 0000000180040578     libucrt:nlsdata.obj
 0003:00001934       __mbcodepage               0000000180040934     libucrt:mbctype.obj
 0003:00001938       __ismbcodepage             0000000180040938     libucrt:mbctype.obj
 0003:00001940       __mbulinfo                 0000000180040940     libucrt:mbctype.obj
 0003:00001950       __mblocalename             0000000180040950     libucrt:mbctype.obj
 0003:0000195c       __argc                     000000018004095c     libucrt:argv_data.obj
 0003:00001960       __argv                     0000000180040960     libucrt:argv_data.obj
 0003:00001968       __wargv                    0000000180040968     libucrt:argv_data.obj
 0003:00001970       _acmdln                    0000000180040970     libucrt:argv_data.obj
 0003:00001978       _wcmdln                    0000000180040978     libucrt:argv_data.obj
 0003:00001980       _pgmptr                    0000000180040980     libucrt:argv_data.obj
 0003:00001988       __acrt_heap                0000000180040988     libucrt:heap_handle.obj
 0003:00001990       __pioinfo                  0000000180040990     libucrt:ioinit.obj
 0003:00001d90       _nhandle                   0000000180040d90     libucrt:ioinit.obj
 0003:00001da0       __acrt_stdout_buffer       0000000180040da0     libucrt:_sftbuf.obj
 0003:00001da8       __acrt_stderr_buffer       0000000180040da8     libucrt:_sftbuf.obj
 0003:00001dc0       __acrt_lconv_static_null   0000000180040dc0     libucrt:localeconv.obj
 0003:00001dc4       __acrt_lconv_static_W_null 0000000180040dc4     libucrt:localeconv.obj
 0003:00001dc8       __fma3_is_available        0000000180040dc8     libucrt:fma3_available.obj
 0003:00001dcc       __use_fma3_lib             0000000180040dcc     libucrt:fma3_available.obj
 0003:00001dd0       ?DloadKernel32@@3PEAUHINSTANCE__@@EA 0000000180040dd0     DelayImp:delayhlp.obj
 0003:00001dd8       ?DloadAcquireSRWLockExclusive@@3P6AXPEA_K@ZEA 0000000180040dd8     DelayImp:delayhlp.obj
 0003:00001de0       ?DloadReleaseSRWLockExclusive@@3P6AXPEA_K@ZEA 0000000180040de0     DelayImp:delayhlp.obj
 0003:00001de8       ?DloadSrwLock@@3_KA        0000000180040de8     DelayImp:delayhlp.obj
 0003:00001df0       ?DloadSectionLockCount@@3KA 0000000180040df0     DelayImp:delayhlp.obj
 0003:00001df4       ?DloadSectionOldProtection@@3KA 0000000180040df4     DelayImp:delayhlp.obj
 0003:00001df8       ?DloadSectionCommitPermanent@@3KA 0000000180040df8     DelayImp:delayhlp.obj
 0003:00001e00       __pfnDliFailureHook2       0000000180040e00     DelayImp:delayhk1.obj
 0003:00001e08       __scrt_ucrt_dll_is_in_use  0000000180040e08     <common>
 0003:00001e10       __dyn_tls_init_callback    0000000180040e10     <common>
 0003:00001e18       _pDestructExceptionObject  0000000180040e18     <common>

 entry point at        0001:0001b420

 Static symbols

 0000:fffb9000       .debug$S                   0000000180000000     kernel32:KERNEL32.dll
 0000:fffb9000       .debug$S                   0000000180000000     kernel32:KERNEL32.dll
 0000:fffb9000       .debug$S                   0000000180000000     kernel32:KERNEL32.dll
 0000:fffb9000       .debug$S                   0000000180000000     kernel32:KERNEL32.dll
 0000:fffb9000       .debug$S                   0000000180000000     kernel32:KERNEL32.dll
 0000:fffb9000       .debug$S                   0000000180000000     kernel32:KERNEL32.dll
 0000:fffb9000       .debug$S                   0000000180000000     kernel32:KERNEL32.dll
 0000:fffb9000       .debug$S                   0000000180000000     kernel32:KERNEL32.dll
 0000:fffb9000       .debug$S                   0000000180000000     kernel32:KERNEL32.dll
 0000:fffb9000       .debug$S                   0000000180000000     kernel32:KERNEL32.dll
 0000:fffb9000       .debug$S                   0000000180000000     kernel32:KERNEL32.dll
 0000:fffb9000       .debug$S                   0000000180000000     kernel32:KERNEL32.dll
 0000:fffb9000       .debug$S                   0000000180000000     kernel32:KERNEL32.dll
 0000:fffb9000       .debug$S                   0000000180000000     kernel32:KERNEL32.dll
 0000:fffb9000       .debug$S                   0000000180000000     kernel32:KERNEL32.dll
 0000:fffb9000       .debug$S                   0000000180000000     kernel32:KERNEL32.dll
 0000:fffb9000       .debug$S                   0000000180000000     kernel32:KERNEL32.dll
 0000:fffb9000       .debug$S                   0000000180000000     kernel32:KERNEL32.dll
 0000:fffb9000       .debug$S                   0000000180000000     kernel32:KERNEL32.dll
 0000:fffb9000       .debug$S                   0000000180000000     kernel32:KERNEL32.dll
 0000:fffb9000       .debug$S                   0000000180000000     kernel32:KERNEL32.dll
 0000:fffb9000       .debug$S                   0000000180000000     kernel32:KERNEL32.dll
 0000:fffb9000       .debug$S                   0000000180000000     kernel32:KERNEL32.dll
 0000:fffb9000       .debug$S                   0000000180000000     kernel32:KERNEL32.dll
 0000:fffb9000       .debug$S                   0000000180000000     kernel32:KERNEL32.dll
 0000:fffb9000       .debug$S                   0000000180000000     kernel32:KERNEL32.dll
 0000:fffb9000       .debug$S                   0000000180000000     kernel32:KERNEL32.dll
 0000:fffb9000       .debug$S                   0000000180000000     kernel32:KERNEL32.dll
 0000:fffb9000       .debug$S                   0000000180000000     kernel32:KERNEL32.dll
 0000:fffb9000       .debug$S                   0000000180000000     kernel32:KERNEL32.dll
 0000:fffb9000       .debug$S                   0000000180000000     kernel32:KERNEL32.dll
 0000:fffb9000       .debug$S                   0000000180000000     kernel32:KERNEL32.dll
 0000:fffb9000       .debug$S                   0000000180000000     kernel32:KERNEL32.dll
 0000:fffb9000       .debug$S                   0000000180000000     kernel32:KERNEL32.dll
 0000:fffb9000       .debug$S                   0000000180000000     kernel32:KERNEL32.dll
 0000:fffb9000       .debug$S                   0000000180000000     kernel32:KERNEL32.dll
 0000:fffb9000       .debug$S                   0000000180000000     kernel32:KERNEL32.dll
 0000:fffb9000       .debug$S                   0000000180000000     kernel32:KERNEL32.dll
 0000:fffb9000       .debug$S                   0000000180000000     kernel32:KERNEL32.dll
 0000:fffb9000       .debug$S                   0000000180000000     kernel32:KERNEL32.dll
 0000:fffb9000       .debug$S                   0000000180000000     kernel32:KERNEL32.dll
 0000:fffb9000       .debug$S                   0000000180000000     kernel32:KERNEL32.dll
 0000:fffb9000       .debug$S                   0000000180000000     kernel32:KERNEL32.dll
 0000:fffb9000       .debug$S                   0000000180000000     kernel32:KERNEL32.dll
 0000:fffb9000       .debug$S                   0000000180000000     kernel32:KERNEL32.dll
 0000:fffb9000       .debug$S                   0000000180000000     kernel32:KERNEL32.dll
 0000:fffb9000       .debug$S                   0000000180000000     kernel32:KERNEL32.dll
 0000:fffb9000       .debug$S                   0000000180000000     kernel32:KERNEL32.dll
 0000:fffb9000       .debug$S                   0000000180000000     kernel32:KERNEL32.dll
 0000:fffb9000       .debug$S                   0000000180000000     kernel32:KERNEL32.dll
 0000:fffb9000       .debug$S                   0000000180000000     kernel32:KERNEL32.dll
 0000:fffb9000       .debug$S                   0000000180000000     kernel32:KERNEL32.dll
 0000:fffb9000       .debug$S                   0000000180000000     kernel32:KERNEL32.dll
 0000:fffb9000       .debug$S                   0000000180000000     kernel32:KERNEL32.dll
 0000:fffb9000       .debug$S                   0000000180000000     kernel32:KERNEL32.dll
 0000:fffb9000       .debug$S                   0000000180000000     kernel32:KERNEL32.dll
 0000:fffb9000       .debug$S                   0000000180000000     kernel32:KERNEL32.dll
 0000:fffb9000       .debug$S                   0000000180000000     kernel32:KERNEL32.dll
 0000:fffb9000       .debug$S                   0000000180000000     kernel32:KERNEL32.dll
 0000:fffb9000       .debug$S                   0000000180000000     kernel32:KERNEL32.dll
 0000:fffb9000       .debug$S                   0000000180000000     kernel32:KERNEL32.dll
 0000:fffb9000       .debug$S                   0000000180000000     kernel32:KERNEL32.dll
 0000:fffb9000       .debug$S                   0000000180000000     kernel32:KERNEL32.dll
 0000:fffb9000       .debug$S                   0000000180000000     kernel32:KERNEL32.dll
 0000:fffb9000       .debug$S                   0000000180000000     kernel32:KERNEL32.dll
 0000:fffb9000       .debug$S                   0000000180000000     kernel32:KERNEL32.dll
 0000:fffb9000       .debug$S                   0000000180000000     kernel32:KERNEL32.dll
 0000:fffb9000       .debug$S                   0000000180000000     kernel32:KERNEL32.dll
 0000:fffb9000       .debug$S                   0000000180000000     kernel32:KERNEL32.dll
 0000:fffb9000       .debug$S                   0000000180000000     kernel32:KERNEL32.dll
 0000:fffb9000       .debug$S                   0000000180000000     node_expat.exp
 0000:fffb9000       .debug$S                   0000000180000000     kernel32:KERNEL32.dll
 0000:fffb9000       .debug$S                   0000000180000000     kernel32:KERNEL32.dll
 0000:fffb9000       .debug$S                   0000000180000000     kernel32:KERNEL32.dll
 0000:fffb9000       .debug$S                   0000000180000000     kernel32:KERNEL32.dll
 0000:fffb9000       .debug$S                   0000000180000000     kernel32:KERNEL32.dll
 0000:fffb9000       .debug$S                   0000000180000000     kernel32:KERNEL32.dll
 0000:fffb9000       .debug$S                   0000000180000000     kernel32:KERNEL32.dll
 0000:fffb9000       .debug$S                   0000000180000000     node:node.exe
 0000:fffb9000       .debug$S                   0000000180000000     node:node.exe
 0000:fffb9000       .debug$S                   0000000180000000     node:node.exe
 0000:fffb9000       .debug$S                   0000000180000000     kernel32:KERNEL32.dll
 0000:fffb9000       .debug$S                   0000000180000000     kernel32:KERNEL32.dll
 0000:fffb9000       .debug$S                   0000000180000000     kernel32:KERNEL32.dll
 0000:fffb9000       .debug$S                   0000000180000000     node:node.exe
 0000:fffb9000       .debug$S                   0000000180000000     node:node.exe
 0000:fffb9000       .debug$S                   0000000180000000     node:node.exe
 0000:fffb9000       .debug$S                   0000000180000000     node:node.exe
 0000:fffb9000       .debug$S                   0000000180000000     node:node.exe
 0000:fffb9000       .debug$S                   0000000180000000     node:node.exe
 0000:fffb9000       .debug$S                   0000000180000000     node:node.exe
 0000:fffb9000       .debug$S                   0000000180000000     node:node.exe
 0000:fffb9000       .debug$S                   0000000180000000     node:node.exe
 0000:fffb9000       .debug$S                   0000000180000000     node:node.exe
 0000:fffb9000       .debug$S                   0000000180000000     node:node.exe
 0000:fffb9000       .debug$S                   0000000180000000     node:node.exe
 0000:fffb9000       .debug$S                   0000000180000000     node:node.exe
 0000:fffb9000       .debug$S                   0000000180000000     node:node.exe
 0000:fffb9000       .debug$S                   0000000180000000     node:node.exe
 0000:fffb9000       .debug$S                   0000000180000000     node:node.exe
 0000:fffb9000       .debug$S                   0000000180000000     node:node.exe
 0000:fffb9000       .debug$S                   0000000180000000     node:node.exe
 0000:fffb9000       .debug$S                   0000000180000000     node:node.exe
 0000:fffb9000       .debug$S                   0000000180000000     node:node.exe
 0000:fffb9000       .debug$S                   0000000180000000     node:node.exe
 0000:fffb9000       .debug$S                   0000000180000000     node:node.exe
 0000:fffb9000       .debug$S                   0000000180000000     node:node.exe
 0000:fffb9000       .debug$S                   0000000180000000     node:node.exe
 0000:fffb9000       .debug$S                   0000000180000000     node:node.exe
 0000:fffb9000       .debug$S                   0000000180000000     node:node.exe
 0000:fffb9000       .debug$S                   0000000180000000     node:node.exe
 0000:fffb9000       .debug$S                   0000000180000000     node:node.exe
 0000:fffb9000       .debug$S                   0000000180000000     node:node.exe
 0000:fffb9000       .debug$S                   0000000180000000     node:node.exe
 0000:fffb9000       .debug$S                   0000000180000000     node:node.exe
 0000:fffb9000       .debug$S                   0000000180000000     node:node.exe
 0000:fffb9000       .debug$S                   0000000180000000     node:node.exe
 0000:fffb9000       .debug$S                   0000000180000000     node:node.exe
 0000:fffb9000       .debug$S                   0000000180000000     node:node.exe
 0000:fffb9000       .debug$S                   0000000180000000     node:node.exe
 0000:fffb9000       .debug$S                   0000000180000000     node:node.exe
 0000:fffb9000       .debug$S                   0000000180000000     node:node.exe
 0000:fffb9000       .debug$S                   0000000180000000     node:node.exe
 0000:fffb9000       .debug$S                   0000000180000000     node:node.exe
 0000:fffb9000       .debug$S                   0000000180000000     node:node.exe
 0000:fffb9000       .debug$S                   0000000180000000     node:node.exe
 0000:fffb9000       .debug$S                   0000000180000000     node:node.exe
 0000:fffb9000       .debug$S                   0000000180000000     node:node.exe
 0000:fffb9000       .debug$S                   0000000180000000     node:node.exe
 0000:fffb9000       .debug$S                   0000000180000000     node:node.exe
 0000:fffb9000       .debug$S                   0000000180000000     node:node.exe
 0000:fffb9000       .debug$S                   0000000180000000     node:node.exe
 0000:fffb9000       .debug$S                   0000000180000000     node:node.exe
 0000:fffb9000       .debug$S                   0000000180000000     node:node.exe
 0000:fffb9000       .debug$S                   0000000180000000     node:node.exe
 0000:fffb9000       .debug$S                   0000000180000000     node:node.exe
 0000:fffb9000       .debug$S                   0000000180000000     node:node.exe
 0000:fffb9000       .debug$S                   0000000180000000     node:node.exe
 0000:fffb9000       .debug$S                   0000000180000000     node:node.exe
 0000:fffb9000       .debug$S                   0000000180000000     node:node.exe
 0000:fffb9000       .debug$S                   0000000180000000     node:node.exe
 0000:fffb9000       .debug$S                   0000000180000000     node:node.exe
 0000:fffb9000       .debug$S                   0000000180000000     node:node.exe
 0000:fffb9000       .debug$S                   0000000180000000     node:node.exe
 0000:fffb9000       .debug$S                   0000000180000000     kernel32:KERNEL32.dll
 0000:fffb9000       .debug$S                   0000000180000000     kernel32:KERNEL32.dll
 0000:fffb9000       .debug$S                   0000000180000000     kernel32:KERNEL32.dll
 0000:fffb9000       .debug$S                   0000000180000000     kernel32:KERNEL32.dll
 0000:fffb9000       .debug$S                   0000000180000000     kernel32:KERNEL32.dll
 0000:fffb9000       .debug$S                   0000000180000000     kernel32:KERNEL32.dll
 0000:fffb9000       .debug$S                   0000000180000000     kernel32:KERNEL32.dll
 0000:fffb9000       .debug$S                   0000000180000000     kernel32:KERNEL32.dll
 0000:fffb9000       .debug$S                   0000000180000000     kernel32:KERNEL32.dll
 0000:fffb9000       .debug$S                   0000000180000000     kernel32:KERNEL32.dll
 0000:fffb9000       .debug$S                   0000000180000000     kernel32:KERNEL32.dll
 0000:fffb9000       .debug$S                   0000000180000000     advapi32:ADVAPI32.dll
 0000:fffb9000       .debug$S                   0000000180000000     node:node.exe
 0000:fffb9000       .debug$S                   0000000180000000     node:node.exe
 0001:000001e0       ?FunctionCallbackWrapper@imp@Nan@@YAXAEBV?$FunctionCallbackInfo@VValue@v8@@@v8@@@Z 00000001800011e0 f   node-expat.obj
 0001:00002ac0       init                       0000000180003ac0 f   node-expat.obj
 0001:00002ad0       _register_node_expat       0000000180003ad0 f   node-expat.obj
 0001:00002b60       load_exe_hook              0000000180003b60 f   win_delay_load_hook.obj
 0001:00002bb0       startParsing               0000000180003bb0 f   libexpat:xmlparse.obj
 0001:00002c20       parserCreate               0000000180003c20 f   libexpat:xmlparse.obj
 0001:00002df0       parserInit                 0000000180003df0 f   libexpat:xmlparse.obj
 0001:000039e0       storeRawNames              00000001800049e0 f   libexpat:xmlparse.obj
 0001:00003ac0       contentProcessor           0000000180004ac0 f   libexpat:xmlparse.obj
 0001:00003b20       externalEntityContentProcessor 0000000180004b20 f   libexpat:xmlparse.obj
 0001:00003b80       doContent                  0000000180004b80 f   libexpat:xmlparse.obj
 0001:0000479c       $LN232                     000000018000579c     libexpat:xmlparse.obj
 0001:000047f0       storeAtts                  00000001800057f0 f   libexpat:xmlparse.obj
 0001:00005260       addBinding                 0000000180006260 f   libexpat:xmlparse.obj
 0001:000054f0       cdataSectionProcessor      00000001800064f0 f   libexpat:xmlparse.obj
 0001:00005600       doCdataSection             0000000180006600 f   libexpat:xmlparse.obj
 0001:000058d8       $LN51                      00000001800068d8     libexpat:xmlparse.obj
 0001:000058f4       $LN50                      00000001800068f4     libexpat:xmlparse.obj
 0001:00005930       ignoreSectionProcessor     0000000180006930 f   libexpat:xmlparse.obj
 0001:000059c0       doIgnoreSection            00000001800069c0 f   libexpat:xmlparse.obj
 0001:00005af0       processXmlDecl             0000000180006af0 f   libexpat:xmlparse.obj
 0001:00005df0       handleUnknownEncoding      0000000180006df0 f   libexpat:xmlparse.obj
 0001:00005f80       prologInitProcessor        0000000180006f80 f   libexpat:xmlparse.obj
 0001:00006020       prologProcessor            0000000180007020 f   libexpat:xmlparse.obj
 0001:000060b0       doProlog                   00000001800070b0 f   libexpat:xmlparse.obj
 0001:000079bc       $LN445                     00000001800089bc     libexpat:xmlparse.obj
 0001:00007ac0       epilogProcessor            0000000180008ac0 f   libexpat:xmlparse.obj
 0001:00007c88       $LN36                      0000000180008c88     libexpat:xmlparse.obj
 0001:00007cac       $LN35                      0000000180008cac     libexpat:xmlparse.obj
 0001:00007cd0       processInternalEntity      0000000180008cd0 f   libexpat:xmlparse.obj
 0001:00007e50       internalEntityProcessor    0000000180008e50 f   libexpat:xmlparse.obj
 0001:00008040       errorProcessor             0000000180009040 f   libexpat:xmlparse.obj
 0001:00008050       storeAttributeValue        0000000180009050 f   libexpat:xmlparse.obj
 0001:000080e0       appendAttributeValue       00000001800090e0 f   libexpat:xmlparse.obj
 0001:00008628       $LN112                     0000000180009628     libexpat:xmlparse.obj
 0001:0000864c       $LN111                     000000018000964c     libexpat:xmlparse.obj
 0001:00008680       storeEntityValue           0000000180009680 f   libexpat:xmlparse.obj
 0001:00008a84       $LN81                      0000000180009a84     libexpat:xmlparse.obj
 0001:00008aa8       $LN80                      0000000180009aa8     libexpat:xmlparse.obj
 0001:00008ad0       normalizeLines             0000000180009ad0 f   libexpat:xmlparse.obj
 0001:00008b20       reportProcessingInstruction 0000000180009b20 f   libexpat:xmlparse.obj
 0001:00008c90       reportComment              0000000180009c90 f   libexpat:xmlparse.obj
 0001:00008db0       reportDefault              0000000180009db0 f   libexpat:xmlparse.obj
 0001:00008ea0       defineAttribute            0000000180009ea0 f   libexpat:xmlparse.obj
 0001:00008fb0       setElementTypePrefix       0000000180009fb0 f   libexpat:xmlparse.obj
 0001:000090f0       getAttributeId             000000018000a0f0 f   libexpat:xmlparse.obj
 0001:00009370       getContext                 000000018000a370 f   libexpat:xmlparse.obj
 0001:000096f0       setContext                 000000018000a6f0 f   libexpat:xmlparse.obj
 0001:00009980       normalizePublicId          000000018000a980 f   libexpat:xmlparse.obj
 0001:000099f0       dtdCreate                  000000018000a9f0 f   libexpat:xmlparse.obj
 0001:00009b20       dtdReset                   000000018000ab20 f   libexpat:xmlparse.obj
 0001:00009dd0       dtdDestroy                 000000018000add0 f   libexpat:xmlparse.obj
 0001:0000a010       lookup                     000000018000b010 f   libexpat:xmlparse.obj
 0001:0000a380       poolClear                  000000018000b380 f   libexpat:xmlparse.obj
 0001:0000a3e0       poolAppend                 000000018000b3e0 f   libexpat:xmlparse.obj
 0001:0000a610       poolCopyString             000000018000b610 f   libexpat:xmlparse.obj
 0001:0000a800       poolAppendString           000000018000b800 f   libexpat:xmlparse.obj
 0001:0000a9f0       poolStoreString            000000018000b9f0 f   libexpat:xmlparse.obj
 0001:0000aa30       poolGrow                   000000018000ba30 f   libexpat:xmlparse.obj
 0001:0000abe0       nextScaffoldPart           000000018000bbe0 f   libexpat:xmlparse.obj
 0001:0000ad20       build_node                 000000018000bd20 f   libexpat:xmlparse.obj
 0001:0000ae60       build_model                000000018000be60 f   libexpat:xmlparse.obj
 0001:0000aef0       getElementType             000000018000bef0 f   libexpat:xmlparse.obj
 0001:0000afc0       isNever                    000000018000bfc0 f   libexpat:xmltok.obj
 0001:0000afc0       error                      000000018000bfc0 f   libexpat:xmlrole.obj
 0001:0000afd0       utf8_isName2               000000018000bfd0 f   libexpat:xmltok.obj
 0001:0000b020       utf8_isName3               000000018000c020 f   libexpat:xmltok.obj
 0001:0000b090       utf8_isNmstrt2             000000018000c090 f   libexpat:xmltok.obj
 0001:0000b0e0       utf8_isNmstrt3             000000018000c0e0 f   libexpat:xmltok.obj
 0001:0000b150       utf8_isInvalid2            000000018000c150 f   libexpat:xmltok.obj
 0001:0000b170       utf8_isInvalid3            000000018000c170 f   libexpat:xmltok.obj
 0001:0000b1e0       utf8_isInvalid4            000000018000c1e0 f   libexpat:xmltok.obj
 0001:0000b240       normal_scanComment         000000018000c240 f   libexpat:xmltok.obj
 0001:0000b3a4       $LN38                      000000018000c3a4     libexpat:xmltok.obj
 0001:0000b3bc       $LN37                      000000018000c3bc     libexpat:xmltok.obj
 0001:0000b3e0       normal_scanDecl            000000018000c3e0 f   libexpat:xmltok.obj
 0001:0000b4ec       $LN28                      000000018000c4ec     libexpat:xmltok.obj
 0001:0000b4fc       $LN27                      000000018000c4fc     libexpat:xmltok.obj
 0001:0000b520       normal_scanPi              000000018000c520 f   libexpat:xmltok.obj
 0001:0000b8a4       $LN128                     000000018000c8a4     libexpat:xmltok.obj
 0001:0000b8bc       $LN127                     000000018000c8bc     libexpat:xmltok.obj
 0001:0000b8d8       $LN126                     000000018000c8d8     libexpat:xmltok.obj
 0001:0000b8f8       $LN125                     000000018000c8f8     libexpat:xmltok.obj
 0001:0000b914       $LN124                     000000018000c914     libexpat:xmltok.obj
 0001:0000b960       normal_cdataSectionTok     000000018000c960 f   libexpat:xmltok.obj
 0001:0000bb80       $LN52                      000000018000cb80     libexpat:xmltok.obj
 0001:0000bbac       $LN51                      000000018000cbac     libexpat:xmltok.obj
 0001:0000bbe0       normal_scanEndTag          000000018000cbe0 f   libexpat:xmltok.obj
 0001:0000be04       $LN66                      000000018000ce04     libexpat:xmltok.obj
 0001:0000be1c       $LN65                      000000018000ce1c     libexpat:xmltok.obj
 0001:0000be38       $LN64                      000000018000ce38     libexpat:xmltok.obj
 0001:0000be58       $LN63                      000000018000ce58     libexpat:xmltok.obj
 0001:0000be80       normal_scanCharRef         000000018000ce80 f   libexpat:xmltok.obj
 0001:0000bf60       normal_scanRef             000000018000cf60 f   libexpat:xmltok.obj
 0001:0000c140       $LN51                      000000018000d140     libexpat:xmltok.obj
 0001:0000c15c       $LN50                      000000018000d15c     libexpat:xmltok.obj
 0001:0000c178       $LN49                      000000018000d178     libexpat:xmltok.obj
 0001:0000c194       $LN48                      000000018000d194     libexpat:xmltok.obj
 0001:0000c1b0       normal_scanAtts            000000018000d1b0 f   libexpat:xmltok.obj
 0001:0000c62c       $LN184                     000000018000d62c     libexpat:xmltok.obj
 0001:0000c650       $LN183                     000000018000d650     libexpat:xmltok.obj
 0001:0000c66c       $LN182                     000000018000d66c     libexpat:xmltok.obj
 0001:0000c684       $LN181                     000000018000d684     libexpat:xmltok.obj
 0001:0000c6a0       $LN180                     000000018000d6a0     libexpat:xmltok.obj
 0001:0000c6c4       $LN179                     000000018000d6c4     libexpat:xmltok.obj
 0001:0000c6e8       $LN178                     000000018000d6e8     libexpat:xmltok.obj
 0001:0000c710       normal_scanLt              000000018000d710 f   libexpat:xmltok.obj
 0001:0000cb4c       $LN127                     000000018000db4c     libexpat:xmltok.obj
 0001:0000cb70       $LN126                     000000018000db70     libexpat:xmltok.obj
 0001:0000cb8c       $LN125                     000000018000db8c     libexpat:xmltok.obj
 0001:0000cbf0       $LN124                     000000018000dbf0     libexpat:xmltok.obj
 0001:0000cc08       $LN123                     000000018000dc08     libexpat:xmltok.obj
 0001:0000cc24       $LN122                     000000018000dc24     libexpat:xmltok.obj
 0001:0000cc48       $LN121                     000000018000dc48     libexpat:xmltok.obj
 0001:0000cc70       normal_contentTok          000000018000dc70 f   libexpat:xmltok.obj
 0001:0000cedc       $LN59                      000000018000dedc     libexpat:xmltok.obj
 0001:0000cf08       $LN58                      000000018000df08     libexpat:xmltok.obj
 0001:0000cf40       normal_scanPercent         000000018000df40 f   libexpat:xmltok.obj
 0001:0000d11c       $LN51                      000000018000e11c     libexpat:xmltok.obj
 0001:0000d138       $LN50                      000000018000e138     libexpat:xmltok.obj
 0001:0000d154       $LN49                      000000018000e154     libexpat:xmltok.obj
 0001:0000d170       $LN48                      000000018000e170     libexpat:xmltok.obj
 0001:0000d190       normal_scanPoundName       000000018000e190 f   libexpat:xmltok.obj
 0001:0000d360       $LN50                      000000018000e360     libexpat:xmltok.obj
 0001:0000d378       $LN49                      000000018000e378     libexpat:xmltok.obj
 0001:0000d394       $LN48                      000000018000e394     libexpat:xmltok.obj
 0001:0000d3b0       $LN47                      000000018000e3b0     libexpat:xmltok.obj
 0001:0000d3d0       normal_scanLit             000000018000e3d0 f   libexpat:xmltok.obj
 0001:0000d520       $LN36                      000000018000e520     libexpat:xmltok.obj
 0001:0000d560       normal_prologTok           000000018000e560 f   libexpat:xmltok.obj
 0001:0000da98       $LN143                     000000018000ea98     libexpat:xmltok.obj
 0001:0000db24       $LN142                     000000018000eb24     libexpat:xmltok.obj
 0001:0000db34       $LN141                     000000018000eb34     libexpat:xmltok.obj
 0001:0000db50       $LN140                     000000018000eb50     libexpat:xmltok.obj
 0001:0000db64       $LN139                     000000018000eb64     libexpat:xmltok.obj
 0001:0000db80       $LN138                     000000018000eb80     libexpat:xmltok.obj
 0001:0000dbac       $LN137                     000000018000ebac     libexpat:xmltok.obj
 0001:0000dbcc       $LN136                     000000018000ebcc     libexpat:xmltok.obj
 0001:0000dbe4       $LN135                     000000018000ebe4     libexpat:xmltok.obj
 0001:0000dc00       normal_attributeValueTok   000000018000ec00 f   libexpat:xmltok.obj
 0001:0000dd4c       $LN29                      000000018000ed4c     libexpat:xmltok.obj
 0001:0000dda0       normal_entityValueTok      000000018000eda0 f   libexpat:xmltok.obj
 0001:0000df08       $LN29                      000000018000ef08     libexpat:xmltok.obj
 0001:0000df28       $LN28                      000000018000ef28     libexpat:xmltok.obj
 0001:0000df50       normal_ignoreSectionTok    000000018000ef50 f   libexpat:xmltok.obj
 0001:0000e0c8       $LN46                      000000018000f0c8     libexpat:xmltok.obj
 0001:0000e0f0       normal_isPublicId          000000018000f0f0 f   libexpat:xmltok.obj
 0001:0000e188       $LN26                      000000018000f188     libexpat:xmltok.obj
 0001:0000e198       $LN25                      000000018000f198     libexpat:xmltok.obj
 0001:0000e1c0       normal_getAtts             000000018000f1c0 f   libexpat:xmltok.obj
 0001:0000e3f0       $LN52                      000000018000f3f0     libexpat:xmltok.obj
 0001:0000e460       normal_charRefNumber       000000018000f460 f   libexpat:xmltok.obj
 0001:0000e554       $LN40                      000000018000f554     libexpat:xmltok.obj
 0001:0000e564       $LN39                      000000018000f564     libexpat:xmltok.obj
 0001:0000e5a0       normal_predefinedEntityName 000000018000f5a0 f   libexpat:xmltok.obj
 0001:0000e630       normal_sameName            000000018000f630 f   libexpat:xmltok.obj
 0001:0000e6f8       $LN40                      000000018000f6f8     libexpat:xmltok.obj
 0001:0000e70c       $LN39                      000000018000f70c     libexpat:xmltok.obj
 0001:0000e730       normal_nameMatchesAscii    000000018000f730 f   libexpat:xmltok.obj
 0001:0000e770       normal_nameLength          000000018000f770 f   libexpat:xmltok.obj
 0001:0000e7e0       $LN17                      000000018000f7e0     libexpat:xmltok.obj
 0001:0000e7f4       $LN16                      000000018000f7f4     libexpat:xmltok.obj
 0001:0000e810       normal_skipS               000000018000f810 f   libexpat:xmltok.obj
 0001:0000e840       normal_updatePosition      000000018000f840 f   libexpat:xmltok.obj
 0001:0000e900       utf8_toUtf8                000000018000f900 f   libexpat:xmltok.obj
 0001:0000ea20       utf8_toUtf16               000000018000fa20 f   libexpat:xmltok.obj
 0001:0000ec10       latin1_toUtf8              000000018000fc10 f   libexpat:xmltok.obj
 0001:0000ec80       latin1_toUtf16             000000018000fc80 f   libexpat:xmltok.obj
 0001:0000ecd0       ascii_toUtf8               000000018000fcd0 f   libexpat:xmltok.obj
 0001:0000ed10       unicode_byte_type          000000018000fd10 f   libexpat:xmltok.obj
 0001:0000ed50       little2_toUtf8             000000018000fd50 f   libexpat:xmltok.obj
 0001:0000ef00       little2_toUtf16            000000018000ff00 f   libexpat:xmltok.obj
 0001:0000efa0       big2_toUtf8                000000018000ffa0 f   libexpat:xmltok.obj
 0001:0000f150       big2_toUtf16               0000000180010150 f   libexpat:xmltok.obj
 0001:0000f1f0       little2_scanComment        00000001800101f0 f   libexpat:xmltok.obj
 0001:0000f330       $LN51                      0000000180010330     libexpat:xmltok.obj
 0001:0000f348       $LN50                      0000000180010348     libexpat:xmltok.obj
 0001:0000f370       little2_scanDecl           0000000180010370 f   libexpat:xmltok.obj
 0001:0000f508       $LN60                      0000000180010508     libexpat:xmltok.obj
 0001:0000f518       $LN59                      0000000180010518     libexpat:xmltok.obj
 0001:0000f530       little2_scanPi             0000000180010530 f   libexpat:xmltok.obj
 0001:0000f940       $LN172                     0000000180010940     libexpat:xmltok.obj
 0001:0000f958       $LN171                     0000000180010958     libexpat:xmltok.obj
 0001:0000f974       $LN170                     0000000180010974     libexpat:xmltok.obj
 0001:0000f994       $LN169                     0000000180010994     libexpat:xmltok.obj
 0001:0000f9b0       $LN168                     00000001800109b0     libexpat:xmltok.obj
 0001:0000f9f0       little2_cdataSectionTok    00000001800109f0 f   libexpat:xmltok.obj
 0001:0000fc4c       $LN81                      0000000180010c4c     libexpat:xmltok.obj
 0001:0000fc78       $LN80                      0000000180010c78     libexpat:xmltok.obj
 0001:0000fcb0       little2_scanEndTag         0000000180010cb0 f   libexpat:xmltok.obj
 0001:0000ffa0       $LN89                      0000000180010fa0     libexpat:xmltok.obj
 0001:0000ffb8       $LN88                      0000000180010fb8     libexpat:xmltok.obj
 0001:0000ffd4       $LN87                      0000000180010fd4     libexpat:xmltok.obj
 0001:0000fff4       $LN86                      0000000180010ff4     libexpat:xmltok.obj
 0001:00010010       little2_scanHexCharRef     0000000180011010 f   libexpat:xmltok.obj
 0001:000100f0       little2_scanCharRef        00000001800110f0 f   libexpat:xmltok.obj
 0001:000101c0       little2_scanRef            00000001800111c0 f   libexpat:xmltok.obj
 0001:00010474       $LN72                      0000000180011474     libexpat:xmltok.obj
 0001:00010490       $LN71                      0000000180011490     libexpat:xmltok.obj
 0001:000104ac       $LN70                      00000001800114ac     libexpat:xmltok.obj
 0001:000104c8       $LN69                      00000001800114c8     libexpat:xmltok.obj
 0001:000104f0       little2_scanAtts           00000001800114f0 f   libexpat:xmltok.obj
 0001:00010a48       $LN259                     0000000180011a48     libexpat:xmltok.obj
 0001:00010a6c       $LN258                     0000000180011a6c     libexpat:xmltok.obj
 0001:00010a88       $LN257                     0000000180011a88     libexpat:xmltok.obj
 0001:00010aa0       $LN256                     0000000180011aa0     libexpat:xmltok.obj
 0001:00010abc       $LN255                     0000000180011abc     libexpat:xmltok.obj
 0001:00010ae0       $LN254                     0000000180011ae0     libexpat:xmltok.obj
 0001:00010b04       $LN253                     0000000180011b04     libexpat:xmltok.obj
 0001:00010b20       little2_scanLt             0000000180011b20 f   libexpat:xmltok.obj
 0001:00011018       $LN162                     0000000180012018     libexpat:xmltok.obj
 0001:0001103c       $LN161                     000000018001203c     libexpat:xmltok.obj
 0001:00011058       $LN160                     0000000180012058     libexpat:xmltok.obj
 0001:000110bc       $LN159                     00000001800120bc     libexpat:xmltok.obj
 0001:000110d4       $LN158                     00000001800120d4     libexpat:xmltok.obj
 0001:000110f0       $LN157                     00000001800120f0     libexpat:xmltok.obj
 0001:00011114       $LN156                     0000000180012114     libexpat:xmltok.obj
 0001:00011130       little2_contentTok         0000000180012130 f   libexpat:xmltok.obj
 0001:000113f0       $LN90                      00000001800123f0     libexpat:xmltok.obj
 0001:0001141c       $LN89                      000000018001241c     libexpat:xmltok.obj
 0001:00011450       little2_scanPercent        0000000180012450 f   libexpat:xmltok.obj
 0001:000116c8       $LN72                      00000001800126c8     libexpat:xmltok.obj
 0001:000116e4       $LN71                      00000001800126e4     libexpat:xmltok.obj
 0001:00011700       $LN70                      0000000180012700     libexpat:xmltok.obj
 0001:0001171c       $LN69                      000000018001271c     libexpat:xmltok.obj
 0001:00011740       little2_scanPoundName      0000000180012740 f   libexpat:xmltok.obj
 0001:00011990       $LN71                      0000000180012990     libexpat:xmltok.obj
 0001:000119a8       $LN70                      00000001800129a8     libexpat:xmltok.obj
 0001:000119c4       $LN69                      00000001800129c4     libexpat:xmltok.obj
 0001:000119e0       $LN68                      00000001800129e0     libexpat:xmltok.obj
 0001:00011a00       little2_scanLit            0000000180012a00 f   libexpat:xmltok.obj
 0001:00011b54       $LN48                      0000000180012b54     libexpat:xmltok.obj
 0001:00011b90       little2_prologTok          0000000180012b90 f   libexpat:xmltok.obj
 0001:00012304       $LN178                     0000000180013304     libexpat:xmltok.obj
 0001:00012390       $LN177                     0000000180013390     libexpat:xmltok.obj
 0001:000123a0       $LN176                     00000001800133a0     libexpat:xmltok.obj
 0001:000123bc       $LN175                     00000001800133bc     libexpat:xmltok.obj
 0001:000123d0       $LN174                     00000001800133d0     libexpat:xmltok.obj
 0001:000123ec       $LN173                     00000001800133ec     libexpat:xmltok.obj
 0001:00012418       $LN172                     0000000180013418     libexpat:xmltok.obj
 0001:00012438       $LN171                     0000000180013438     libexpat:xmltok.obj
 0001:00012450       $LN170                     0000000180013450     libexpat:xmltok.obj
 0001:00012470       little2_attributeValueTok  0000000180013470 f   libexpat:xmltok.obj
 0001:00012610       $LN44                      0000000180013610     libexpat:xmltok.obj
 0001:00012660       little2_entityValueTok     0000000180013660 f   libexpat:xmltok.obj
 0001:00012818       $LN44                      0000000180013818     libexpat:xmltok.obj
 0001:00012838       $LN43                      0000000180013838     libexpat:xmltok.obj
 0001:00012860       little2_ignoreSectionTok   0000000180013860 f   libexpat:xmltok.obj
 0001:00012a04       $LN57                      0000000180013a04     libexpat:xmltok.obj
 0001:00012a30       little2_isPublicId         0000000180013a30 f   libexpat:xmltok.obj
 0001:00012b1c       $LN44                      0000000180013b1c     libexpat:xmltok.obj
 0001:00012b2c       $LN43                      0000000180013b2c     libexpat:xmltok.obj
 0001:00012b50       little2_getAtts            0000000180013b50 f   libexpat:xmltok.obj
 0001:00012de8       $LN72                      0000000180013de8     libexpat:xmltok.obj
 0001:00012e60       little2_charRefNumber      0000000180013e60 f   libexpat:xmltok.obj
 0001:00012f84       $LN49                      0000000180013f84     libexpat:xmltok.obj
 0001:00012f94       $LN48                      0000000180013f94     libexpat:xmltok.obj
 0001:00012fd0       little2_predefinedEntityName 0000000180013fd0 f   libexpat:xmltok.obj
 0001:00013100       little2_sameName           0000000180014100 f   libexpat:xmltok.obj
 0001:00013234       $LN70                      0000000180014234     libexpat:xmltok.obj
 0001:00013248       $LN69                      0000000180014248     libexpat:xmltok.obj
 0001:00013270       little2_nameMatchesAscii   0000000180014270 f   libexpat:xmltok.obj
 0001:000132b0       little2_nameLength         00000001800142b0 f   libexpat:xmltok.obj
 0001:00013340       $LN30                      0000000180014340     libexpat:xmltok.obj
 0001:00013350       $LN29                      0000000180014350     libexpat:xmltok.obj
 0001:00013370       little2_skipS              0000000180014370 f   libexpat:xmltok.obj
 0001:000133a0       little2_updatePosition     00000001800143a0 f   libexpat:xmltok.obj
 0001:000134c0       big2_scanComment           00000001800144c0 f   libexpat:xmltok.obj
 0001:00013604       $LN51                      0000000180014604     libexpat:xmltok.obj
 0001:0001361c       $LN50                      000000018001461c     libexpat:xmltok.obj
 0001:00013640       big2_scanDecl              0000000180014640 f   libexpat:xmltok.obj
 0001:000137d8       $LN60                      00000001800147d8     libexpat:xmltok.obj
 0001:000137e8       $LN59                      00000001800147e8     libexpat:xmltok.obj
 0001:00013800       big2_scanPi                0000000180014800 f   libexpat:xmltok.obj
 0001:00013c10       $LN172                     0000000180014c10     libexpat:xmltok.obj
 0001:00013c28       $LN171                     0000000180014c28     libexpat:xmltok.obj
 0001:00013c44       $LN170                     0000000180014c44     libexpat:xmltok.obj
 0001:00013c64       $LN169                     0000000180014c64     libexpat:xmltok.obj
 0001:00013c80       $LN168                     0000000180014c80     libexpat:xmltok.obj
 0001:00013cc0       big2_cdataSectionTok       0000000180014cc0 f   libexpat:xmltok.obj
 0001:00013f20       $LN81                      0000000180014f20     libexpat:xmltok.obj
 0001:00013f4c       $LN80                      0000000180014f4c     libexpat:xmltok.obj
 0001:00013f80       big2_scanEndTag            0000000180014f80 f   libexpat:xmltok.obj
 0001:00014274       $LN89                      0000000180015274     libexpat:xmltok.obj
 0001:0001428c       $LN88                      000000018001528c     libexpat:xmltok.obj
 0001:000142a8       $LN87                      00000001800152a8     libexpat:xmltok.obj
 0001:000142c8       $LN86                      00000001800152c8     libexpat:xmltok.obj
 0001:000142f0       big2_scanHexCharRef        00000001800152f0 f   libexpat:xmltok.obj
 0001:000143d0       big2_scanCharRef           00000001800153d0 f   libexpat:xmltok.obj
 0001:000144a0       big2_scanRef               00000001800154a0 f   libexpat:xmltok.obj
 0001:00014750       $LN72                      0000000180015750     libexpat:xmltok.obj
 0001:0001476c       $LN71                      000000018001576c     libexpat:xmltok.obj
 0001:00014788       $LN70                      0000000180015788     libexpat:xmltok.obj
 0001:000147a4       $LN69                      00000001800157a4     libexpat:xmltok.obj
 0001:000147c0       big2_scanAtts              00000001800157c0 f   libexpat:xmltok.obj
 0001:00014d1c       $LN259                     0000000180015d1c     libexpat:xmltok.obj
 0001:00014d40       $LN258                     0000000180015d40     libexpat:xmltok.obj
 0001:00014d5c       $LN257                     0000000180015d5c     libexpat:xmltok.obj
 0001:00014d74       $LN256                     0000000180015d74     libexpat:xmltok.obj
 0001:00014d90       $LN255                     0000000180015d90     libexpat:xmltok.obj
 0001:00014db4       $LN254                     0000000180015db4     libexpat:xmltok.obj
 0001:00014dd8       $LN253                     0000000180015dd8     libexpat:xmltok.obj
 0001:00014e00       big2_scanLt                0000000180015e00 f   libexpat:xmltok.obj
 0001:00015304       $LN162                     0000000180016304     libexpat:xmltok.obj
 0001:00015328       $LN161                     0000000180016328     libexpat:xmltok.obj
 0001:00015344       $LN160                     0000000180016344     libexpat:xmltok.obj
 0001:000153a8       $LN159                     00000001800163a8     libexpat:xmltok.obj
 0001:000153c0       $LN158                     00000001800163c0     libexpat:xmltok.obj
 0001:000153dc       $LN157                     00000001800163dc     libexpat:xmltok.obj
 0001:00015400       $LN156                     0000000180016400     libexpat:xmltok.obj
 0001:00015420       big2_contentTok            0000000180016420 f   libexpat:xmltok.obj
 0001:000156dc       $LN90                      00000001800166dc     libexpat:xmltok.obj
 0001:00015708       $LN89                      0000000180016708     libexpat:xmltok.obj
 0001:00015740       big2_scanPercent           0000000180016740 f   libexpat:xmltok.obj
 0001:000159bc       $LN72                      00000001800169bc     libexpat:xmltok.obj
 0001:000159d8       $LN71                      00000001800169d8     libexpat:xmltok.obj
 0001:000159f4       $LN70                      00000001800169f4     libexpat:xmltok.obj
 0001:00015a10       $LN69                      0000000180016a10     libexpat:xmltok.obj
 0001:00015a30       big2_scanPoundName         0000000180016a30 f   libexpat:xmltok.obj
 0001:00015c84       $LN71                      0000000180016c84     libexpat:xmltok.obj
 0001:00015c9c       $LN70                      0000000180016c9c     libexpat:xmltok.obj
 0001:00015cb8       $LN69                      0000000180016cb8     libexpat:xmltok.obj
 0001:00015cd4       $LN68                      0000000180016cd4     libexpat:xmltok.obj
 0001:00015d00       big2_scanLit               0000000180016d00 f   libexpat:xmltok.obj
 0001:00015e58       $LN48                      0000000180016e58     libexpat:xmltok.obj
 0001:00015e90       big2_prologTok             0000000180016e90 f   libexpat:xmltok.obj
 0001:00016614       $LN178                     0000000180017614     libexpat:xmltok.obj
 0001:000166a0       $LN177                     00000001800176a0     libexpat:xmltok.obj
 0001:000166b0       $LN176                     00000001800176b0     libexpat:xmltok.obj
 0001:000166cc       $LN175                     00000001800176cc     libexpat:xmltok.obj
 0001:000166e0       $LN174                     00000001800176e0     libexpat:xmltok.obj
 0001:000166fc       $LN173                     00000001800176fc     libexpat:xmltok.obj
 0001:00016728       $LN172                     0000000180017728     libexpat:xmltok.obj
 0001:00016748       $LN171                     0000000180017748     libexpat:xmltok.obj
 0001:00016760       $LN170                     0000000180017760     libexpat:xmltok.obj
 0001:00016780       big2_attributeValueTok     0000000180017780 f   libexpat:xmltok.obj
 0001:00016920       $LN44                      0000000180017920     libexpat:xmltok.obj
 0001:00016970       big2_entityValueTok        0000000180017970 f   libexpat:xmltok.obj
 0001:00016b24       $LN44                      0000000180017b24     libexpat:xmltok.obj
 0001:00016b44       $LN43                      0000000180017b44     libexpat:xmltok.obj
 0001:00016b60       big2_ignoreSectionTok      0000000180017b60 f   libexpat:xmltok.obj
 0001:00016d04       $LN57                      0000000180017d04     libexpat:xmltok.obj
 0001:00016d30       big2_isPublicId            0000000180017d30 f   libexpat:xmltok.obj
 0001:00016e20       $LN44                      0000000180017e20     libexpat:xmltok.obj
 0001:00016e30       $LN43                      0000000180017e30     libexpat:xmltok.obj
 0001:00016e50       big2_getAtts               0000000180017e50 f   libexpat:xmltok.obj
 0001:000170d4       $LN72                      00000001800180d4     libexpat:xmltok.obj
 0001:00017140       big2_charRefNumber         0000000180018140 f   libexpat:xmltok.obj
 0001:00017254       $LN51                      0000000180018254     libexpat:xmltok.obj
 0001:00017264       $LN50                      0000000180018264     libexpat:xmltok.obj
 0001:000172a0       big2_predefinedEntityName  00000001800182a0 f   libexpat:xmltok.obj
 0001:000173d0       big2_sameName              00000001800183d0 f   libexpat:xmltok.obj
 0001:00017504       $LN70                      0000000180018504     libexpat:xmltok.obj
 0001:00017518       $LN69                      0000000180018518     libexpat:xmltok.obj
 0001:00017540       big2_nameMatchesAscii      0000000180018540 f   libexpat:xmltok.obj
 0001:00017580       big2_nameLength            0000000180018580 f   libexpat:xmltok.obj
 0001:00017610       $LN30                      0000000180018610     libexpat:xmltok.obj
 0001:00017620       $LN29                      0000000180018620     libexpat:xmltok.obj
 0001:00017640       big2_skipS                 0000000180018640 f   libexpat:xmltok.obj
 0001:00017670       big2_updatePosition        0000000180018670 f   libexpat:xmltok.obj
 0001:00017790       initUpdatePosition         0000000180018790 f   libexpat:xmltok.obj
 0001:00017850       toAscii                    0000000180018850 f   libexpat:xmltok.obj
 0001:000178a0       parsePseudoAttribute       00000001800188a0 f   libexpat:xmltok.obj
 0001:00017bc0       doParseXmlDecl             0000000180018bc0 f   libexpat:xmltok.obj
 0001:00017fb0       unknown_isName             0000000180018fb0 f   libexpat:xmltok.obj
 0001:00018020       unknown_isNmstrt           0000000180019020 f   libexpat:xmltok.obj
 0001:00018090       unknown_isInvalid          0000000180019090 f   libexpat:xmltok.obj
 0001:00018100       unknown_toUtf8             0000000180019100 f   libexpat:xmltok.obj
 0001:000182a0       unknown_toUtf16            00000001800192a0 f   libexpat:xmltok.obj
 0001:00018710       getEncodingIndex           0000000180019710 f   libexpat:xmltok.obj
 0001:000187a0       initScanProlog             00000001800197a0 f   libexpat:xmltok.obj
 0001:00018910       initScanContent            0000000180019910 f   libexpat:xmltok.obj
 0001:00018b30       findEncoding               0000000180019b30 f   libexpat:xmltok.obj
 0001:00018cf0       initScanPrologNS           0000000180019cf0 f   libexpat:xmltok.obj
 0001:00018e60       initScanContentNS          0000000180019e60 f   libexpat:xmltok.obj
 0001:00019080       findEncodingNS             000000018001a080 f   libexpat:xmltok.obj
 0001:00019260       prolog0                    000000018001a260 f   libexpat:xmlrole.obj
 0001:00019388       $LN16                      000000018001a388     libexpat:xmlrole.obj
 0001:000193e0       prolog1                    000000018001a3e0 f   libexpat:xmlrole.obj
 0001:000194d0       $LN15                      000000018001a4d0     libexpat:xmlrole.obj
 0001:00019520       prolog2                    000000018001a520 f   libexpat:xmlrole.obj
 0001:00019580       doctype0                   000000018001a580 f   libexpat:xmlrole.obj
 0001:000195d0       doctype1                   000000018001a5d0 f   libexpat:xmlrole.obj
 0001:000196d0       doctype2                   000000018001a6d0 f   libexpat:xmlrole.obj
 0001:00019710       doctype3                   000000018001a710 f   libexpat:xmlrole.obj
 0001:00019750       doctype4                   000000018001a750 f   libexpat:xmlrole.obj
 0001:000197b0       doctype5                   000000018001a7b0 f   libexpat:xmlrole.obj
 0001:000197f0       internalSubset             000000018001a7f0 f   libexpat:xmlrole.obj
 0001:0001997c       $LN20                      000000018001a97c     libexpat:xmlrole.obj
 0001:00019998       $LN19                      000000018001a998     libexpat:xmlrole.obj
 0001:000199c0       externalSubset1            000000018001a9c0 f   libexpat:xmlrole.obj
 0001:00019a20       entity0                    000000018001aa20 f   libexpat:xmlrole.obj
 0001:00019a70       entity1                    000000018001aa70 f   libexpat:xmlrole.obj
 0001:00019ab0       entity2                    000000018001aab0 f   libexpat:xmlrole.obj
 0001:00019b90       entity3                    000000018001ab90 f   libexpat:xmlrole.obj
 0001:00019bd0       entity4                    000000018001abd0 f   libexpat:xmlrole.obj
 0001:00019c10       entity5                    000000018001ac10 f   libexpat:xmlrole.obj
 0001:00019cd0       entity6                    000000018001acd0 f   libexpat:xmlrole.obj
 0001:00019d20       entity7                    000000018001ad20 f   libexpat:xmlrole.obj
 0001:00019e00       entity8                    000000018001ae00 f   libexpat:xmlrole.obj
 0001:00019e40       entity9                    000000018001ae40 f   libexpat:xmlrole.obj
 0001:00019e80       entity10                   000000018001ae80 f   libexpat:xmlrole.obj
 0001:00019ed0       notation0                  000000018001aed0 f   libexpat:xmlrole.obj
 0001:00019f10       notation1                  000000018001af10 f   libexpat:xmlrole.obj
 0001:00019fd0       notation2                  000000018001afd0 f   libexpat:xmlrole.obj
 0001:0001a010       notation3                  000000018001b010 f   libexpat:xmlrole.obj
 0001:0001a060       notation4                  000000018001b060 f   libexpat:xmlrole.obj
 0001:0001a0d0       attlist0                   000000018001b0d0 f   libexpat:xmlrole.obj
 0001:0001a120       attlist1                   000000018001b120 f   libexpat:xmlrole.obj
 0001:0001a190       attlist2                   000000018001b190 f   libexpat:xmlrole.obj
 0001:0001a2b0       attlist3                   000000018001b2b0 f   libexpat:xmlrole.obj
 0001:0001a300       attlist4                   000000018001b300 f   libexpat:xmlrole.obj
 0001:0001a350       attlist5                   000000018001b350 f   libexpat:xmlrole.obj
 0001:0001a390       attlist6                   000000018001b390 f   libexpat:xmlrole.obj
 0001:0001a3d0       attlist7                   000000018001b3d0 f   libexpat:xmlrole.obj
 0001:0001a420       attlist8                   000000018001b420 f   libexpat:xmlrole.obj
 0001:0001a550       attlist9                   000000018001b550 f   libexpat:xmlrole.obj
 0001:0001a590       element0                   000000018001b590 f   libexpat:xmlrole.obj
 0001:0001a5e0       element1                   000000018001b5e0 f   libexpat:xmlrole.obj
 0001:0001a6e0       element2                   000000018001b6e0 f   libexpat:xmlrole.obj
 0001:0001a828       $LN17                      000000018001b828     libexpat:xmlrole.obj
 0001:0001a848       $LN16                      000000018001b848     libexpat:xmlrole.obj
 0001:0001a870       element3                   000000018001b870 f   libexpat:xmlrole.obj
 0001:0001a8f0       element4                   000000018001b8f0 f   libexpat:xmlrole.obj
 0001:0001a940       element5                   000000018001b940 f   libexpat:xmlrole.obj
 0001:0001a9a0       element6                   000000018001b9a0 f   libexpat:xmlrole.obj
 0001:0001aa38       $LN15                      000000018001ba38     libexpat:xmlrole.obj
 0001:0001aa54       $LN14                      000000018001ba54     libexpat:xmlrole.obj
 0001:0001aa70       element7                   000000018001ba70 f   libexpat:xmlrole.obj
 0001:0001ab58       $LN20                      000000018001bb58     libexpat:xmlrole.obj
 0001:0001ab78       $LN19                      000000018001bb78     libexpat:xmlrole.obj
 0001:0001ab90       condSect0                  000000018001bb90 f   libexpat:xmlrole.obj
 0001:0001ac50       condSect1                  000000018001bc50 f   libexpat:xmlrole.obj
 0001:0001ac90       condSect2                  000000018001bc90 f   libexpat:xmlrole.obj
 0001:0001acd0       declClose                  000000018001bcd0 f   libexpat:xmlrole.obj
 0001:0001b030       $$000000                   000000018001c030     LIBCMT:_amdsecgs_.obj
 0001:0001b0b0       ?dllmain_crt_dispatch@@YAHQEAUHINSTANCE__@@KQEAX@Z 000000018001c0b0 f   LIBCMT:dll_dllmain.obj
 0001:0001b100       ?dllmain_crt_process_attach@@YAHQEAUHINSTANCE__@@QEAX@Z 000000018001c100 f   LIBCMT:dll_dllmain.obj
 0001:0001b22c       ?dllmain_crt_process_detach@@YAH_N@Z 000000018001c22c f   LIBCMT:dll_dllmain.obj
 0001:0001b2b0       ?dllmain_dispatch@@YAHQEAUHINSTANCE__@@KQEAX@Z 000000018001c2b0 f   LIBCMT:dll_dllmain.obj
 0001:0001b3cc       ?dllmain_raw@@YAHQEAUHINSTANCE__@@KQEAX@Z 000000018001c3cc f   LIBCMT:dll_dllmain.obj
 0001:0001b618       capture_current_context    000000018001c618 f   LIBCMT:gs_report.obj
 0001:0001b688       capture_previous_context   000000018001c688 f   LIBCMT:gs_report.obj
 0001:0001c180       $$000000                   000000018001d180     libvcruntime:memcpy.obj
 0001:0001c227       MoveSmall                  000000018001d227     libvcruntime:memcpy.obj
 0001:0001c5c8       _TlgDefineProvider_annotation__Tlg_Microsoft_CRTProviderProv 000000018001d5c8 f   libvcruntime:telemetry.obj
 0001:0001cc90       $$000000                   000000018001dc90     libvcruntime:memset.obj
 0001:0001cd7c       MsetTab                    000000018001dd7c     libvcruntime:memset.obj
 0001:0001ce40       ?try_get_function@@YAPEAXW4function_id@?A0x49c8dc86@@QEBDQEBW4module_id@2@2@Z 000000018001de40 f   libvcruntime:winapi_downlevel.obj
 0001:0001d450       $$000000                   000000018001e450     libvcruntime:_jmpuwind_.obj
 0001:0001d6fc       ??$common_assert_to_message_box@_W@@YAXQEB_W0IQEAX@Z 000000018001e6fc f   libucrt:assert.obj
 0001:0001d7c0       ??$common_assert_to_message_box_build_string@_W@@YAXQEA_W_KQEB_W2IQEAX@Z 000000018001e7c0 f   libucrt:assert.obj
 0001:0001df94       ??$common_assert_to_stderr@_W@@YAXQEB_W0I@Z 000000018001ef94 f   libucrt:assert.obj
 0001:0001e104       ?get_assert_format@@YAPEB_W_W@Z 000000018001f104 f   libucrt:assert.obj
 0001:0001e6e4       ?atexit_exception_filter@@YAHK@Z 000000018001f6e4 f   libucrt:exit.obj
 0001:0001e6f0       ?common_exit@@YAXHW4_crt_exit_cleanup_mode@@W4_crt_exit_return_mode@@@Z 000000018001f6f0 f   libucrt:exit.obj
 0001:0001e85c       ?exit_or_terminate_process@@YAXI@Z 000000018001f85c f   libucrt:exit.obj
 0001:0001e8a8       ?try_cor_exit_process@@YAXI@Z 000000018001f8a8 f   libucrt:exit.obj
 0001:0001e940       ??$parse_command_line@D@@YAXPEADPEAPEAD0PEA_K2@Z 000000018001f940 f   libucrt:argv_parsing.obj
 0001:0001ecd8       ??$common_initialize_environment_nolock@D@@YAHXZ 000000018001fcd8 f   libucrt:environment_initialization.obj
 0001:0001ed44       ??$create_environment@D@@YAQEAPEADQEAD@Z 000000018001fd44 f   libucrt:environment_initialization.obj
 0001:0001ee40       ??$free_environment@D@@YAXQEAPEAD@Z 000000018001fe40 f   libucrt:environment_initialization.obj
 0001:0001ee40       ??$free_environment@_W@@YAXQEAPEA_W@Z 000000018001fe40 f   libucrt:environment_initialization.obj
 0001:0001ee84       ??$uninitialize_environment_internal@D@@YAXAEAPEAPEAD@Z 000000018001fe84 f   libucrt:environment_initialization.obj
 0001:0001eea0       ??$uninitialize_environment_internal@_W@@YAXAEAPEAPEA_W@Z 000000018001fea0 f   libucrt:environment_initialization.obj
 0001:0001f0d8       ??R<lambda_4e60a939b0d047cfe11ddc22648dfba9>@@QEBAHXZ 00000001800200d8 f   libucrt:onexit.obj
 0001:0001f388       initialize_global_variables 0000000180020388 f   libucrt:initialization.obj
 0001:0001f39c       initialize_c               000000018002039c f   libucrt:initialization.obj
 0001:0001f3c0       uninitialize_environment   00000001800203c0 f   libucrt:initialization.obj
 0001:0001f3d0       uninitialize_global_state_isolation 00000001800203d0 f   libucrt:initialization.obj
 0001:0001f3d0       uninitialize_c             00000001800203d0 f   libucrt:initialization.obj
 0001:0001f3d0       initialize_environment     00000001800203d0 f   libucrt:initialization.obj
 0001:0001f3d0       initialize_global_state_isolation 00000001800203d0 f   libucrt:initialization.obj
 0001:0001f3d0       report_memory_leaks        00000001800203d0 f   libucrt:initialization.obj
 0001:0001f3d4       initialize_pointers        00000001800203d4 f   libucrt:initialization.obj
 0001:0001f428       uninitialize_vcruntime     0000000180020428 f   libucrt:initialization.obj
 0001:0001f430       uninitialize_allocated_memory 0000000180020430 f   libucrt:initialization.obj
 0001:0001fafc       ??R<lambda_dd75445284c072d0bd3768540cc698fa>@@QEBAHXZ 0000000180020afc f   libucrt:output.obj
 0001:00022220       ??$common_xtox@K_W@@YAHKQEA_W_KI_N@Z 0000000180023220 f   libucrt:xtoa.obj
 0001:000222cc       ??$common_xtox_s@K_W@@YAHKQEA_W_KI_N@Z 00000001800232cc f   libucrt:xtoa.obj
 0001:00022590       ??$message_box_wait_thread@_W@@YAKQEAX@Z 0000000180023590 f   libucrt:crtmbox.obj
 0001:0002294c       common_flush_all           000000018002394c f   libucrt:fflush.obj
 0001:00022ab4       ??R<lambda_b721fa326cdb32351d23dfa67958c160>@@QEBAHXZ 0000000180023ab4 f   libucrt:setvbuf.obj
 0001:00022f78       ?internal_isupper_l@@YA_NHQEAU__crt_locale_pointers@@@Z 0000000180023f78 f   libucrt:tolower_toupper.obj
 0001:0002325c       ?construct_ptd_array@@YAXQEAU__acrt_ptd@@@Z 000000018002425c f   libucrt:per_thread_data.obj
 0001:0002332c       ?destroy_fls@@YAXPEAX@Z    000000018002432c f   libucrt:per_thread_data.obj
 0001:0002334c       ?destroy_ptd_array@@YAXQEAU__acrt_ptd@@@Z 000000018002434c f   libucrt:per_thread_data.obj
 0001:00023444       ?replace_current_thread_locale_nolock@@YAXQEAU__acrt_ptd@@QEAU__crt_locale_data@@@Z 0000000180024444 f   libucrt:per_thread_data.obj
 0001:0002387c       ?try_get_function@@YAPEAXW4function_id@?A0x63058377@@QEBDQEBW4module_id@2@2@Z 000000018002487c f   libucrt:winapi_thunks.obj
 0001:000240a8       ?<helper_func_cdecl>@<lambda_2feae5270eb4d0d5532525f423405775>@@CAHPEBX0@Z 00000001800250a8 f   libucrt:argv_wildcards.obj
 0001:000240bc       ??$common_expand_argv_wildcards@D@@YAHQEAPEADQEAPEAPEAD@Z 00000001800250bc f   libucrt:argv_wildcards.obj
 0001:000242c8       ??$copy_and_add_argument_to_buffer@D@@YAHQEBD0_KAEAV?$argument_list@D@?A0xca0879c4@@@Z 00000001800252c8 f   libucrt:argv_wildcards.obj
 0001:000243d8       ??$expand_argument_wildcards@D@@YAHQEAD0AEAV?$argument_list@D@?A0xca0879c4@@@Z 00000001800253d8 f   libucrt:argv_wildcards.obj
 0001:0002468c       ??R<lambda_ad1ced32f4ac17aa236e5ef05d6b3b7c>@@QEBAXXZ 000000018002568c f   libucrt:mbctype.obj
 0001:000248a4       ?getSystemCP@@YAHH@Z       00000001800258a4 f   libucrt:mbctype.obj
 0001:00024924       ?setSBCS@@YAXPEAU__crt_multibyte_data@@@Z 0000000180025924 f   libucrt:mbctype.obj
 0001:000249b4       ?setSBUpLow@@YAXPEAU__crt_multibyte_data@@@Z 00000001800259b4 f   libucrt:mbctype.obj
 0001:00024b98       ?setmbcp_internal@@YAHH_N@Z 0000000180025b98 f   libucrt:mbctype.obj
 0001:000250e0       ?x_ismbbtype_l@@YAHPEAU__crt_locale_pointers@@IHH@Z 00000001800260e0 f   libucrt:ismbbyte.obj
 0001:00025360       ?initialize_inherited_file_handles_nolock@@YAXXZ 0000000180026360 f   libucrt:ioinit.obj
 0001:0002544c       ?initialize_stdio_handles_nolock@@YAXXZ 000000018002644c f   libucrt:ioinit.obj
 0001:00025e24       ?fp_format_a@@YAHQEBNPEAD_KQEAD2H_NIQEAU__crt_locale_pointers@@@Z 0000000180026e24 f   libucrt:cvt.obj
 0001:00026184       ?fp_format_e@@YAHQEBNQEAD_K12H_NIQEAU__crt_locale_pointers@@@Z 0000000180027184 f   libucrt:cvt.obj
 0001:00026254       ?fp_format_e_internal@@YAHQEAD_KH_NIQEAU_strflt@@2QEAU__crt_locale_pointers@@@Z 0000000180027254 f   libucrt:cvt.obj
 0001:00026430       ?fp_format_f_internal@@YAHQEAD_KHQEAU_strflt@@_NQEAU__crt_locale_pointers@@@Z 0000000180027430 f   libucrt:cvt.obj
 0001:00026578       ?fp_format_g@@YAHQEBNQEAD_K12H_NIQEAU__crt_locale_pointers@@@Z 0000000180027578 f   libucrt:cvt.obj
 0001:000266b0       ?fp_format_nan_or_infinity@@YAHW4__acrt_fp_class@@_NPEAD_K1@Z 00000001800276b0 f   libucrt:cvt.obj
 0001:00026fd0       ?write_double_translated_ansi_nolock@@YA?AUwrite_result@?A0x9c548279@@HQEBDI@Z 0000000180027fd0 f   libucrt:write.obj
 0001:000271d8       ?write_text_ansi_nolock@@YA?AUwrite_result@?A0x9c548279@@HQEBDI@Z 00000001800281d8 f   libucrt:write.obj
 0001:000272e0       ?write_text_utf16le_nolock@@YA?AUwrite_result@?A0x9c548279@@HQEBDI@Z 00000001800282e0 f   libucrt:write.obj
 0001:000273fc       ?write_text_utf8_nolock@@YA?AUwrite_result@?A0x9c548279@@HQEBDI@Z 00000001800283fc f   libucrt:write.obj
 0001:00027980       ?__acrt_LCMapStringA_stat@@YAHPEAU__crt_locale_pointers@@PEB_WKPEBDHPEADHHH@Z 0000000180028980 f   libucrt:lcmapstringa.obj
 0001:000282f8       ?free_crt_array_internal@@YAXQEAPEBX_K@Z 00000001800292f8 f   libucrt:inittime.obj
 0001:0002860c       ?GetTableIndexFromLocaleName@@YAHPEB_W@Z 000000018002960c f   libucrt:lcidtoname_downlevel.obj
 0001:00028710       ?shortsort@@YAXPEAD0_KP6AHPEBX2@Z@Z 0000000180029710 f   libucrt:qsort.obj
 0001:00028d28       ?initialize_multibyte@@YAHXZ 0000000180029d28 f   libucrt:multibyte_initializer.obj
 0001:0002a9fc       memcpy_s                   000000018002b9fc f   libucrt:cfout.obj
 0001:0002aa84       ??$write_buffer_nolock@D@@YA_NDV__crt_stdio_stream@@@Z 000000018002ba84 f   libucrt:_flsbuf.obj
 0001:0002ab88       ??$write_buffer_nolock@_W@@YA_N_WV__crt_stdio_stream@@@Z 000000018002bb88 f   libucrt:_flsbuf.obj
 0001:0002af58       ??$common_lseek@_J@@YA_JH_JH@Z 000000018002bf58 f   libucrt:lseek.obj
 0001:0002b048       ??$common_lseek_nolock@_J@@YA_JH_JH@Z 000000018002c048 f   libucrt:lseek.obj
 0001:0002b2f0       $$000000                   000000018002c2f0     libucrt:log10.obj
 0001:0002bca4       common_control87           000000018002cca4 f   libucrt:ieee.obj
 0001:0002bf3c       _call_matherr              000000018002cf3c f   libucrt:libm_error.obj
 0001:0002bfa4       _exception_enabled         000000018002cfa4 f   libucrt:libm_error.obj
 0001:0002c240       _log_special_common        000000018002d240 f   libucrt:log_special.obj
 0001:0002c2e0       $$000000                   000000018002d2e0     libucrt:fpsr.obj
 0001:0002cf90       $$000000                   000000018002df90     LIBCMT:_chkstk_.obj
 0001:0002d000       $$000000                   000000018002e000     libvcruntime:memcmp.obj
 0001:0002d220       $$000000                   000000018002e220     LIBCMT:_guard_dispatch_.obj
 0001:0002d240       ?fin$0@?0??dllmain_crt_process_attach@@YAHQEAUHINSTANCE__@@QEAX@Z@4HA 000000018002e240 f   LIBCMT:dll_dllmain.obj
 0001:0002d257       ?fin$0@?0??dllmain_crt_process_detach@@YAH_N@Z@4HA 000000018002e257 f   LIBCMT:dll_dllmain.obj
 0001:0002d273       ?filt$0@?0??dllmain_dispatch@@YAHQEAUHINSTANCE__@@KQEAX@Z@4HA 000000018002e273 f   LIBCMT:dll_dllmain.obj
 0001:0002d2a9       __scrt_is_nonwritable_in_current_image$filt$0 000000018002e2a9 f   LIBCMT:utility.obj
 0001:0002d2c1       _query_new_handler$fin$0   000000018002e2c1 f   libucrt:new_handler.obj
 0001:0002d2d7       ?filt$0@?0??common_exit@@YAXHW4_crt_exit_cleanup_mode@@W4_crt_exit_return_mode@@@Z@4HA 000000018002e2d7 f   libucrt:exit.obj
 0001:0002d2f2       ?fin$1@?0??common_exit@@YAXHW4_crt_exit_cleanup_mode@@W4_crt_exit_return_mode@@@Z@4HA 000000018002e2f2 f   libucrt:exit.obj
 0001:0002d30b       ?fin$0@?0???$?RV<lambda_e24bbb7b643b32fcea6fa61b31d4c984>@@AEAV<lambda_275893d493268fdec8709772e3fcec0e>@@V<lambda_9d71df4d7cf3f480f8d633942495c3b0>@@@?$__crt_seh_guarded_call@H@@QEAAH$$QEAV<lambda_e24bbb7b643b32fcea6fa61b31d4c984>@@AEAV<lambda_275893d493268fdec8709772e3fcec0e>@@$$QEAV<lambda_9d71df4d7cf3f480f8d633942495c3b0>@@@Z@4HA 000000018002e30b f   libucrt:onexit.obj
 0001:0002d328       ?fin$0@?0???$?RV<lambda_7b91131dde12e1c3dfc74ff76b3f2eac>@@AEAV<lambda_dd75445284c072d0bd3768540cc698fa>@@V<lambda_16bc4ecb55b4718497c16bceaea2ceaf>@@@?$__crt_seh_guarded_call@H@@QEAAH$$QEAV<lambda_7b91131dde12e1c3dfc74ff76b3f2eac>@@AEAV<lambda_dd75445284c072d0bd3768540cc698fa>@@$$QEAV<lambda_16bc4ecb55b4718497c16bceaea2ceaf>@@@Z@4HA 000000018002e328 f   libucrt:output.obj
 0001:0002d328       ?fin$0@?0???$?RV<lambda_7a5ef57ff966f610505f1d28a3d40618>@@AEAV<lambda_b721fa326cdb32351d23dfa67958c160>@@V<lambda_5e0fb27672408a07956fe59e48ccb2aa>@@@?$__crt_seh_guarded_call@H@@QEAAH$$QEAV<lambda_7a5ef57ff966f610505f1d28a3d40618>@@AEAV<lambda_b721fa326cdb32351d23dfa67958c160>@@$$QEAV<lambda_5e0fb27672408a07956fe59e48ccb2aa>@@@Z@4HA 000000018002e328 f   libucrt:setvbuf.obj
 0001:0002d343       common_flush_all$fin$0     000000018002e343 f   libucrt:fflush.obj
 0001:0002d35d       common_flush_all$fin$1     000000018002e35d f   libucrt:fflush.obj
 0001:0002d376       fflush$fin$0               000000018002e376 f   libucrt:fflush.obj
 0001:0002d376       fclose$fin$0               000000018002e376 f   libucrt:fclose.obj
 0001:0002d38e       raise$fin$0                000000018002e38e f   libucrt:signal.obj
 0001:0002d3b2       __acrt_update_thread_locale_data$fin$0 000000018002e3b2 f   libucrt:locale_refcounting.obj
 0001:0002d3b2       __acrt_uninitialize_locale$fin$0 000000018002e3b2 f   libucrt:wsetlocale.obj
 0001:0002d3cb       ?fin$0@?0???$?RV<lambda_b8c45f8f788dd370798f47cfe8ac3a86>@@AEAV<lambda_4e60a939b0d047cfe11ddc22648dfba9>@@V<lambda_332c3edc96d0294ec56c57d38c1cdfd5>@@@?$__crt_seh_guarded_call@H@@QEAAH$$QEAV<lambda_b8c45f8f788dd370798f47cfe8ac3a86>@@AEAV<lambda_4e60a939b0d047cfe11ddc22648dfba9>@@$$QEAV<lambda_332c3edc96d0294ec56c57d38c1cdfd5>@@@Z@4HA 000000018002e3cb f   libucrt:onexit.obj
 0001:0002d3cb       ?fin$0@?0???$?RV<lambda_fb3a7dec4e47f37f22dae91bb15c9095>@@AEAV<lambda_698284760c8add0bfb0756c19673e34b>@@V<lambda_dfb8eca1e75fef3034a8fb18dd509707>@@@?$__crt_seh_guarded_call@X@@QEAAX$$QEAV<lambda_fb3a7dec4e47f37f22dae91bb15c9095>@@AEAV<lambda_698284760c8add0bfb0756c19673e34b>@@$$QEAV<lambda_dfb8eca1e75fef3034a8fb18dd509707>@@@Z@4HA 000000018002e3cb f   libucrt:per_thread_data.obj
 0001:0002d3cb       ?fin$0@?0???$?RV<lambda_46352004c1216016012b18bd6f87e700>@@AEAV<lambda_3bd07e1a1191394380780325891bf33f>@@V<lambda_334532d3f185bcaa59b5be82d7d22bff>@@@?$__crt_seh_guarded_call@X@@QEAAX$$QEAV<lambda_46352004c1216016012b18bd6f87e700>@@AEAV<lambda_3bd07e1a1191394380780325891bf33f>@@$$QEAV<lambda_334532d3f185bcaa59b5be82d7d22bff>@@@Z@4HA 000000018002e3cb f   libucrt:per_thread_data.obj
 0001:0002d3cb       ?fin$0@?0???$?RV<lambda_99476a1ad63dd22509b5d3e65b0ffc95>@@AEAV<lambda_ad1ced32f4ac17aa236e5ef05d6b3b7c>@@V<lambda_f7424dd8d45958661754dc4f2697e9c3>@@@?$__crt_seh_guarded_call@X@@QEAAX$$QEAV<lambda_99476a1ad63dd22509b5d3e65b0ffc95>@@AEAV<lambda_ad1ced32f4ac17aa236e5ef05d6b3b7c>@@$$QEAV<lambda_f7424dd8d45958661754dc4f2697e9c3>@@@Z@4HA 000000018002e3cb f   libucrt:mbctype.obj
 0001:0002d3cb       ?fin$0@?0???$?RV<lambda_5e887d1dcbef67a5eb4283622ba103bf>@@AEAV<lambda_4466841279450cc726390878d4a41900>@@V<lambda_341c25c0346d94847f1f3c463c57e077>@@@?$__crt_seh_guarded_call@X@@QEAAX$$QEAV<lambda_5e887d1dcbef67a5eb4283622ba103bf>@@AEAV<lambda_4466841279450cc726390878d4a41900>@@$$QEAV<lambda_341c25c0346d94847f1f3c463c57e077>@@@Z@4HA 000000018002e3cb f   libucrt:per_thread_data.obj
 0001:0002d3cb       ?fin$0@?0???$?RV<lambda_c36588078e9f5dfd39652860aa6b3aaf>@@AEAV<lambda_ec61778202f4f5fc7e7711acc23c3bca>@@V<lambda_dc9d2797ccde5d239b4a0efae8ebd7db>@@@?$__crt_seh_guarded_call@P6AXH@Z@@QEAAP6AXH@Z$$QEAV<lambda_c36588078e9f5dfd39652860aa6b3aaf>@@AEAV<lambda_ec61778202f4f5fc7e7711acc23c3bca>@@$$QEAV<lambda_dc9d2797ccde5d239b4a0efae8ebd7db>@@@Z@4HA 000000018002e3cb f   libucrt:signal.obj
 0001:0002d3cb       ?fin$0@?0???$?RV<lambda_72d1df2b273a38828b1ce30cbf4cdab5>@@AEAV<lambda_876a65b173b8412d3a47c70a915b0cf4>@@V<lambda_41932305e351933ebe8f8be3ed8bb5dc>@@@?$__crt_seh_guarded_call@X@@QEAAX$$QEAV<lambda_72d1df2b273a38828b1ce30cbf4cdab5>@@AEAV<lambda_876a65b173b8412d3a47c70a915b0cf4>@@$$QEAV<lambda_41932305e351933ebe8f8be3ed8bb5dc>@@@Z@4HA 000000018002e3cb f   libucrt:per_thread_data.obj
 0001:0002d3e5       __acrt_update_thread_multibyte_data$fin$0 000000018002e3e5 f   libucrt:mbctype.obj
 0001:0002d3fe       __acrt_lowio_ensure_fh_exists$fin$0 000000018002e3fe f   libucrt:osfinfo.obj
 0001:0002d3fe       __acrt_initialize_lowio$fin$0 000000018002e3fe f   libucrt:ioinit.obj
 0001:0002d417       _fcloseall$fin$0           000000018002e417 f   libucrt:closeall.obj
 0001:0002d430       _write$fin$0               000000018002e430 f   libucrt:write.obj
 0001:0002d430       ?fin$0@?0???$common_lseek@_J@@YA_JH_JH@Z@4HA 000000018002e430 f   libucrt:lseek.obj
 0001:0002d447       ?fin$0@?0???$?RV<lambda_bfedae4ebbf01fab1bb6dcc6a9e276e0>@@AEAV<lambda_2fe9b910cf3cbf4a0ab98a02ba45b3ec>@@V<lambda_237c231691f317818eb88cc1d5d642d6>@@@?$__crt_seh_guarded_call@H@@QEAAH$$QEAV<lambda_bfedae4ebbf01fab1bb6dcc6a9e276e0>@@AEAV<lambda_2fe9b910cf3cbf4a0ab98a02ba45b3ec>@@$$QEAV<lambda_237c231691f317818eb88cc1d5d642d6>@@@Z@4HA 000000018002e447 f   libucrt:close.obj
 0001:0002d447       ?fin$0@?0???$?RV<lambda_b521505b218e5242e90febf6bfebc422>@@AEAV<lambda_6978c1fb23f02e42e1d9e99668cc68aa>@@V<lambda_314360699dd331753a4119843814e9a7>@@@?$__crt_seh_guarded_call@H@@QEAAH$$QEAV<lambda_b521505b218e5242e90febf6bfebc422>@@AEAV<lambda_6978c1fb23f02e42e1d9e99668cc68aa>@@$$QEAV<lambda_314360699dd331753a4119843814e9a7>@@@Z@4HA 000000018002e447 f   libucrt:commit.obj
 0001:0002d461       common_control87$filt$0    000000018002e461 f   libucrt:ieee.obj
 0001:0002d461       _ctrlfp$filt$0             000000018002e461 f   libucrt:fpctrl.obj
 0001:0002d490       _IsNonwritableInCurrentImage$filt$0 000000018002e490 f   LIBCMT:pesect.obj
 0002:00000318       GS_ExceptionPointers       000000018002f318     LIBCMT:gs_report.obj
 0002:000003f0       ?ExceptionTemplate@?1??_CxxThrowException@@9@4UEHExceptionRecord@@B 000000018002f3f0     libvcruntime:throw.obj
 0002:00000430       ?module_names@?A0x49c8dc86@@3QBQEB_WB 000000018002f430     libvcruntime:winapi_downlevel.obj
 0002:000004fc       ?candidate_modules@?1??try_get_EventRegister@@YAP6AKPEBU_GUID@@P6AX0KE_K1PEAU_EVENT_FILTER_DESCRIPTOR@@PEAX@Z3PEA_K@ZXZ@4QBW4module_id@?A0x49c8dc86@@B 000000018002f4fc     libvcruntime:winapi_downlevel.obj
 0002:00000510       ?candidate_modules@?1??try_get_EventSetInformation@@YAP6AK_KW4_EVENT_INFO_CLASS@@PEAXK@ZXZ@4QBW4module_id@?A0x49c8dc86@@B 000000018002f510     libvcruntime:winapi_downlevel.obj
 0002:0000052c       ?candidate_modules@?1??try_get_EventUnregister@@YAP6AK_K@ZXZ@4QBW4module_id@?A0x49c8dc86@@B 000000018002f52c     libvcruntime:winapi_downlevel.obj
 0002:00000540       ?candidate_modules@?1??try_get_EventWriteTransfer@@YAP6AK_KPEBU_EVENT_DESCRIPTOR@@PEBU_GUID@@2KPEAU_EVENT_DATA_DESCRIPTOR@@@ZXZ@4QBW4module_id@?A0x49c8dc86@@B 000000018002f540     libvcruntime:winapi_downlevel.obj
 0002:00000560       ?candidate_modules@?1??try_get_FlsAlloc@@YAP6AKP6AXPEAX@Z@ZXZ@4QBW4module_id@?A0x49c8dc86@@B 000000018002f560     libvcruntime:winapi_downlevel.obj
 0002:00000578       ?candidate_modules@?1??try_get_FlsFree@@YAP6AHK@ZXZ@4QBW4module_id@?A0x49c8dc86@@B 000000018002f578     libvcruntime:winapi_downlevel.obj
 0002:00000588       ?candidate_modules@?1??try_get_FlsGetValue@@YAP6APEAXK@ZXZ@4QBW4module_id@?A0x49c8dc86@@B 000000018002f588     libvcruntime:winapi_downlevel.obj
 0002:000005a0       ?candidate_modules@?1??try_get_FlsSetValue@@YAP6AHKPEAX@ZXZ@4QBW4module_id@?A0x49c8dc86@@B 000000018002f5a0     libvcruntime:winapi_downlevel.obj
 0002:000005b8       ?candidate_modules@?1??try_get_InitializeCriticalSectionEx@@YAP6AHPEAU_RTL_CRITICAL_SECTION@@KK@ZXZ@4QBW4module_id@?A0x49c8dc86@@B 000000018002f5b8     libvcruntime:winapi_downlevel.obj
 0002:000005e0       ?tokenTable@@3QBQEBDB      000000018002f5e0     libvcruntime:undname.obj
 0002:00000650       ?nameTable@@3QBQEBDB       000000018002f650     libvcruntime:undname.obj
 0002:000008d8       ?rttiTable@@3QBQEBDB       000000018002f8d8     libvcruntime:undname.obj
 0002:00001340       __acrt_initializers        0000000180030340     libucrt:initialization.obj
 0002:000014b0       errtable                   00000001800304b0     libucrt:errno.obj
 0002:00001ca0       module_names               0000000180030ca0     libucrt:winapi_thunks.obj
 0002:000021d0       ?candidate_modules@?1??try_get_FlsAlloc@@YAP6AKP6AXPEAX@Z@ZXZ@4QBW4module_id@?A0x63058377@@B 00000001800311d0     libucrt:winapi_thunks.obj
 0002:000021d8       ?candidate_modules@?1??try_get_FlsFree@@YAP6AHK@ZXZ@4QBW4module_id@?A0x63058377@@B 00000001800311d8     libucrt:winapi_thunks.obj
 0002:000021e0       ?candidate_modules@?1??try_get_FlsGetValue@@YAP6APEAXK@ZXZ@4QBW4module_id@?A0x63058377@@B 00000001800311e0     libucrt:winapi_thunks.obj
 0002:000021e8       ?candidate_modules@?1??try_get_FlsSetValue@@YAP6AHKPEAX@ZXZ@4QBW4module_id@?A0x63058377@@B 00000001800311e8     libucrt:winapi_thunks.obj
 0002:000021f0       ?candidate_modules@?1??try_get_GetActiveWindow@@YAP6APEAUHWND__@@XZXZ@4QBW4module_id@?A0x63058377@@B 00000001800311f0     libucrt:winapi_thunks.obj
 0002:00002208       ?candidate_modules@?1??try_get_GetCurrentPackageId@@YAP6AJPEAIPEAE@ZXZ@4QBW4module_id@?A0x63058377@@B 0000000180031208     libucrt:winapi_thunks.obj
 0002:00002228       ?candidate_modules@?1??try_get_GetLastActivePopup@@YAP6APEAUHWND__@@PEAU2@@ZXZ@4QBW4module_id@?A0x63058377@@B 0000000180031228     libucrt:winapi_thunks.obj
 0002:00002248       ?candidate_modules@?1??try_get_GetProcessWindowStation@@YAP6APEAUHWINSTA__@@XZXZ@4QBW4module_id@?A0x63058377@@B 0000000180031248     libucrt:winapi_thunks.obj
 0002:00002268       ?candidate_modules@?1??try_get_GetUserObjectInformationW@@YAP6AHPEAXH0KPEAK@ZXZ@4QBW4module_id@?A0x63058377@@B 0000000180031268     libucrt:winapi_thunks.obj
 0002:00002290       ?candidate_modules@?1??try_get_InitializeCriticalSectionEx@@YAP6AHPEAU_RTL_CRITICAL_SECTION@@KK@ZXZ@4QBW4module_id@?A0x63058377@@B 0000000180031290     libucrt:winapi_thunks.obj
 0002:00002298       ?candidate_modules@?1??try_get_LCMapStringEx@@YAP6AHPEB_WK0HPEA_WHPEAU_nlsversioninfo@@PEAX_J@ZXZ@4QBW4module_id@?A0x63058377@@B 0000000180031298     libucrt:winapi_thunks.obj
 0002:000022b0       ?candidate_modules@?1??try_get_LocaleNameToLCID@@YAP6AKPEB_WK@ZXZ@4QBW4module_id@?A0x63058377@@B 00000001800312b0     libucrt:winapi_thunks.obj
 0002:000022d0       ?candidate_modules@?1??try_get_MessageBoxA@@YAP6AHPEAUHWND__@@PEBD1I@ZXZ@4QBW4module_id@?A0x63058377@@B 00000001800312d0     libucrt:winapi_thunks.obj
 0002:000022e8       ?candidate_modules@?1??try_get_MessageBoxW@@YAP6AHPEAUHWND__@@PEB_W1I@ZXZ@4QBW4module_id@?A0x63058377@@B 00000001800312e8     libucrt:winapi_thunks.obj
 0002:00002300       _mb_locale_names           0000000180031300     libucrt:mbctype.obj
 0002:00002bd0       LcidToLocaleNameTable      0000000180031bd0     libucrt:lcidtoname_downlevel.obj
 0002:00004620       LocaleNameToIndexTable     0000000180033620     libucrt:lcidtoname_downlevel.obj
 0002:000068c0       __real_ninf                00000001800358c0     libucrt:log10.obj
 0002:000068d0       __real_inf                 00000001800358d0     libucrt:log10.obj
 0002:000068e0       __real_neg_qnan            00000001800358e0     libucrt:log10.obj
 0002:000068f0       __real_qnanbit             00000001800358f0     libucrt:log10.obj
 0002:00006900       __int_1023                 0000000180035900     libucrt:log10.obj
 0002:00006910       __mask_001                 0000000180035910     libucrt:log10.obj
 0002:00006920       __mask_mant                0000000180035920     libucrt:log10.obj
 0002:00006930       __mask_mant_top8           0000000180035930     libucrt:log10.obj
 0002:00006940       __mask_mant9               0000000180035940     libucrt:log10.obj
 0002:00006950       __real_log10_e             0000000180035950     libucrt:log10.obj
 0002:00006960       __real_log10_e_lead        0000000180035960     libucrt:log10.obj
 0002:00006970       __real_log10_e_tail        0000000180035970     libucrt:log10.obj
 0002:00006980       __real_log10_2_lead        0000000180035980     libucrt:log10.obj
 0002:00006990       __real_log10_2_tail        0000000180035990     libucrt:log10.obj
 0002:000069a0       __real_two                 00000001800359a0     libucrt:log10.obj
 0002:000069b0       __real_one                 00000001800359b0     libucrt:log10.obj
 0002:000069c0       __real_half                00000001800359c0     libucrt:log10.obj
 0002:000069d0       __mask_100                 00000001800359d0     libucrt:log10.obj
 0002:000069e0       __real_1_over_512          00000001800359e0     libucrt:log10.obj
 0002:000069f0       __real_1_over_2            00000001800359f0     libucrt:log10.obj
 0002:00006a00       __real_1_over_3            0000000180035a00     libucrt:log10.obj
 0002:00006a10       __real_1_over_4            0000000180035a10     libucrt:log10.obj
 0002:00006a20       __real_1_over_5            0000000180035a20     libucrt:log10.obj
 0002:00006a30       __real_1_over_6            0000000180035a30     libucrt:log10.obj
 0002:00006a40       __real_neg_1023            0000000180035a40     libucrt:log10.obj
 0002:00006a50       __mask_2045                0000000180035a50     libucrt:log10.obj
 0002:00006a60       __real_threshold           0000000180035a60     libucrt:log10.obj
 0002:00006a70       __real_near_one_lt         0000000180035a70     libucrt:log10.obj
 0002:00006a80       __real_near_one_gt         0000000180035a80     libucrt:log10.obj
 0002:00006a90       __real_min_norm            0000000180035a90     libucrt:log10.obj
 0002:00006aa0       __real_notsign             0000000180035aa0     libucrt:log10.obj
 0002:00006ab0       __real_ca1                 0000000180035ab0     libucrt:log10.obj
 0002:00006ac0       __real_ca2                 0000000180035ac0     libucrt:log10.obj
 0002:00006ad0       __real_ca3                 0000000180035ad0     libucrt:log10.obj
 0002:00006ae0       __real_ca4                 0000000180035ae0     libucrt:log10.obj
 0002:00006af0       __mask_lower               0000000180035af0     libucrt:log10.obj
 0002:00006b00       __flag_x_zero              0000000180035b00     libucrt:log10.obj
 0002:00006b04       __flag_x_neg               0000000180035b04     libucrt:log10.obj
 0002:00006b08       __flag_x_nan               0000000180035b08     libucrt:log10.obj
 0002:00008360       __real@433fffffffffffff    0000000180037360     libucrt:fpsr.obj
 0002:00008368       __real@c33fffffffffffff    0000000180037368     libucrt:fpsr.obj
 0002:000090c0       ?message@?1??XML_ErrorString@@9@9 00000001800380c0     libexpat:xmlparse.obj
 0002:00009208       ?externalSubsetName@?1??doProlog@@9@9 0000000180038208     libexpat:xmlparse.obj
 0002:0000920c       ?xmlLen@?1??addBinding@@9@9 000000018003820c     libexpat:xmlparse.obj
 0002:00009210       ?atypeNMTOKENS@?1??doProlog@@9@9 0000000180038210     libexpat:xmlparse.obj
 0002:00009220       ?features@?1??XML_GetFeatureList@@9@9 0000000180038220     libexpat:xmlparse.obj
 0002:000092b0       ?atypeNMTOKEN@?1??doProlog@@9@9 00000001800382b0     libexpat:xmlparse.obj
 0002:000092b8       ?xmlnsLen@?1??addBinding@@9@9 00000001800382b8     libexpat:xmlparse.obj
 0002:000092bc       ?atypeIDREF@?1??doProlog@@9@9 00000001800382bc     libexpat:xmlparse.obj
 0002:000092c4       ?atypeIDREFS@?1??doProlog@@9@9 00000001800382c4     libexpat:xmlparse.obj
 0002:000092cc       ?enumValueStart@?1??doProlog@@9@9 00000001800382cc     libexpat:xmlparse.obj
 0002:000092d0       implicitContext            00000001800382d0     libexpat:xmlparse.obj
 0002:000092fc       ?atypeCDATA@?1??doProlog@@9@9 00000001800382fc     libexpat:xmlparse.obj
 0002:00009304       ?atypeENTITY@?1??doProlog@@9@9 0000000180038304     libexpat:xmlparse.obj
 0002:0000930c       ?atypeID@?1??doProlog@@9@9 000000018003830c     libexpat:xmlparse.obj
 0002:00009310       ?notationPrefix@?1??doProlog@@9@9 0000000180038310     libexpat:xmlparse.obj
 0002:00009320       ?xmlnsNamespace@?1??addBinding@@9@9 0000000180038320     libexpat:xmlparse.obj
 0002:00009340       ?atypeENTITIES@?1??doProlog@@9@9 0000000180038340     libexpat:xmlparse.obj
 0002:0000934c       ?enumValueSep@?1??doProlog@@9@9 000000018003834c     libexpat:xmlparse.obj
 0002:00009350       ?xmlNamespace@?1??addBinding@@9@9 0000000180038350     libexpat:xmlparse.obj
 0002:00009378       ?CDATA_LSQB@?1??big2_scanCdataSection@@9@9 0000000180038378     libexpat:xmltok.obj
 0002:00009380       nmstrtPages                0000000180038380     libexpat:xmltok.obj
 0002:00009480       KW_yes                     0000000180038480     libexpat:xmltok.obj
 0002:00009484       KW_UTF_16                  0000000180038484     libexpat:xmltok.obj
 0002:00009490       internal_little2_encoding  0000000180038490     libexpat:xmltok.obj
 0002:00009668       KW_version                 0000000180038668     libexpat:xmltok.obj
 0002:00009670       latin1_encoding_ns         0000000180038670     libexpat:xmltok.obj
 0002:00009848       encodings                  0000000180038848     libexpat:xmltok.obj
 0002:00009880       internal_utf8_encoding     0000000180038880     libexpat:xmltok.obj
 0002:00009a58       KW_UTF_8                   0000000180038a58     libexpat:xmltok.obj
 0002:00009a60       little2_encoding           0000000180038a60     libexpat:xmltok.obj
 0002:00009c38       ?CDATA_LSQB@?1??little2_scanCdataSection@@9@9 0000000180038c38     libexpat:xmltok.obj
 0002:00009c40       ?encodingNames@?1??getEncodingIndex@@9@9 0000000180038c40     libexpat:xmltok.obj
 0002:00009c70       ascii_encoding_ns          0000000180038c70     libexpat:xmltok.obj
 0002:00009e48       ?CDATA_LSQB@?1??normal_scanCdataSection@@9@9 0000000180038e48     libexpat:xmltok.obj
 0002:00009e50       namingBitmap               0000000180038e50     libexpat:xmltok.obj
 0002:0000a350       internal_little2_encoding_ns 0000000180039350     libexpat:xmltok.obj
 0002:0000a528       KW_no                      0000000180039528     libexpat:xmltok.obj
 0002:0000a530       big2_encoding_ns           0000000180039530     libexpat:xmltok.obj
 0002:0000a708       encodingsNS                0000000180039708     libexpat:xmltok.obj
 0002:0000a740       namePages                  0000000180039740     libexpat:xmltok.obj
 0002:0000a840       ascii_encoding             0000000180039840     libexpat:xmltok.obj
 0002:0000aa18       KW_UTF_16LE                0000000180039a18     libexpat:xmltok.obj
 0002:0000aa28       KW_standalone              0000000180039a28     libexpat:xmltok.obj
 0002:0000aa38       KW_NMTOKEN                 0000000180039a38     libexpat:xmlrole.obj
 0002:0000aa40       internal_utf8_encoding_ns  0000000180039a40     libexpat:xmltok.obj
 0002:0000ac18       KW_ANY                     0000000180039c18     libexpat:xmlrole.obj
 0002:0000ac20       utf8_encoding              0000000180039c20     libexpat:xmltok.obj
 0002:0000adf8       KW_EMPTY                   0000000180039df8     libexpat:xmlrole.obj
 0002:0000ae00       utf8_encoding_ns           0000000180039e00     libexpat:xmltok.obj
 0002:0000afd8       KW_UTF_16BE                0000000180039fd8     libexpat:xmltok.obj
 0002:0000afe8       KW_ISO_8859_1              0000000180039fe8     libexpat:xmltok.obj
 0002:0000aff4       KW_NDATA                   0000000180039ff4     libexpat:xmlrole.obj
 0002:0000b000       latin1_encoding            000000018003a000     libexpat:xmltok.obj
 0002:0000b1d8       KW_US_ASCII                000000018003a1d8     libexpat:xmltok.obj
 0002:0000b1e4       KW_ENTITY                  000000018003a1e4     libexpat:xmlrole.obj
 0002:0000b1ec       KW_ID                      000000018003a1ec     libexpat:xmlrole.obj
 0002:0000b1f0       KW_encoding                000000018003a1f0     libexpat:xmltok.obj
 0002:0000b200       little2_encoding_ns        000000018003a200     libexpat:xmltok.obj
 0002:0000b3d8       KW_PUBLIC                  000000018003a3d8     libexpat:xmlrole.obj
 0002:0000b3e0       big2_encoding              000000018003a3e0     libexpat:xmltok.obj
 0002:0000b5b8       KW_NOTATION                000000018003a5b8     libexpat:xmlrole.obj
 0002:0000b5c4       KW_IDREFS                  000000018003a5c4     libexpat:xmlrole.obj
 0002:0000b5cc       KW_PCDATA                  000000018003a5cc     libexpat:xmlrole.obj
 0002:0000b5d4       KW_SYSTEM                  000000018003a5d4     libexpat:xmlrole.obj
 0002:0000b5e0       KW_REQUIRED                000000018003a5e0     libexpat:xmlrole.obj
 0002:0000b5ec       KW_CDATA                   000000018003a5ec     libexpat:xmlrole.obj
 0002:0000b5f8       KW_NMTOKENS                000000018003a5f8     libexpat:xmlrole.obj
 0002:0000b604       KW_IDREF                   000000018003a604     libexpat:xmlrole.obj
 0002:0000b610       KW_DOCTYPE                 000000018003a610     libexpat:xmlrole.obj
 0002:0000b618       KW_ELEMENT                 000000018003a618     libexpat:xmlrole.obj
 0002:0000b620       KW_IMPLIED                 000000018003a620     libexpat:xmlrole.obj
 0002:0000b628       KW_INCLUDE                 000000018003a628     libexpat:xmlrole.obj
 0002:0000b630       ?types@?3??attlist2@@9@9   000000018003a630     libexpat:xmlrole.obj
 0002:0000b670       KW_ATTLIST                 000000018003a670     libexpat:xmlrole.obj
 0002:0000b678       KW_ENTITIES                000000018003a678     libexpat:xmlrole.obj
 0002:0000b684       KW_IGNORE                  000000018003a684     libexpat:xmlrole.obj
 0002:0000b68c       KW_FIXED                   000000018003a68c     libexpat:xmlrole.obj
 0002:0000b900       ?_TlgEvent@?3??__telemetry_main_invoke_trigger@@9@4U<unnamed-type-_TlgEvent>@?3??1@YAXQEAUHINSTANCE__@@@Z@B 000000018003a900     libvcruntime:telemetry.obj
 0002:0000b93c       ?_TlgEvent@?3??__telemetry_main_return_trigger@@9@4U<unnamed-type-_TlgEvent>@?3??1@YAXQEAUHINSTANCE__@@@Z@B 000000018003a93c     libvcruntime:telemetry.obj
 0002:0000b977       ?_Tlg_Microsoft_CRTProviderProv_Meta@@3U<unnamed-type-_Tlg_Microsoft_CRTProviderProv_Meta>@@B 000000018003a977     libvcruntime:telemetry.obj
 0002:0000be28       $unwind$?FunctionCallbackWrapper@imp@Nan@@YAXAEBV?$FunctionCallbackInfo@VValue@v8@@@v8@@@Z 000000018003ae28     node-expat.obj
 0002:0000be28       $unwind$build_model        000000018003ae28     libexpat:xmlparse.obj
 0002:0000be38       $unwind$?New@?$Factory@VFunctionTemplate@v8@@@imp@Nan@@SA?AV?$Local@VFunctionTemplate@v8@@@v8@@P6AXAEBV?$FunctionCallbackInfo@VValue@v8@@@3@@ZV?$Local@VValue@v8@@@5@V?$Local@VSignature@v8@@@5@@Z 000000018003ae38     node-expat.obj
 0002:0000be44       $chain$0$?New@?$Factory@VFunctionTemplate@v8@@@imp@Nan@@SA?AV?$Local@VFunctionTemplate@v8@@@v8@@P6AXAEBV?$FunctionCallbackInfo@VValue@v8@@@3@@ZV?$Local@VValue@v8@@@5@V?$Local@VSignature@v8@@@5@@Z 000000018003ae44     node-expat.obj
 0002:0000be58       $chain$1$?New@?$Factory@VFunctionTemplate@v8@@@imp@Nan@@SA?AV?$Local@VFunctionTemplate@v8@@@v8@@P6AXAEBV?$FunctionCallbackInfo@VValue@v8@@@3@@ZV?$Local@VValue@v8@@@5@V?$Local@VSignature@v8@@@5@@Z 000000018003ae58     node-expat.obj
 0002:0000be68       $unwind$?ThrowError@Nan@@YAXPEBD@Z 000000018003ae68     node-expat.obj
 0002:0000be70       $unwind$?StartCdata@Parser@@CAXPEAX@Z 000000018003ae70     node-expat.obj
 0002:0000be70       $unwind$?ThrowTypeError@Nan@@YAXPEBD@Z 000000018003ae70     node-expat.obj
 0002:0000be70       $unwind$?EndCdata@Parser@@CAXPEAX@Z 000000018003ae70     node-expat.obj
 0002:0000be78       $unwind$??$common_xtox_s@K_W@@YAHKQEA_W_KI_N@Z 000000018003ae78     libucrt:xtoa.obj
 0002:0000be78       $unwind$??0Utf8String@Nan@@QEAA@V?$Local@VValue@v8@@@v8@@@Z 000000018003ae78     node-expat.obj
 0002:0000be78       $unwind$wcstol             000000018003ae78     libucrt:strtox.obj
 0002:0000be80       $chain$0$??0Utf8String@Nan@@QEAA@V?$Local@VValue@v8@@@v8@@@Z 000000018003ae80     node-expat.obj
 0002:0000be94       $chain$1$??0Utf8String@Nan@@QEAA@V?$Local@VValue@v8@@@v8@@@Z 000000018003ae94     node-expat.obj
 0002:0000bea4       $unwind$?SetPrototypeMethod@Nan@@YAXV?$Local@VFunctionTemplate@v8@@@v8@@PEBDP6AXAEBV?$FunctionCallbackInfo@VValue@v8@@@1@@Z@Z 000000018003aea4     node-expat.obj
 0002:0000beb4       $unwind$__acrt_stdio_allocate_buffer_nolock 000000018003aeb4     libucrt:_getbuf.obj
 0002:0000beb4       $unwind$__acrt_stdio_free_buffer_nolock 000000018003aeb4     libucrt:_freebuf.obj
 0002:0000beb4       $unwind$__acrt_uninitialize_stdio 000000018003aeb4     libucrt:_file.obj
 0002:0000beb4       $unwind$__acrt_update_multibyte_info 000000018003aeb4     libucrt:locale_update.obj
 0002:0000beb4       $unwind$dtdCreate          000000018003aeb4     libexpat:xmlparse.obj
 0002:0000beb4       $unwind$__acrt_update_locale_info 000000018003aeb4     libucrt:locale_update.obj
 0002:0000beb4       $unwind$__acrt_uninitialize_locks 000000018003aeb4     libucrt:locks.obj
 0002:0000beb4       $unwind$strcpy_s           000000018003aeb4     libucrt:strcpy_s.obj
 0002:0000beb4       $unwind$__acrt_initialize_locks 000000018003aeb4     libucrt:locks.obj
 0002:0000beb4       $unwind$__std_exception_destroy 000000018003aeb4     libvcruntime:std_exception.obj
 0002:0000beb4       $unwind$__vcrt_freeptd     000000018003aeb4     libvcruntime:per_thread_data.obj
 0002:0000beb4       $unwind$__raise_securityfailure 000000018003aeb4     LIBCMT:gs_report.obj
 0002:0000beb4       $unwind$__acrt_fp_strflt_to_string 000000018003aeb4     libucrt:_fptostr.obj
 0002:0000beb4       $unwind$_clearfp           000000018003aeb4     libucrt:ieee.obj
 0002:0000beb4       $unwind$_calloc_base       000000018003aeb4     libucrt:calloc_base.obj
 0002:0000beb4       $unwind$XML_GetBuffer      000000018003aeb4     libexpat:xmlparse.obj
 0002:0000beb4       $unwind$__vcrt_uninitialize_locks 000000018003aeb4     libvcruntime:locks.obj
 0002:0000beb4       $unwind$_malloc_base       000000018003aeb4     libucrt:malloc_base.obj
 0002:0000beb4       $unwind$__std_type_info_destroy_list 000000018003aeb4     libvcruntime:std_type_info.obj
 0002:0000beb4       $unwind$?type_case_integer@?$output_processor@_WV?$stream_output_adapter@_W@__crt_stdio_output@@V?$standard_base@_WV?$stream_output_adapter@_W@__crt_stdio_output@@@2@@__crt_stdio_output@@AEAA_NI_N@Z 000000018003aeb4     libucrt:output.obj
 0002:0000beb4       $unwind$big2_attributeValueTok 000000018003aeb4     libexpat:xmltok.obj
 0002:0000beb4       $unwind$??0?$output_processor@_WV?$string_output_adapter@_W@__crt_stdio_output@@V?$standard_base@_WV?$string_output_adapter@_W@__crt_stdio_output@@@2@@__crt_stdio_output@@QEAA@AEBV?$string_output_adapter@_W@1@_KQEB_WQEAU__crt_locale_pointers@@QEAD@Z 000000018003aeb4     libucrt:output.obj
 0002:0000beb4       $unwind$poolStoreString    000000018003aeb4     libexpat:xmlparse.obj
 0002:0000beb4       $unwind$load_exe_hook      000000018003aeb4     win_delay_load_hook.obj
 0002:0000beb4       $unwind$_onexit            000000018003aeb4     LIBCMT:utility.obj
 0002:0000beb4       $unwind$??_Gtype_info@@UEAAPEAXI@Z 000000018003aeb4     LIBCMT:std_type_info_static.obj
 0002:0000beb4       $unwind$??2@YAPEAX_K@Z     000000018003aeb4     LIBCMT:new_scalar.obj
 0002:0000beb4       $unwind$??0exception@std@@QEAA@AEBV01@@Z 000000018003aeb4     LIBCMT:throw_bad_alloc.obj
 0002:0000beb4       $unwind$little2_attributeValueTok 000000018003aeb4     libexpat:xmltok.obj
 0002:0000beb4       $unwind$?type_case_integer@?$output_processor@_WV?$string_output_adapter@_W@__crt_stdio_output@@V?$standard_base@_WV?$string_output_adapter@_W@__crt_stdio_output@@@2@@__crt_stdio_output@@AEAA_NI_N@Z 000000018003aeb4     libucrt:output.obj
 0002:0000beb4       $unwind$uninitialize_allocated_memory 000000018003aeb4     libucrt:initialization.obj
 0002:0000beb4       $unwind$_fflush_nolock     000000018003aeb4     libucrt:fflush.obj
 0002:0000beb4       $unwind$_clrfp             000000018003aeb4     libucrt:fpctrl.obj
 0002:0000beb4       $unwind$??0?$output_processor@_WV?$stream_output_adapter@_W@__crt_stdio_output@@V?$standard_base@_WV?$stream_output_adapter@_W@__crt_stdio_output@@@2@@__crt_stdio_output@@QEAA@AEBV?$stream_output_adapter@_W@1@_KQEB_WQEAU__crt_locale_pointers@@QEAD@Z 000000018003aeb4     libucrt:output.obj
 0002:0000beb4       $unwind$__acrt_freeptd     000000018003aeb4     libucrt:per_thread_data.obj
 0002:0000beb4       $unwind$??1ObjectWrap@Nan@@UEAA@XZ 000000018003aeb4     node-expat.obj
 0002:0000beb4       $unwind$__vcrt_uninitialize 000000018003aeb4     libvcruntime:initialization.obj
 0002:0000beb4       $unwind$__scrt_release_startup_lock 000000018003aeb4     LIBCMT:utility.obj
 0002:0000beb4       $unwind$?Ref@ObjectWrap@Nan@@MEAAXXZ 000000018003aeb4     node-expat.obj
 0002:0000beb4       $unwind$?Unref@ObjectWrap@Nan@@MEAAXXZ 000000018003aeb4     node-expat.obj
 0002:0000beb4       $unwind$__scrt_initialize_crt 000000018003aeb4     LIBCMT:utility.obj
 0002:0000beb4       $unwind$normal_attributeValueTok 000000018003aeb4     libexpat:xmltok.obj
 0002:0000beb4       $unwind$??0bad_alloc@std@@QEAA@AEBV01@@Z 000000018003aeb4     LIBCMT:throw_bad_alloc.obj
 0002:0000beb4       $unwind$__acrt_uninitialize_winapi_thunks 000000018003aeb4     libucrt:winapi_thunks.obj
 0002:0000beb4       $unwind$__scrt_uninitialize_crt 000000018003aeb4     LIBCMT:utility.obj
 0002:0000beb4       $unwind$_set_statfp        000000018003aeb4     libucrt:fpctrl.obj
 0002:0000beb4       $unwind$?exit_or_terminate_process@@YAXI@Z 000000018003aeb4     libucrt:exit.obj
 0002:0000beb4       $unwind$?WeakCallback@ObjectWrap@Nan@@CAXAEBV?$WeakCallbackInfo@VObjectWrap@Nan@@@v8@@@Z 000000018003aeb4     node-expat.obj
 0002:0000beb4       $unwind$fesetenv           000000018003aeb4     libucrt:fesetenv.obj
 0002:0000beb4       $unwind$feholdexcept       000000018003aeb4     libucrt:feholdexcept.obj
 0002:0000beb4       $unwind$wcscat_s           000000018003aeb4     libucrt:wcscat_s.obj
 0002:0000beb4       $unwind$wcscpy_s           000000018003aeb4     libucrt:wcscpy_s.obj
 0002:0000beb4       $unwind$__vcrt_initialize_locks 000000018003aeb4     libvcruntime:locks.obj
 0002:0000beb4       $unwind$__acrt_allocate_buffer_for_argv 000000018003aeb4     libucrt:argv_parsing.obj
 0002:0000beb4       $unwind$_setfpstatusword   000000018003aeb4     libucrt:_fenvutils.obj
 0002:0000beb4       $unwind$?DloadReleaseSectionWriteAccess@@YAXXZ 000000018003aeb4     DelayImp:delayhlp.obj
 0002:0000beb4       $unwind$??0bad_array_new_length@std@@QEAA@AEBV01@@Z 000000018003aeb4     LIBCMT:throw_bad_alloc.obj
 0002:0000beb4       $unwind$initialize_pointers 000000018003aeb4     libucrt:initialization.obj
 0002:0000beb4       $unwind$??$message_box_wait_thread@_W@@YAKQEAX@Z 000000018003aeb4     libucrt:crtmbox.obj
 0002:0000beb4       $unwind$fegetenv           000000018003aeb4     libucrt:fegetenv.obj
 0002:0000beb4       $unwind$__acrt_can_show_message_box 000000018003aeb4     libucrt:winapi_thunks.obj
 0002:0000bebc       $unwind$?Wrap@ObjectWrap@Nan@@IEAAXV?$Local@VObject@v8@@@v8@@@Z 000000018003aebc     node-expat.obj
 0002:0000bebc       $unwind$??$free_environment@D@@YAXQEAPEAD@Z 000000018003aebc     libucrt:environment_initialization.obj
 0002:0000bebc       $unwind$??$free_environment@_W@@YAXQEAPEA_W@Z 000000018003aebc     libucrt:environment_initialization.obj
 0002:0000bec8       $unwind$??_Gbad_alloc@std@@UEAAPEAXI@Z 000000018003aec8     LIBCMT:throw_bad_alloc.obj
 0002:0000bec8       $unwind$__acrt_invoke_user_matherr 000000018003aec8     libucrt:matherr.obj
 0002:0000bec8       $unwind$little2_scanLit    000000018003aec8     libexpat:xmltok.obj
 0002:0000bec8       $unwind$__vcrt_FlsFree     000000018003aec8     libvcruntime:winapi_downlevel.obj
 0002:0000bec8       $unwind$wcsncat_s          000000018003aec8     libucrt:wcsncat_s.obj
 0002:0000bec8       $unwind$??_Gbad_array_new_length@std@@UEAAPEAXI@Z 000000018003aec8     LIBCMT:throw_bad_alloc.obj
 0002:0000bec8       $unwind$__vcrt_FlsAlloc    000000018003aec8     libvcruntime:winapi_downlevel.obj
 0002:0000bec8       $unwind$?DloadGetSRWLockFunctionPointers@@YAEXZ 000000018003aec8     DelayImp:delayhlp.obj
 0002:0000bec8       $unwind$?try_cor_exit_process@@YAXI@Z 000000018003aec8     libucrt:exit.obj
 0002:0000bec8       $unwind$__vcrt_FlsGetValue 000000018003aec8     libvcruntime:winapi_downlevel.obj
 0002:0000bec8       $unwind$__acrt_getptd      000000018003aec8     libucrt:per_thread_data.obj
 0002:0000bec8       $unwind$?DloadAcquireSectionWriteAccess@@YAXXZ 000000018003aec8     DelayImp:delayhlp.obj
 0002:0000bec8       $unwind$__vcrt_EventUnregister 000000018003aec8     libvcruntime:winapi_downlevel.obj
 0002:0000bec8       $unwind$??_GObjectWrap@Nan@@UEAAPEAXI@Z 000000018003aec8     node-expat.obj
 0002:0000bec8       $unwind$_fclose_nolock     000000018003aec8     libucrt:fclose.obj
 0002:0000bec8       $unwind$parserInit         000000018003aec8     libexpat:xmlparse.obj
 0002:0000bec8       $unwind$big2_scanLit       000000018003aec8     libexpat:xmltok.obj
 0002:0000bec8       $unwind$__acrt_uninitialize_lowio 000000018003aec8     libucrt:ioinit.obj
 0002:0000bec8       $unwind$?replace_current_thread_locale_nolock@@YAXQEAU__acrt_ptd@@QEAU__crt_locale_data@@@Z 000000018003aec8     libucrt:per_thread_data.obj
 0002:0000bec8       $unwind$??_Gexception@std@@UEAAPEAXI@Z 000000018003aec8     LIBCMT:throw_bad_alloc.obj
 0002:0000bec8       $unwind$XmlInitEncoding    000000018003aec8     libexpat:xmltok.obj
 0002:0000bec8       $unwind$XmlInitEncodingNS  000000018003aec8     libexpat:xmltok.obj
 0002:0000bec8       $unwind$_close_nolock      000000018003aec8     libucrt:close.obj
 0002:0000bec8       $unwind$?setEncoding@Parser@@IEAAHPEAD@Z 000000018003aec8     node-expat.obj
 0002:0000bec8       $unwind$??_GParser@@MEAAPEAXI@Z 000000018003aec8     node-expat.obj
 0002:0000bec8       $unwind$element2           000000018003aec8     libexpat:xmlrole.obj
 0002:0000bec8       $unwind$?force_decimal_point@__crt_stdio_output@@YAXPEADQEAU__crt_locale_pointers@@@Z 000000018003aec8     libucrt:output.obj
 0002:0000bec8       $unwind$entity5            000000018003aec8     libexpat:xmlrole.obj
 0002:0000bec8       $unwind$__acrt_stdio_begin_temporary_buffering_nolock 000000018003aec8     libucrt:_sftbuf.obj
 0002:0000bec8       $unwind$_updatetlocinfoEx_nolock 000000018003aec8     libucrt:locale_refcounting.obj
 0002:0000bec8       $unwind$??0_LocaleUpdate@@QEAA@QEAU__crt_locale_pointers@@@Z 000000018003aec8     libucrt:stricmp.obj
 0002:0000bec8       $unwind$prolog1            000000018003aec8     libexpat:xmlrole.obj
 0002:0000bec8       $unwind$prolog0            000000018003aec8     libexpat:xmlrole.obj
 0002:0000bec8       $unwind$??$common_initialize_environment_nolock@D@@YAHXZ 000000018003aec8     libucrt:environment_initialization.obj
 0002:0000bec8       $unwind$strncpy_s          000000018003aec8     libucrt:strncpy_s.obj
 0002:0000bec8       $unwind$_realloc_base      000000018003aec8     libucrt:realloc_base.obj
 0002:0000bec8       $unwind$_callnewh          000000018003aec8     libucrt:new_handler.obj
 0002:0000bec8       $unwind$__acrt_FlsAlloc    000000018003aec8     libucrt:winapi_thunks.obj
 0002:0000bec8       $unwind$??$common_xtox@K_W@@YAHKQEA_W_KI_N@Z 000000018003aec8     libucrt:xtoa.obj
 0002:0000bec8       $unwind$__acrt_FlsFree     000000018003aec8     libucrt:winapi_thunks.obj
 0002:0000bec8       $unwind$__acrt_FlsGetValue 000000018003aec8     libucrt:winapi_thunks.obj
 0002:0000bec8       $unwind$?internal_isupper_l@@YA_NHQEAU__crt_locale_pointers@@@Z 000000018003aec8     libucrt:tolower_toupper.obj
 0002:0000bec8       $unwind$__acrt_errno_map_os_error 000000018003aec8     libucrt:errno.obj
 0002:0000bec8       $unwind$__acrt_get_parent_window 000000018003aec8     libucrt:winapi_thunks.obj
 0002:0000bed4       $unwind$?Initialize@Parser@@SAXV?$Local@VObject@v8@@@v8@@@Z 000000018003aed4     node-expat.obj
 0002:0000bee4       $unwind$?SetEncoding@Parser@@KAXAEBV?$FunctionCallbackInfo@VValue@v8@@@Nan@@@Z 000000018003aee4     node-expat.obj
 0002:0000bee4       $unwind$?New@Parser@@KAXAEBV?$FunctionCallbackInfo@VValue@v8@@@Nan@@@Z 000000018003aee4     node-expat.obj
 0002:0000bf00       $unwind$?Parse@Parser@@KAXAEBV?$FunctionCallbackInfo@VValue@v8@@@Nan@@@Z 000000018003af00     node-expat.obj
 0002:0000bf10       $chain$1$?Parse@Parser@@KAXAEBV?$FunctionCallbackInfo@VValue@v8@@@Nan@@@Z 000000018003af10     node-expat.obj
 0002:0000bf28       $chain$2$?Parse@Parser@@KAXAEBV?$FunctionCallbackInfo@VValue@v8@@@Nan@@@Z 000000018003af28     node-expat.obj
 0002:0000bf38       $unwind$?parseString@Parser@@IEAA_NAEAVString@v8@@H@Z 000000018003af38     node-expat.obj
 0002:0000bf4c       $chain$1$?parseString@Parser@@IEAA_NAEAVString@v8@@H@Z 000000018003af4c     node-expat.obj
 0002:0000bf60       $chain$2$?parseString@Parser@@IEAA_NAEAVString@v8@@H@Z 000000018003af60     node-expat.obj
 0002:0000bf70       $unwind$?GetError@Parser@@KAXAEBV?$FunctionCallbackInfo@VValue@v8@@@Nan@@@Z 000000018003af70     node-expat.obj
 0002:0000bf7c       $unwind$_isleadbyte_l      000000018003af7c     libucrt:_wctype.obj
 0002:0000bf7c       $unwind$isdigit            000000018003af7c     libucrt:_ctype.obj
 0002:0000bf7c       $unwind$?Resume@Parser@@KAXAEBV?$FunctionCallbackInfo@VValue@v8@@@Nan@@@Z 000000018003af7c     node-expat.obj
 0002:0000bf7c       $unwind$?_TlgWrite@__vcrt_trace_logging_provider@@YAJPEBU_TlgProvider_t@1@PEFBXPEBU_GUID@@2IPEAU_EVENT_DATA_DESCRIPTOR@@@Z 000000018003af7c     libvcruntime:telemetry.obj
 0002:0000bf7c       $unwind$?Stop@Parser@@KAXAEBV?$FunctionCallbackInfo@VValue@v8@@@Nan@@@Z 000000018003af7c     node-expat.obj
 0002:0000bf7c       $unwind$?getSystemCP@@YAHH@Z 000000018003af7c     libucrt:mbctype.obj
 0002:0000bf84       $unwind$?Reset@Parser@@KAXAEBV?$FunctionCallbackInfo@VValue@v8@@@Nan@@@Z 000000018003af84     node-expat.obj
 0002:0000bfa8       $unwind$?GetCurrentByteIndex@Parser@@KAXAEBV?$FunctionCallbackInfo@VValue@v8@@@Nan@@@Z 000000018003afa8     node-expat.obj
 0002:0000bfa8       $unwind$?GetCurrentColumnNumber@Parser@@KAXAEBV?$FunctionCallbackInfo@VValue@v8@@@Nan@@@Z 000000018003afa8     node-expat.obj
 0002:0000bfa8       $unwind$capture_current_context 000000018003afa8     LIBCMT:gs_report.obj
 0002:0000bfa8       $unwind$?GetCurrentLineNumber@Parser@@KAXAEBV?$FunctionCallbackInfo@VValue@v8@@@Nan@@@Z 000000018003afa8     node-expat.obj
 0002:0000bfb4       $unwind$?StartElement@Parser@@CAXPEAXPEBDPEAPEBD@Z 000000018003afb4     node-expat.obj
 0002:0000bfc8       $chain$2$?StartElement@Parser@@CAXPEAXPEBDPEAPEBD@Z 000000018003afc8     node-expat.obj
 0002:0000bfe4       $chain$3$?StartElement@Parser@@CAXPEAXPEBDPEAPEBD@Z 000000018003afe4     node-expat.obj
 0002:0000bff8       $chain$4$?StartElement@Parser@@CAXPEAXPEBDPEAPEBD@Z 000000018003aff8     node-expat.obj
 0002:0000c008       $chain$5$?StartElement@Parser@@CAXPEAXPEBDPEAPEBD@Z 000000018003b008     node-expat.obj
 0002:0000c020       $chain$6$?StartElement@Parser@@CAXPEAXPEBDPEAPEBD@Z 000000018003b020     node-expat.obj
 0002:0000c034       $chain$7$?StartElement@Parser@@CAXPEAXPEBDPEAPEBD@Z 000000018003b034     node-expat.obj
 0002:0000c044       $unwind$?Comment@Parser@@CAXPEAXPEBD@Z 000000018003b044     node-expat.obj
 0002:0000c044       $unwind$?EndElement@Parser@@CAXPEAXPEBD@Z 000000018003b044     node-expat.obj
 0002:0000c050       $unwind$?Text@Parser@@CAXPEAXPEBDH@Z 000000018003b050     node-expat.obj
 0002:0000c050       $unwind$?UnknownEncoding@Parser@@CAHPEAXPEBDPEAUXML_Encoding@@@Z 000000018003b050     node-expat.obj
 0002:0000c060       $unwind$?ProcessingInstruction@Parser@@CAXPEAXPEBD1@Z 000000018003b060     node-expat.obj
 0002:0000c074       $unwind$?XmlDecl@Parser@@CAXPEAXPEBD1H@Z 000000018003b074     node-expat.obj
 0002:0000c08c       $unwind$?EntityDecl@Parser@@CAXPEAXPEBDH1H1111@Z 000000018003b08c     node-expat.obj
 0002:0000c0b0       $unwind$?SetUnknownEncoding@Parser@@CAXAEBV?$FunctionCallbackInfo@VValue@v8@@@Nan@@@Z 000000018003b0b0     node-expat.obj
 0002:0000c0c0       $chain$2$?SetUnknownEncoding@Parser@@CAXAEBV?$FunctionCallbackInfo@VValue@v8@@@Nan@@@Z 000000018003b0c0     node-expat.obj
 0002:0000c0d8       $chain$3$?SetUnknownEncoding@Parser@@CAXAEBV?$FunctionCallbackInfo@VValue@v8@@@Nan@@@Z 000000018003b0d8     node-expat.obj
 0002:0000c0e8       $unwind$?Emit@Parser@@AEAAXHQEAV?$Local@VValue@v8@@@v8@@@Z 000000018003b0e8     node-expat.obj
 0002:0000c0f8       $unwind$__vcrt_uninitialize_telemetry_provider 000000018003b0f8     libvcruntime:telemetry.obj
 0002:0000c0f8       $unwind$?state_case_size@?$output_processor@_WV?$string_output_adapter@_W@__crt_stdio_output@@V?$standard_base@_WV?$string_output_adapter@_W@__crt_stdio_output@@@2@@__crt_stdio_output@@AEAA_NXZ 000000018003b0f8     libucrt:output.obj
 0002:0000c0f8       $unwind$__report_rangecheckfailure 000000018003b0f8     LIBCMT:gs_report.obj
 0002:0000c0f8       $unwind$__dcrt_uninitialize_environments_nolock 000000018003b0f8     libucrt:environment_initialization.obj
 0002:0000c0f8       $unwind$__pctype_func      000000018003b0f8     libucrt:ctype.obj
 0002:0000c0f8       $unwind$__acrt_DownlevelLocaleNameToLCID 000000018003b0f8     libucrt:lcidtoname_downlevel.obj
 0002:0000c0f8       $unwind$normal_scanDecl    000000018003b0f8     libexpat:xmltok.obj
 0002:0000c0f8       $unwind$_msize             000000018003b0f8     libucrt:msize.obj
 0002:0000c0f8       $unwind$_fileno            000000018003b0f8     libucrt:fileno.obj
 0002:0000c0f8       $unwind$tolower            000000018003b0f8     libucrt:tolower_toupper.obj
 0002:0000c0f8       $unwind$big2_cdataSectionTok 000000018003b0f8     libexpat:xmltok.obj
 0002:0000c0f8       $unwind$__acrt_initialize_multibyte 000000018003b0f8     libucrt:mbctype.obj
 0002:0000c0f8       $unwind$__scrt_acquire_startup_lock 000000018003b0f8     LIBCMT:utility.obj
 0002:0000c0f8       $unwind$uninitialize_environment 000000018003b0f8     libucrt:initialization.obj
 0002:0000c0f8       $unwind$__vcrt_uninitialize_ptd 000000018003b0f8     libvcruntime:per_thread_data.obj
 0002:0000c0f8       $unwind$_statfp            000000018003b0f8     libucrt:fpctrl.obj
 0002:0000c0f8       $unwind$_get_osfhandle     000000018003b0f8     libucrt:osfinfo.obj
 0002:0000c0f8       $unwind$??$uninitialize_environment_internal@D@@YAXAEAPEAPEAD@Z 000000018003b0f8     libucrt:environment_initialization.obj
 0002:0000c0f8       $unwind$__vcrt_initialize_ptd 000000018003b0f8     libvcruntime:per_thread_data.obj
 0002:0000c0f8       $unwind$__GSHandlerCheck   000000018003b0f8     LIBCMT:_gshandler_.obj
 0002:0000c0f8       $unwind$big2_entityValueTok 000000018003b0f8     libexpat:xmltok.obj
 0002:0000c0f8       $unwind$__scrt_initialize_default_local_stdio_options 000000018003b0f8     LIBCMT:default_local_stdio_options.obj
 0002:0000c0f8       $unwind$?initialize_multibyte@@YAHXZ 000000018003b0f8     libucrt:multibyte_initializer.obj
 0002:0000c0f8       $unwind$__vcrt_freefls     000000018003b0f8     libvcruntime:per_thread_data.obj
 0002:0000c0f8       $unwind$__acrt_uninitialize_ptd 000000018003b0f8     libucrt:per_thread_data.obj
 0002:0000c0f8       $unwind$unknown_isName     000000018003b0f8     libexpat:xmltok.obj
 0002:0000c0f8       $unwind$big2_scanDecl      000000018003b0f8     libexpat:xmltok.obj
 0002:0000c0f8       $unwind$initialize_c       000000018003b0f8     libucrt:initialization.obj
 0002:0000c0f8       $unwind$XmlInitUnknownEncodingNS 000000018003b0f8     libexpat:xmltok.obj
 0002:0000c0f8       $unwind$__acrt_release_locale_ref 000000018003b0f8     libucrt:locale_refcounting.obj
 0002:0000c0f8       $unwind$__scrt_dllmain_crt_thread_detach 000000018003b0f8     LIBCMT:utility.obj
 0002:0000c0f8       $unwind$__scrt_dllmain_crt_thread_attach 000000018003b0f8     LIBCMT:utility.obj
 0002:0000c0f8       $unwind$atexit             000000018003b0f8     LIBCMT:utility.obj
 0002:0000c0f8       $unwind$?state_case_size@?$output_processor@_WV?$stream_output_adapter@_W@__crt_stdio_output@@V?$standard_base@_WV?$stream_output_adapter@_W@__crt_stdio_output@@@2@@__crt_stdio_output@@AEAA_NXZ 000000018003b0f8     libucrt:output.obj
 0002:0000c0f8       $unwind$normal_entityValueTok 000000018003b0f8     libexpat:xmltok.obj
 0002:0000c0f8       $unwind$__acrt_initialize_ptd 000000018003b0f8     libucrt:per_thread_data.obj
 0002:0000c0f8       $unwind$big2_contentTok    000000018003b0f8     libexpat:xmltok.obj
 0002:0000c0f8       $unwind$__acrt_thread_detach 000000018003b0f8     libucrt:initialization.obj
 0002:0000c0f8       $unwind$?dllmain_crt_dispatch@@YAHQEAUHINSTANCE__@@KQEAX@Z 000000018003b0f8     LIBCMT:dll_dllmain.obj
 0002:0000c0f8       $unwind$init               000000018003b0f8     node-expat.obj
 0002:0000c0f8       $unwind$__acrt_thread_attach 000000018003b0f8     libucrt:initialization.obj
 0002:0000c0f8       $unwind$??$uninitialize_environment_internal@_W@@YAXAEAPEAPEA_W@Z 000000018003b0f8     libucrt:environment_initialization.obj
 0002:0000c0f8       $unwind$__acrt_uninitialize_critical 000000018003b0f8     libucrt:initialization.obj
 0002:0000c0f8       $unwind$little2_scanDecl   000000018003b0f8     libexpat:xmltok.obj
 0002:0000c0f8       $unwind$_getfpstatusword   000000018003b0f8     libucrt:_fenvutils.obj
 0002:0000c0f8       $unwind$__doserrno         000000018003b0f8     libucrt:errno.obj
 0002:0000c0f8       $unwind$little2_entityValueTok 000000018003b0f8     libexpat:xmltok.obj
 0002:0000c0f8       $unwind$little2_contentTok 000000018003b0f8     libexpat:xmltok.obj
 0002:0000c0f8       $unwind$_set_errno_from_matherr 000000018003b0f8     libucrt:fpexcept.obj
 0002:0000c0f8       $unwind$_isatty            000000018003b0f8     libucrt:isatty.obj
 0002:0000c0f8       $unwind$little2_cdataSectionTok 000000018003b0f8     libexpat:xmltok.obj
 0002:0000c0f8       $unwind$__scrt_dllmain_before_initialize_c 000000018003b0f8     LIBCMT:utility.obj
 0002:0000c0f8       $unwind$_getfpcontrolword  000000018003b0f8     libucrt:_fenvutils.obj
 0002:0000c0f8       $unwind$initScanPrologNS   000000018003b0f8     libexpat:xmltok.obj
 0002:0000c0f8       $unwind$_errno             000000018003b0f8     libucrt:errno.obj
 0002:0000c0f8       $unwind$unknown_isInvalid  000000018003b0f8     libexpat:xmltok.obj
 0002:0000c0f8       $unwind$initScanProlog     000000018003b0f8     libexpat:xmltok.obj
 0002:0000c0f8       $unwind$__vcrt_initialize  000000018003b0f8     libvcruntime:initialization.obj
 0002:0000c0f8       $unwind$__scrt_dllmain_after_initialize_c 000000018003b0f8     LIBCMT:utility.obj
 0002:0000c0f8       $unwind$__acrt_initialize_command_line 000000018003b0f8     libucrt:argv_data.obj
 0002:0000c0f8       $unwind$abort              000000018003b0f8     libucrt:abort.obj
 0002:0000c0f8       $unwind$__scrt_dllmain_uninitialize_critical 000000018003b0f8     LIBCMT:utility.obj
 0002:0000c0f8       $unwind$__vcrt_uninitialize_critical 000000018003b0f8     libvcruntime:initialization.obj
 0002:0000c0f8       $unwind$__scrt_dllmain_uninitialize_c 000000018003b0f8     LIBCMT:utility.obj
 0002:0000c0f8       $unwind$__vcrt_thread_attach 000000018003b0f8     libvcruntime:initialization.obj
 0002:0000c0f8       $unwind$_stricmp           000000018003b0f8     libucrt:stricmp.obj
 0002:0000c0f8       $unwind$_set_error_mode    000000018003b0f8     libucrt:set_error_mode.obj
 0002:0000c0f8       $unwind$__vcrt_thread_detach 000000018003b0f8     libvcruntime:initialization.obj
 0002:0000c0f8       $unwind$_invoke_watson     000000018003b0f8     libucrt:invalid_parameter.obj
 0002:0000c0f8       $unwind$unknown_isNmstrt   000000018003b0f8     libexpat:xmltok.obj
 0002:0000c0f8       $unwind$__dcrt_terminate_console_output 000000018003b0f8     libucrt:initcon.obj
 0002:0000c0f8       $unwind$__acrt_initialize_heap 000000018003b0f8     libucrt:heap_handle.obj
 0002:0000c100       $unwind$??$Unwrap@VParser@@@ObjectWrap@Nan@@SAPEAVParser@@V?$Local@VObject@v8@@@v8@@@Z 000000018003b100     node-expat.obj
 0002:0000c108       $unwind$reportComment      000000018003b108     libexpat:xmlparse.obj
 0002:0000c108       $unwind$startParsing       000000018003b108     libexpat:xmlparse.obj
 0002:0000c110       $chain$0$startParsing      000000018003b110     libexpat:xmlparse.obj
 0002:0000c124       $chain$1$startParsing      000000018003b124     libexpat:xmlparse.obj
 0002:0000c134       $unwind$parserCreate       000000018003b134     libexpat:xmlparse.obj
 0002:0000c140       $chain$1$parserCreate      000000018003b140     libexpat:xmlparse.obj
 0002:0000c158       $chain$3$parserCreate      000000018003b158     libexpat:xmlparse.obj
 0002:0000c170       $chain$4$parserCreate      000000018003b170     libexpat:xmlparse.obj
 0002:0000c180       $unwind$XML_ParserReset    000000018003b180     libexpat:xmlparse.obj
 0002:0000c190       $unwind$XML_ParserFree     000000018003b190     libexpat:xmlparse.obj
 0002:0000c198       $chain$1$XML_ParserFree    000000018003b198     libexpat:xmlparse.obj
 0002:0000c1b0       $chain$4$XML_ParserFree    000000018003b1b0     libexpat:xmlparse.obj
 0002:0000c1cc       $chain$5$XML_ParserFree    000000018003b1cc     libexpat:xmlparse.obj
 0002:0000c1e0       $chain$6$XML_ParserFree    000000018003b1e0     libexpat:xmlparse.obj
 0002:0000c1f0       $chain$7$XML_ParserFree    000000018003b1f0     libexpat:xmlparse.obj
 0002:0000c204       $chain$8$XML_ParserFree    000000018003b204     libexpat:xmlparse.obj
 0002:0000c214       $unwind$XML_Parse          000000018003b214     libexpat:xmlparse.obj
 0002:0000c214       $unwind$__acrt_free_locale 000000018003b214     libucrt:locale_refcounting.obj
 0002:0000c214       $unwind$__vcrt_InitializeCriticalSectionEx 000000018003b214     libvcruntime:winapi_downlevel.obj
 0002:0000c214       $unwind$?setSBCS@@YAXPEAU__crt_multibyte_data@@@Z 000000018003b214     libucrt:mbctype.obj
 0002:0000c214       $unwind$??$ensure_buffer_is_big_enough@D@formatting_buffer@__crt_stdio_output@@QEAA_N_K@Z 000000018003b214     libucrt:output.obj
 0002:0000c214       $unwind$?dllmain_raw@@YAHQEAUHINSTANCE__@@KQEAX@Z 000000018003b214     LIBCMT:dll_dllmain.obj
 0002:0000c214       $unwind$__acrt_execute_initializers 000000018003b214     libucrt:shared_initialization.obj
 0002:0000c214       $unwind$_recalloc_base     000000018003b214     libucrt:recalloc.obj
 0002:0000c214       $unwind$__acrt_lowio_create_handle_array 000000018003b214     libucrt:osfinfo.obj
 0002:0000c214       $unwind$_wassert           000000018003b214     libucrt:assert.obj
 0002:0000c214       $unwind$_seh_filter_exe    000000018003b214     libucrt:exception_filter.obj
 0002:0000c214       $unwind$dtdReset           000000018003b214     libexpat:xmlparse.obj
 0002:0000c214       $unwind$?expand_if_necessary@?$argument_list@D@?A0xca0879c4@@AEAAHXZ 000000018003b214     libucrt:argv_wildcards.obj
 0002:0000c214       $unwind$__acrt_InitializeCriticalSectionEx 000000018003b214     libucrt:winapi_thunks.obj
 0002:0000c214       $unwind$getElementType     000000018003b214     libexpat:xmlparse.obj
 0002:0000c214       $unwind$__scrt_dllmain_exception_filter 000000018003b214     LIBCMT:utility.obj
 0002:0000c214       $unwind$prologInitProcessor 000000018003b214     libexpat:xmlparse.obj
 0002:0000c228       $unwind$condSect0          000000018003b228     libexpat:xmlrole.obj
 0002:0000c228       $unwind$defineAttribute    000000018003b228     libexpat:xmlparse.obj
 0002:0000c228       $unwind$entity2            000000018003b228     libexpat:xmlrole.obj
 0002:0000c228       $unwind$doctype1           000000018003b228     libexpat:xmlrole.obj
 0002:0000c228       $unwind$entity7            000000018003b228     libexpat:xmlrole.obj
 0002:0000c228       $unwind$notation1          000000018003b228     libexpat:xmlrole.obj
 0002:0000c228       $unwind$XML_ParseBuffer    000000018003b228     libexpat:xmlparse.obj
 0002:0000c228       $unwind$attlist8           000000018003b228     libexpat:xmlrole.obj
 0002:0000c228       $unwind$element1           000000018003b228     libexpat:xmlrole.obj
 0002:0000c23c       $chain$0$XML_ParseBuffer   000000018003b23c     libexpat:xmlparse.obj
 0002:0000c250       $chain$1$XML_ParseBuffer   000000018003b250     libexpat:xmlparse.obj
 0002:0000c260       $chain$2$XML_ParseBuffer   000000018003b260     libexpat:xmlparse.obj
 0002:0000c274       $chain$2$XML_GetBuffer     000000018003b274     libexpat:xmlparse.obj
 0002:0000c290       $chain$4$XML_GetBuffer     000000018003b290     libexpat:xmlparse.obj
 0002:0000c2ac       $chain$5$XML_GetBuffer     000000018003b2ac     libexpat:xmlparse.obj
 0002:0000c2bc       $unwind$little2_scanEndTag 000000018003b2bc     libexpat:xmltok.obj
 0002:0000c2bc       $unwind$__acrt_is_packaged_app 000000018003b2bc     libucrt:winapi_thunks.obj
 0002:0000c2bc       $unwind$little2_scanRef    000000018003b2bc     libexpat:xmltok.obj
 0002:0000c2bc       $unwind$big2_scanEndTag    000000018003b2bc     libexpat:xmltok.obj
 0002:0000c2bc       $unwind$big2_scanRef       000000018003b2bc     libexpat:xmltok.obj
 0002:0000c2bc       $unwind$iswctype           000000018003b2bc     libucrt:iswctype.obj
 0002:0000c2bc       $unwind$XML_ResumeParser   000000018003b2bc     libexpat:xmlparse.obj
 0002:0000c2c8       $chain$0$XML_ResumeParser  000000018003b2c8     libexpat:xmlparse.obj
 0002:0000c2dc       $chain$4$XML_ResumeParser  000000018003b2dc     libexpat:xmlparse.obj
 0002:0000c2dc       $chain$2$XML_ResumeParser  000000018003b2dc     libexpat:xmlparse.obj
 0002:0000c2f0       $unwind$dtdDestroy         000000018003b2f0     libexpat:xmlparse.obj
 0002:0000c2f0       $unwind$unknown_toUtf16    000000018003b2f0     libexpat:xmltok.obj
 0002:0000c2f0       $unwind$setElementTypePrefix 000000018003b2f0     libexpat:xmlparse.obj
 0002:0000c2f0       $unwind$storeRawNames      000000018003b2f0     libexpat:xmlparse.obj
 0002:0000c2f0       $unwind$internalSubset     000000018003b2f0     libexpat:xmlrole.obj
 0002:0000c308       $unwind$externalEntityContentProcessor 000000018003b308     libexpat:xmlparse.obj
 0002:0000c308       $unwind$contentProcessor   000000018003b308     libexpat:xmlparse.obj
 0002:0000c308       $unwind$_mbsdec_l          000000018003b308     libucrt:mbsdec.obj
 0002:0000c314       $unwind$doContent          000000018003b314     libexpat:xmlparse.obj
 0002:0000c32c       $unwind$storeAtts          000000018003b32c     libexpat:xmlparse.obj
 0002:0000c344       $unwind$addBinding         000000018003b344     libexpat:xmlparse.obj
 0002:0000c360       $unwind$cdataSectionProcessor 000000018003b360     libexpat:xmlparse.obj
 0002:0000c370       $unwind$doCdataSection     000000018003b370     libexpat:xmlparse.obj
 0002:0000c388       $unwind$ignoreSectionProcessor 000000018003b388     libexpat:xmlparse.obj
 0002:0000c398       $unwind$doIgnoreSection    000000018003b398     libexpat:xmlparse.obj
 0002:0000c3b0       $unwind$processXmlDecl     000000018003b3b0     libexpat:xmlparse.obj
 0002:0000c3c8       $unwind$handleUnknownEncoding 000000018003b3c8     libexpat:xmlparse.obj
 0002:0000c3dc       $unwind$prologProcessor    000000018003b3dc     libexpat:xmlparse.obj
 0002:0000c3f0       $unwind$doProlog           000000018003b3f0     libexpat:xmlparse.obj
 0002:0000c408       $unwind$epilogProcessor    000000018003b408     libexpat:xmlparse.obj
 0002:0000c408       $unwind$unknown_toUtf8     000000018003b408     libexpat:xmltok.obj
 0002:0000c41c       $unwind$processInternalEntity 000000018003b41c     libexpat:xmlparse.obj
 0002:0000c42c       $chain$0$processInternalEntity 000000018003b42c     libexpat:xmlparse.obj
 0002:0000c440       $chain$1$processInternalEntity 000000018003b440     libexpat:xmlparse.obj
 0002:0000c450       $chain$2$processInternalEntity 000000018003b450     libexpat:xmlparse.obj
 0002:0000c464       $unwind$internalEntityProcessor 000000018003b464     libexpat:xmlparse.obj
 0002:0000c47c       $chain$2$internalEntityProcessor 000000018003b47c     libexpat:xmlparse.obj
 0002:0000c490       $chain$3$internalEntityProcessor 000000018003b490     libexpat:xmlparse.obj
 0002:0000c4a0       $unwind$storeAttributeValue 000000018003b4a0     libexpat:xmlparse.obj
 0002:0000c4ac       $unwind$appendAttributeValue 000000018003b4ac     libexpat:xmlparse.obj
 0002:0000c4bc       $unwind$storeEntityValue   000000018003b4bc     libexpat:xmlparse.obj
 0002:0000c4cc       $unwind$reportProcessingInstruction 000000018003b4cc     libexpat:xmlparse.obj
 0002:0000c4e4       $chain$0$reportComment     000000018003b4e4     libexpat:xmlparse.obj
 0002:0000c4f8       $chain$2$reportComment     000000018003b4f8     libexpat:xmlparse.obj
 0002:0000c50c       $unwind$reportDefault      000000018003b50c     libexpat:xmlparse.obj
 0002:0000c518       $chain$2$reportDefault     000000018003b518     libexpat:xmlparse.obj
 0002:0000c534       $chain$3$reportDefault     000000018003b534     libexpat:xmlparse.obj
 0002:0000c544       $chain$0$defineAttribute   000000018003b544     libexpat:xmlparse.obj
 0002:0000c558       $chain$1$defineAttribute   000000018003b558     libexpat:xmlparse.obj
 0002:0000c558       $chain$3$defineAttribute   000000018003b558     libexpat:xmlparse.obj
 0002:0000c568       $chain$2$defineAttribute   000000018003b568     libexpat:xmlparse.obj
 0002:0000c57c       $unwind$getAttributeId     000000018003b57c     libexpat:xmlparse.obj
 0002:0000c590       $chain$0$getAttributeId    000000018003b590     libexpat:xmlparse.obj
 0002:0000c5a4       $chain$1$getAttributeId    000000018003b5a4     libexpat:xmlparse.obj
 0002:0000c5b8       $chain$2$getAttributeId    000000018003b5b8     libexpat:xmlparse.obj
 0002:0000c5c8       $chain$3$getAttributeId    000000018003b5c8     libexpat:xmlparse.obj
 0002:0000c5d8       $chain$4$getAttributeId    000000018003b5d8     libexpat:xmlparse.obj
 0002:0000c5f0       $chain$5$getAttributeId    000000018003b5f0     libexpat:xmlparse.obj
 0002:0000c604       $unwind$getContext         000000018003b604     libexpat:xmlparse.obj
 0002:0000c620       $unwind$setContext         000000018003b620     libexpat:xmlparse.obj
 0002:0000c638       $unwind$lookup             000000018003b638     libexpat:xmlparse.obj
 0002:0000c650       $unwind$poolAppend         000000018003b650     libexpat:xmlparse.obj
 0002:0000c660       $chain$3$poolAppend        000000018003b660     libexpat:xmlparse.obj
 0002:0000c680       $chain$5$poolAppend        000000018003b680     libexpat:xmlparse.obj
 0002:0000c6a0       $unwind$poolCopyString     000000018003b6a0     libexpat:xmlparse.obj
 0002:0000c6b8       $unwind$big2_getAtts       000000018003b6b8     libexpat:xmltok.obj
 0002:0000c6b8       $unwind$normal_scanLit     000000018003b6b8     libexpat:xmltok.obj
 0002:0000c6b8       $unwind$normal_scanComment 000000018003b6b8     libexpat:xmltok.obj
 0002:0000c6b8       $unwind$poolAppendString   000000018003b6b8     libexpat:xmlparse.obj
 0002:0000c6b8       $unwind$normal_ignoreSectionTok 000000018003b6b8     libexpat:xmltok.obj
 0002:0000c6d0       $unwind$poolGrow           000000018003b6d0     libexpat:xmlparse.obj
 0002:0000c6e4       $unwind$??R<lambda_ad1ced32f4ac17aa236e5ef05d6b3b7c>@@QEBAXXZ 000000018003b6e4     libucrt:mbctype.obj
 0002:0000c6e4       $unwind$memcpy_s           000000018003b6e4     libucrt:cfout.obj
 0002:0000c6e4       $unwind$_exception_enabled 000000018003b6e4     libucrt:libm_error.obj
 0002:0000c6e4       $unwind$?type_case_s@?$output_processor@_WV?$string_output_adapter@_W@__crt_stdio_output@@V?$standard_base@_WV?$string_output_adapter@_W@__crt_stdio_output@@@2@@__crt_stdio_output@@AEAA_NXZ 000000018003b6e4     libucrt:output.obj
 0002:0000c6e4       $unwind$__acrt_stdio_flush_and_write_narrow_nolock 000000018003b6e4     libucrt:_flsbuf.obj
 0002:0000c6e4       $unwind$__acrt_FlsSetValue 000000018003b6e4     libucrt:winapi_thunks.obj
 0002:0000c6e4       $unwind$__acrt_execute_uninitializers 000000018003b6e4     libucrt:shared_initialization.obj
 0002:0000c6e4       $unwind$_RTC_Terminate     000000018003b6e4     LIBCMT:_initsect_.obj
 0002:0000c6e4       $unwind$_DllMainCRTStartup 000000018003b6e4     LIBCMT:dll_dllmain.obj
 0002:0000c6e4       $unwind$?type_case_n@?$output_processor@_WV?$stream_output_adapter@_W@__crt_stdio_output@@V?$standard_base@_WV?$stream_output_adapter@_W@__crt_stdio_output@@@2@@__crt_stdio_output@@AEAA_NXZ 000000018003b6e4     libucrt:output.obj
 0002:0000c6e4       $unwind$_initterm_e        000000018003b6e4     libucrt:initterm.obj
 0002:0000c6e4       $unwind$?free_crt_array_internal@@YAXQEAPEBX_K@Z 000000018003b6e4     libucrt:inittime.obj
 0002:0000c6e4       $unwind$??$common_lseek_nolock@_J@@YA_JH_JH@Z 000000018003b6e4     libucrt:lseek.obj
 0002:0000c6e4       $unwind$__acrt_LocaleNameToLCID 000000018003b6e4     libucrt:winapi_thunks.obj
 0002:0000c6e4       $unwind$?TraceLoggingRegister@__vcrt_trace_logging_provider@@YAJPEBU_TlgProvider_t@1@PEBU_GUID@@P6AX1KE_K2PEAU_EVENT_FILTER_DESCRIPTOR@@PEAX@Z4@Z 000000018003b6e4     libvcruntime:telemetry.obj
 0002:0000c6e4       $unwind$__vcrt_getptd_noexit 000000018003b6e4     libvcruntime:per_thread_data.obj
 0002:0000c6e4       $unwind$__acrt_stdio_flush_nolock 000000018003b6e4     libucrt:fflush.obj
 0002:0000c6e4       $unwind$__vcrt_FlsSetValue 000000018003b6e4     libvcruntime:winapi_downlevel.obj
 0002:0000c6e4       $unwind$?type_case_Z@?$output_processor@_WV?$stream_output_adapter@_W@__crt_stdio_output@@V?$standard_base@_WV?$stream_output_adapter@_W@__crt_stdio_output@@@2@@__crt_stdio_output@@AEAA_NXZ 000000018003b6e4     libucrt:output.obj
 0002:0000c6e4       $unwind$nextScaffoldPart   000000018003b6e4     libexpat:xmlparse.obj
 0002:0000c6e4       $unwind$?type_case_n@?$output_processor@_WV?$string_output_adapter@_W@__crt_stdio_output@@V?$standard_base@_WV?$string_output_adapter@_W@__crt_stdio_output@@@2@@__crt_stdio_output@@AEAA_NXZ 000000018003b6e4     libucrt:output.obj
 0002:0000c6e4       $unwind$?type_case_s@?$output_processor@_WV?$stream_output_adapter@_W@__crt_stdio_output@@V?$standard_base@_WV?$stream_output_adapter@_W@__crt_stdio_output@@@2@@__crt_stdio_output@@AEAA_NXZ 000000018003b6e4     libucrt:output.obj
 0002:0000c6e4       $unwind$?type_case_Z@?$output_processor@_WV?$string_output_adapter@_W@__crt_stdio_output@@V?$standard_base@_WV?$string_output_adapter@_W@__crt_stdio_output@@@2@@__crt_stdio_output@@AEAA_NXZ 000000018003b6e4     libucrt:output.obj
 0002:0000c6e4       $unwind$_RTC_Initialize    000000018003b6e4     LIBCMT:_initsect_.obj
 0002:0000c6e4       $unwind$__acrt_getptd_noexit 000000018003b6e4     libucrt:per_thread_data.obj
 0002:0000c6e4       $unwind$__acrt_stdio_flush_and_write_wide_nolock 000000018003b6e4     libucrt:_flsbuf.obj
 0002:0000c6f4       $unwind$build_node         000000018003b6f4     libexpat:xmlparse.obj
 0002:0000c704       $chain$0$normal_scanDecl   000000018003b704     libexpat:xmltok.obj
 0002:0000c718       $chain$2$normal_scanDecl   000000018003b718     libexpat:xmltok.obj
 0002:0000c718       $chain$4$normal_scanDecl   000000018003b718     libexpat:xmltok.obj
 0002:0000c72c       $chain$5$normal_scanDecl   000000018003b72c     libexpat:xmltok.obj
 0002:0000c73c       $unwind$normal_scanPi      000000018003b73c     libexpat:xmltok.obj
 0002:0000c750       $chain$0$normal_scanPi     000000018003b750     libexpat:xmltok.obj
 0002:0000c764       $chain$1$normal_scanPi     000000018003b764     libexpat:xmltok.obj
 0002:0000c778       $chain$2$normal_scanPi     000000018003b778     libexpat:xmltok.obj
 0002:0000c788       $chain$3$normal_scanPi     000000018003b788     libexpat:xmltok.obj
 0002:0000c798       $chain$4$normal_scanPi     000000018003b798     libexpat:xmltok.obj
 0002:0000c7b0       $unwind$?parse_int_from_format_string@?$output_processor@_WV?$string_output_adapter@_W@__crt_stdio_output@@V?$standard_base@_WV?$string_output_adapter@_W@__crt_stdio_output@@@2@@__crt_stdio_output@@AEAA_NQEAH@Z 000000018003b7b0     libucrt:output.obj
 0002:0000c7b0       $unwind$normal_cdataSectionTok 000000018003b7b0     libexpat:xmltok.obj
 0002:0000c7b0       $unwind$normal_contentTok  000000018003b7b0     libexpat:xmltok.obj
 0002:0000c7b0       $unwind$?parse_int_from_format_string@?$output_processor@_WV?$stream_output_adapter@_W@__crt_stdio_output@@V?$standard_base@_WV?$stream_output_adapter@_W@__crt_stdio_output@@@2@@__crt_stdio_output@@AEAA_NQEAH@Z 000000018003b7b0     libucrt:output.obj
 0002:0000c7c4       $chain$0$normal_cdataSectionTok 000000018003b7c4     libexpat:xmltok.obj
 0002:0000c7d8       $chain$1$normal_cdataSectionTok 000000018003b7d8     libexpat:xmltok.obj
 0002:0000c7e8       $unwind$normal_scanEndTag  000000018003b7e8     libexpat:xmltok.obj
 0002:0000c7f8       $chain$0$normal_scanEndTag 000000018003b7f8     libexpat:xmltok.obj
 0002:0000c80c       $chain$1$normal_scanEndTag 000000018003b80c     libexpat:xmltok.obj
 0002:0000c820       $chain$2$normal_scanEndTag 000000018003b820     libexpat:xmltok.obj
 0002:0000c830       $chain$4$normal_scanEndTag 000000018003b830     libexpat:xmltok.obj
 0002:0000c848       $unwind$normal_scanPoundName 000000018003b848     libexpat:xmltok.obj
 0002:0000c848       $unwind$normal_scanPercent 000000018003b848     libexpat:xmltok.obj
 0002:0000c848       $unwind$normal_scanRef     000000018003b848     libexpat:xmltok.obj
 0002:0000c85c       $chain$0$normal_scanRef    000000018003b85c     libexpat:xmltok.obj
 0002:0000c870       $chain$1$normal_scanRef    000000018003b870     libexpat:xmltok.obj
 0002:0000c880       $unwind$normal_scanAtts    000000018003b880     libexpat:xmltok.obj
 0002:0000c898       $unwind$normal_scanLt      000000018003b898     libexpat:xmltok.obj
 0002:0000c8ac       $chain$0$normal_scanLt     000000018003b8ac     libexpat:xmltok.obj
 0002:0000c8c0       $chain$1$normal_scanLt     000000018003b8c0     libexpat:xmltok.obj
 0002:0000c8d4       $chain$2$normal_scanLt     000000018003b8d4     libexpat:xmltok.obj
 0002:0000c8e4       $chain$3$normal_scanLt     000000018003b8e4     libexpat:xmltok.obj
 0002:0000c8f4       $chain$4$normal_scanLt     000000018003b8f4     libexpat:xmltok.obj
 0002:0000c90c       $chain$5$normal_scanLt     000000018003b90c     libexpat:xmltok.obj
 0002:0000c920       $chain$0$normal_contentTok 000000018003b920     libexpat:xmltok.obj
 0002:0000c934       $chain$1$normal_contentTok 000000018003b934     libexpat:xmltok.obj
 0002:0000c944       $chain$2$normal_contentTok 000000018003b944     libexpat:xmltok.obj
 0002:0000c958       $chain$0$normal_scanPercent 000000018003b958     libexpat:xmltok.obj
 0002:0000c96c       $chain$1$normal_scanPercent 000000018003b96c     libexpat:xmltok.obj
 0002:0000c97c       $chain$0$normal_scanPoundName 000000018003b97c     libexpat:xmltok.obj
 0002:0000c990       $chain$1$normal_scanPoundName 000000018003b990     libexpat:xmltok.obj
 0002:0000c9a0       $unwind$normal_prologTok   000000018003b9a0     libexpat:xmltok.obj
 0002:0000c9b0       $chain$1$normal_prologTok  000000018003b9b0     libexpat:xmltok.obj
 0002:0000c9c8       $chain$2$normal_prologTok  000000018003b9c8     libexpat:xmltok.obj
 0002:0000c9d8       $chain$0$normal_attributeValueTok 000000018003b9d8     libexpat:xmltok.obj
 0002:0000c9ec       $chain$4$normal_attributeValueTok 000000018003b9ec     libexpat:xmltok.obj
 0002:0000c9ec       $chain$10$normal_attributeValueTok 000000018003b9ec     libexpat:xmltok.obj
 0002:0000c9ec       $chain$6$normal_attributeValueTok 000000018003b9ec     libexpat:xmltok.obj
 0002:0000c9ec       $chain$8$normal_attributeValueTok 000000018003b9ec     libexpat:xmltok.obj
 0002:0000c9ec       $chain$2$normal_attributeValueTok 000000018003b9ec     libexpat:xmltok.obj
 0002:0000c9ec       $chain$12$normal_attributeValueTok 000000018003b9ec     libexpat:xmltok.obj
 0002:0000ca00       $chain$13$normal_attributeValueTok 000000018003ba00     libexpat:xmltok.obj
 0002:0000ca10       $chain$1$normal_entityValueTok 000000018003ba10     libexpat:xmltok.obj
 0002:0000ca28       $chain$9$normal_entityValueTok 000000018003ba28     libexpat:xmltok.obj
 0002:0000ca28       $chain$5$normal_entityValueTok 000000018003ba28     libexpat:xmltok.obj
 0002:0000ca28       $chain$3$normal_entityValueTok 000000018003ba28     libexpat:xmltok.obj
 0002:0000ca28       $chain$7$normal_entityValueTok 000000018003ba28     libexpat:xmltok.obj
 0002:0000ca28       $chain$11$normal_entityValueTok 000000018003ba28     libexpat:xmltok.obj
 0002:0000ca40       $chain$12$normal_entityValueTok 000000018003ba40     libexpat:xmltok.obj
 0002:0000ca50       $unwind$big2_charRefNumber 000000018003ba50     libexpat:xmltok.obj
 0002:0000ca50       $unwind$??$type_case_integer_parse_into_buffer@_K@?$output_processor@_WV?$stream_output_adapter@_W@__crt_stdio_output@@V?$standard_base@_WV?$stream_output_adapter@_W@__crt_stdio_output@@@2@@__crt_stdio_output@@AEAAX_KI_N@Z 000000018003ba50     libucrt:output.obj
 0002:0000ca50       $unwind$??$type_case_integer_parse_into_buffer@I@?$output_processor@_WV?$stream_output_adapter@_W@__crt_stdio_output@@V?$standard_base@_WV?$stream_output_adapter@_W@__crt_stdio_output@@@2@@__crt_stdio_output@@AEAAXII_N@Z 000000018003ba50     libucrt:output.obj
 0002:0000ca50       $unwind$little2_isPublicId 000000018003ba50     libexpat:xmltok.obj
 0002:0000ca50       $unwind$big2_isPublicId    000000018003ba50     libexpat:xmltok.obj
 0002:0000ca50       $unwind$normal_isPublicId  000000018003ba50     libexpat:xmltok.obj
 0002:0000ca50       $unwind$??$type_case_integer_parse_into_buffer@_K@?$output_processor@_WV?$string_output_adapter@_W@__crt_stdio_output@@V?$standard_base@_WV?$string_output_adapter@_W@__crt_stdio_output@@@2@@__crt_stdio_output@@AEAAX_KI_N@Z 000000018003ba50     libucrt:output.obj
 0002:0000ca50       $unwind$??$type_case_integer_parse_into_buffer@I@?$output_processor@_WV?$string_output_adapter@_W@__crt_stdio_output@@V?$standard_base@_WV?$string_output_adapter@_W@__crt_stdio_output@@@2@@__crt_stdio_output@@AEAAXII_N@Z 000000018003ba50     libucrt:output.obj
 0002:0000ca50       $unwind$little2_toUtf16    000000018003ba50     libexpat:xmltok.obj
 0002:0000ca50       $unwind$big2_scanComment   000000018003ba50     libexpat:xmltok.obj
 0002:0000ca50       $unwind$little2_scanComment 000000018003ba50     libexpat:xmltok.obj
 0002:0000ca50       $unwind$little2_charRefNumber 000000018003ba50     libexpat:xmltok.obj
 0002:0000ca50       $unwind$big2_toUtf16       000000018003ba50     libexpat:xmltok.obj
 0002:0000ca58       $unwind$normal_getAtts     000000018003ba58     libexpat:xmltok.obj
 0002:0000ca70       $unwind$big2_toUtf8        000000018003ba70     libexpat:xmltok.obj
 0002:0000ca70       $unwind$little2_toUtf8     000000018003ba70     libexpat:xmltok.obj
 0002:0000ca70       $unwind$utf8_toUtf8        000000018003ba70     libexpat:xmltok.obj
 0002:0000ca84       $unwind$utf8_toUtf16       000000018003ba84     libexpat:xmltok.obj
 0002:0000ca94       $chain$2$utf8_toUtf16      000000018003ba94     libexpat:xmltok.obj
 0002:0000cab0       $chain$3$utf8_toUtf16      000000018003bab0     libexpat:xmltok.obj
 0002:0000cac0       $chain$0$little2_scanDecl  000000018003bac0     libexpat:xmltok.obj
 0002:0000cad4       $chain$4$little2_scanDecl  000000018003bad4     libexpat:xmltok.obj
 0002:0000cad4       $chain$2$little2_scanDecl  000000018003bad4     libexpat:xmltok.obj
 0002:0000cae8       $chain$5$little2_scanDecl  000000018003bae8     libexpat:xmltok.obj
 0002:0000caf8       $unwind$big2_scanPi        000000018003baf8     libexpat:xmltok.obj
 0002:0000caf8       $unwind$little2_scanPi     000000018003baf8     libexpat:xmltok.obj
 0002:0000cb04       $chain$3$little2_scanPi    000000018003bb04     libexpat:xmltok.obj
 0002:0000cb24       $chain$5$little2_scanPi    000000018003bb24     libexpat:xmltok.obj
 0002:0000cb44       $chain$6$little2_scanPi    000000018003bb44     libexpat:xmltok.obj
 0002:0000cb44       $chain$10$little2_scanPi   000000018003bb44     libexpat:xmltok.obj
 0002:0000cb44       $chain$8$little2_scanPi    000000018003bb44     libexpat:xmltok.obj
 0002:0000cb5c       $chain$11$little2_scanPi   000000018003bb5c     libexpat:xmltok.obj
 0002:0000cb6c       $chain$0$little2_scanEndTag 000000018003bb6c     libexpat:xmltok.obj
 0002:0000cb80       $chain$16$little2_scanEndTag 000000018003bb80     libexpat:xmltok.obj
 0002:0000cb80       $chain$12$little2_scanEndTag 000000018003bb80     libexpat:xmltok.obj
 0002:0000cb80       $chain$14$little2_scanEndTag 000000018003bb80     libexpat:xmltok.obj
 0002:0000cb80       $chain$2$little2_scanEndTag 000000018003bb80     libexpat:xmltok.obj
 0002:0000cb80       $chain$10$little2_scanEndTag 000000018003bb80     libexpat:xmltok.obj
 0002:0000cb80       $chain$4$little2_scanEndTag 000000018003bb80     libexpat:xmltok.obj
 0002:0000cb80       $chain$8$little2_scanEndTag 000000018003bb80     libexpat:xmltok.obj
 0002:0000cb80       $chain$6$little2_scanEndTag 000000018003bb80     libexpat:xmltok.obj
 0002:0000cb94       $chain$17$little2_scanEndTag 000000018003bb94     libexpat:xmltok.obj
 0002:0000cba4       $chain$0$little2_scanRef   000000018003bba4     libexpat:xmltok.obj
 0002:0000cbb8       $chain$4$little2_scanRef   000000018003bbb8     libexpat:xmltok.obj
 0002:0000cbb8       $chain$2$little2_scanRef   000000018003bbb8     libexpat:xmltok.obj
 0002:0000cbb8       $chain$8$little2_scanRef   000000018003bbb8     libexpat:xmltok.obj
 0002:0000cbb8       $chain$16$little2_scanRef  000000018003bbb8     libexpat:xmltok.obj
 0002:0000cbb8       $chain$10$little2_scanRef  000000018003bbb8     libexpat:xmltok.obj
 0002:0000cbb8       $chain$6$little2_scanRef   000000018003bbb8     libexpat:xmltok.obj
 0002:0000cbb8       $chain$12$little2_scanRef  000000018003bbb8     libexpat:xmltok.obj
 0002:0000cbb8       $chain$14$little2_scanRef  000000018003bbb8     libexpat:xmltok.obj
 0002:0000cbb8       $chain$18$little2_scanRef  000000018003bbb8     libexpat:xmltok.obj
 0002:0000cbcc       $chain$19$little2_scanRef  000000018003bbcc     libexpat:xmltok.obj
 0002:0000cbdc       $unwind$little2_scanAtts   000000018003bbdc     libexpat:xmltok.obj
 0002:0000cbdc       $unwind$big2_scanAtts      000000018003bbdc     libexpat:xmltok.obj
 0002:0000cbf4       $unwind$little2_scanLt     000000018003bbf4     libexpat:xmltok.obj
 0002:0000cbf4       $unwind$big2_scanLt        000000018003bbf4     libexpat:xmltok.obj
 0002:0000cc00       $chain$3$little2_scanLt    000000018003bc00     libexpat:xmltok.obj
 0002:0000cc20       $chain$5$little2_scanLt    000000018003bc20     libexpat:xmltok.obj
 0002:0000cc40       $chain$12$little2_scanLt   000000018003bc40     libexpat:xmltok.obj
 0002:0000cc40       $chain$14$little2_scanLt   000000018003bc40     libexpat:xmltok.obj
 0002:0000cc40       $chain$10$little2_scanLt   000000018003bc40     libexpat:xmltok.obj
 0002:0000cc40       $chain$8$little2_scanLt    000000018003bc40     libexpat:xmltok.obj
 0002:0000cc40       $chain$16$little2_scanLt   000000018003bc40     libexpat:xmltok.obj
 0002:0000cc40       $chain$18$little2_scanLt   000000018003bc40     libexpat:xmltok.obj
 0002:0000cc40       $chain$20$little2_scanLt   000000018003bc40     libexpat:xmltok.obj
 0002:0000cc40       $chain$22$little2_scanLt   000000018003bc40     libexpat:xmltok.obj
 0002:0000cc40       $chain$24$little2_scanLt   000000018003bc40     libexpat:xmltok.obj
 0002:0000cc40       $chain$6$little2_scanLt    000000018003bc40     libexpat:xmltok.obj
 0002:0000cc58       $chain$25$little2_scanLt   000000018003bc58     libexpat:xmltok.obj
 0002:0000cc68       $unwind$little2_scanPoundName 000000018003bc68     libexpat:xmltok.obj
 0002:0000cc68       $unwind$little2_scanPercent 000000018003bc68     libexpat:xmltok.obj
 0002:0000cc68       $unwind$big2_scanPercent   000000018003bc68     libexpat:xmltok.obj
 0002:0000cc68       $unwind$big2_scanPoundName 000000018003bc68     libexpat:xmltok.obj
 0002:0000cc74       $chain$0$little2_scanPercent 000000018003bc74     libexpat:xmltok.obj
 0002:0000cc88       $chain$18$little2_scanPercent 000000018003bc88     libexpat:xmltok.obj
 0002:0000cc88       $chain$12$little2_scanPercent 000000018003bc88     libexpat:xmltok.obj
 0002:0000cc88       $chain$16$little2_scanPercent 000000018003bc88     libexpat:xmltok.obj
 0002:0000cc88       $chain$2$little2_scanPercent 000000018003bc88     libexpat:xmltok.obj
 0002:0000cc88       $chain$6$little2_scanPercent 000000018003bc88     libexpat:xmltok.obj
 0002:0000cc88       $chain$4$little2_scanPercent 000000018003bc88     libexpat:xmltok.obj
 0002:0000cc88       $chain$10$little2_scanPercent 000000018003bc88     libexpat:xmltok.obj
 0002:0000cc88       $chain$8$little2_scanPercent 000000018003bc88     libexpat:xmltok.obj
 0002:0000cc88       $chain$14$little2_scanPercent 000000018003bc88     libexpat:xmltok.obj
 0002:0000cc9c       $chain$19$little2_scanPercent 000000018003bc9c     libexpat:xmltok.obj
 0002:0000ccac       $chain$0$little2_scanPoundName 000000018003bcac     libexpat:xmltok.obj
 0002:0000ccc0       $chain$4$little2_scanPoundName 000000018003bcc0     libexpat:xmltok.obj
 0002:0000ccc0       $chain$12$little2_scanPoundName 000000018003bcc0     libexpat:xmltok.obj
 0002:0000ccc0       $chain$8$little2_scanPoundName 000000018003bcc0     libexpat:xmltok.obj
 0002:0000ccc0       $chain$10$little2_scanPoundName 000000018003bcc0     libexpat:xmltok.obj
 0002:0000ccc0       $chain$14$little2_scanPoundName 000000018003bcc0     libexpat:xmltok.obj
 0002:0000ccc0       $chain$6$little2_scanPoundName 000000018003bcc0     libexpat:xmltok.obj
 0002:0000ccc0       $chain$2$little2_scanPoundName 000000018003bcc0     libexpat:xmltok.obj
 0002:0000ccd4       $chain$15$little2_scanPoundName 000000018003bcd4     libexpat:xmltok.obj
 0002:0000cce4       $unwind$big2_prologTok     000000018003bce4     libexpat:xmltok.obj
 0002:0000cce4       $unwind$?filt$0@?0??dllmain_dispatch@@YAHQEAUHINSTANCE__@@KQEAX@Z@4HA 000000018003bce4     LIBCMT:dll_dllmain.obj
 0002:0000cce4       $unwind$little2_prologTok  000000018003bce4     libexpat:xmltok.obj
 0002:0000ccec       $chain$1$little2_prologTok 000000018003bcec     libexpat:xmltok.obj
 0002:0000cd04       $chain$9$little2_prologTok 000000018003bd04     libexpat:xmltok.obj
 0002:0000cd04       $chain$33$little2_prologTok 000000018003bd04     libexpat:xmltok.obj
 0002:0000cd04       $chain$49$little2_prologTok 000000018003bd04     libexpat:xmltok.obj
 0002:0000cd04       $chain$15$little2_prologTok 000000018003bd04     libexpat:xmltok.obj
 0002:0000cd04       $chain$11$little2_prologTok 000000018003bd04     libexpat:xmltok.obj
 0002:0000cd04       $chain$13$little2_prologTok 000000018003bd04     libexpat:xmltok.obj
 0002:0000cd04       $chain$21$little2_prologTok 000000018003bd04     libexpat:xmltok.obj
 0002:0000cd04       $chain$47$little2_prologTok 000000018003bd04     libexpat:xmltok.obj
 0002:0000cd04       $chain$23$little2_prologTok 000000018003bd04     libexpat:xmltok.obj
 0002:0000cd04       $chain$35$little2_prologTok 000000018003bd04     libexpat:xmltok.obj
 0002:0000cd04       $chain$3$little2_prologTok 000000018003bd04     libexpat:xmltok.obj
 0002:0000cd04       $chain$37$little2_prologTok 000000018003bd04     libexpat:xmltok.obj
 0002:0000cd04       $chain$51$little2_prologTok 000000018003bd04     libexpat:xmltok.obj
 0002:0000cd04       $chain$58$little2_prologTok 000000018003bd04     libexpat:xmltok.obj
 0002:0000cd04       $chain$45$little2_prologTok 000000018003bd04     libexpat:xmltok.obj
 0002:0000cd04       $chain$17$little2_prologTok 000000018003bd04     libexpat:xmltok.obj
 0002:0000cd04       $chain$43$little2_prologTok 000000018003bd04     libexpat:xmltok.obj
 0002:0000cd04       $chain$19$little2_prologTok 000000018003bd04     libexpat:xmltok.obj
 0002:0000cd04       $chain$5$little2_prologTok 000000018003bd04     libexpat:xmltok.obj
 0002:0000cd04       $chain$27$little2_prologTok 000000018003bd04     libexpat:xmltok.obj
 0002:0000cd04       $chain$41$little2_prologTok 000000018003bd04     libexpat:xmltok.obj
 0002:0000cd04       $chain$7$little2_prologTok 000000018003bd04     libexpat:xmltok.obj
 0002:0000cd04       $chain$25$little2_prologTok 000000018003bd04     libexpat:xmltok.obj
 0002:0000cd04       $chain$31$little2_prologTok 000000018003bd04     libexpat:xmltok.obj
 0002:0000cd04       $chain$39$little2_prologTok 000000018003bd04     libexpat:xmltok.obj
 0002:0000cd04       $chain$29$little2_prologTok 000000018003bd04     libexpat:xmltok.obj
 0002:0000cd1c       $chain$55$little2_prologTok 000000018003bd1c     libexpat:xmltok.obj
 0002:0000cd3c       $chain$57$little2_prologTok 000000018003bd3c     libexpat:xmltok.obj
 0002:0000cd5c       $chain$59$little2_prologTok 000000018003bd5c     libexpat:xmltok.obj
 0002:0000cd6c       $chain$0$little2_attributeValueTok 000000018003bd6c     libexpat:xmltok.obj
 0002:0000cd80       $chain$8$little2_attributeValueTok 000000018003bd80     libexpat:xmltok.obj
 0002:0000cd80       $chain$2$little2_attributeValueTok 000000018003bd80     libexpat:xmltok.obj
 0002:0000cd80       $chain$4$little2_attributeValueTok 000000018003bd80     libexpat:xmltok.obj
 0002:0000cd80       $chain$10$little2_attributeValueTok 000000018003bd80     libexpat:xmltok.obj
 0002:0000cd80       $chain$6$little2_attributeValueTok 000000018003bd80     libexpat:xmltok.obj
 0002:0000cd80       $chain$12$little2_attributeValueTok 000000018003bd80     libexpat:xmltok.obj
 0002:0000cd94       $chain$13$little2_attributeValueTok 000000018003bd94     libexpat:xmltok.obj
 0002:0000cda4       $chain$2$little2_entityValueTok 000000018003bda4     libexpat:xmltok.obj
 0002:0000cdc0       $chain$4$little2_entityValueTok 000000018003bdc0     libexpat:xmltok.obj
 0002:0000cdc0       $chain$10$little2_entityValueTok 000000018003bdc0     libexpat:xmltok.obj
 0002:0000cdc0       $chain$6$little2_entityValueTok 000000018003bdc0     libexpat:xmltok.obj
 0002:0000cdc0       $chain$8$little2_entityValueTok 000000018003bdc0     libexpat:xmltok.obj
 0002:0000cddc       $unwind$big2_ignoreSectionTok 000000018003bddc     libexpat:xmltok.obj
 0002:0000cddc       $unwind$little2_ignoreSectionTok 000000018003bddc     libexpat:xmltok.obj
 0002:0000cde8       $unwind$little2_getAtts    000000018003bde8     libexpat:xmltok.obj
 0002:0000ce04       $chain$0$big2_scanDecl     000000018003be04     libexpat:xmltok.obj
 0002:0000ce18       $chain$4$big2_scanDecl     000000018003be18     libexpat:xmltok.obj
 0002:0000ce18       $chain$2$big2_scanDecl     000000018003be18     libexpat:xmltok.obj
 0002:0000ce2c       $chain$5$big2_scanDecl     000000018003be2c     libexpat:xmltok.obj
 0002:0000ce3c       $chain$3$big2_scanPi       000000018003be3c     libexpat:xmltok.obj
 0002:0000ce5c       $chain$5$big2_scanPi       000000018003be5c     libexpat:xmltok.obj
 0002:0000ce7c       $chain$6$big2_scanPi       000000018003be7c     libexpat:xmltok.obj
 0002:0000ce7c       $chain$10$big2_scanPi      000000018003be7c     libexpat:xmltok.obj
 0002:0000ce7c       $chain$8$big2_scanPi       000000018003be7c     libexpat:xmltok.obj
 0002:0000ce94       $chain$11$big2_scanPi      000000018003be94     libexpat:xmltok.obj
 0002:0000cea4       $chain$0$big2_scanEndTag   000000018003bea4     libexpat:xmltok.obj
 0002:0000ceb8       $chain$16$big2_scanEndTag  000000018003beb8     libexpat:xmltok.obj
 0002:0000ceb8       $chain$6$big2_scanEndTag   000000018003beb8     libexpat:xmltok.obj
 0002:0000ceb8       $chain$8$big2_scanEndTag   000000018003beb8     libexpat:xmltok.obj
 0002:0000ceb8       $chain$14$big2_scanEndTag  000000018003beb8     libexpat:xmltok.obj
 0002:0000ceb8       $chain$12$big2_scanEndTag  000000018003beb8     libexpat:xmltok.obj
 0002:0000ceb8       $chain$4$big2_scanEndTag   000000018003beb8     libexpat:xmltok.obj
 0002:0000ceb8       $chain$10$big2_scanEndTag  000000018003beb8     libexpat:xmltok.obj
 0002:0000ceb8       $chain$2$big2_scanEndTag   000000018003beb8     libexpat:xmltok.obj
 0002:0000cecc       $chain$17$big2_scanEndTag  000000018003becc     libexpat:xmltok.obj
 0002:0000cedc       $chain$0$big2_scanRef      000000018003bedc     libexpat:xmltok.obj
 0002:0000cef0       $chain$14$big2_scanRef     000000018003bef0     libexpat:xmltok.obj
 0002:0000cef0       $chain$6$big2_scanRef      000000018003bef0     libexpat:xmltok.obj
 0002:0000cef0       $chain$16$big2_scanRef     000000018003bef0     libexpat:xmltok.obj
 0002:0000cef0       $chain$2$big2_scanRef      000000018003bef0     libexpat:xmltok.obj
 0002:0000cef0       $chain$10$big2_scanRef     000000018003bef0     libexpat:xmltok.obj
 0002:0000cef0       $chain$4$big2_scanRef      000000018003bef0     libexpat:xmltok.obj
 0002:0000cef0       $chain$8$big2_scanRef      000000018003bef0     libexpat:xmltok.obj
 0002:0000cef0       $chain$12$big2_scanRef     000000018003bef0     libexpat:xmltok.obj
 0002:0000cef0       $chain$18$big2_scanRef     000000018003bef0     libexpat:xmltok.obj
 0002:0000cf04       $chain$19$big2_scanRef     000000018003bf04     libexpat:xmltok.obj
 0002:0000cf14       $chain$3$big2_scanLt       000000018003bf14     libexpat:xmltok.obj
 0002:0000cf34       $chain$5$big2_scanLt       000000018003bf34     libexpat:xmltok.obj
 0002:0000cf54       $chain$14$big2_scanLt      000000018003bf54     libexpat:xmltok.obj
 0002:0000cf54       $chain$20$big2_scanLt      000000018003bf54     libexpat:xmltok.obj
 0002:0000cf54       $chain$16$big2_scanLt      000000018003bf54     libexpat:xmltok.obj
 0002:0000cf54       $chain$24$big2_scanLt      000000018003bf54     libexpat:xmltok.obj
 0002:0000cf54       $chain$22$big2_scanLt      000000018003bf54     libexpat:xmltok.obj
 0002:0000cf54       $chain$18$big2_scanLt      000000018003bf54     libexpat:xmltok.obj
 0002:0000cf54       $chain$10$big2_scanLt      000000018003bf54     libexpat:xmltok.obj
 0002:0000cf54       $chain$8$big2_scanLt       000000018003bf54     libexpat:xmltok.obj
 0002:0000cf54       $chain$6$big2_scanLt       000000018003bf54     libexpat:xmltok.obj
 0002:0000cf54       $chain$12$big2_scanLt      000000018003bf54     libexpat:xmltok.obj
 0002:0000cf6c       $chain$25$big2_scanLt      000000018003bf6c     libexpat:xmltok.obj
 0002:0000cf7c       $chain$0$big2_scanPercent  000000018003bf7c     libexpat:xmltok.obj
 0002:0000cf90       $chain$18$big2_scanPercent 000000018003bf90     libexpat:xmltok.obj
 0002:0000cf90       $chain$12$big2_scanPercent 000000018003bf90     libexpat:xmltok.obj
 0002:0000cf90       $chain$14$big2_scanPercent 000000018003bf90     libexpat:xmltok.obj
 0002:0000cf90       $chain$8$big2_scanPercent  000000018003bf90     libexpat:xmltok.obj
 0002:0000cf90       $chain$2$big2_scanPercent  000000018003bf90     libexpat:xmltok.obj
 0002:0000cf90       $chain$10$big2_scanPercent 000000018003bf90     libexpat:xmltok.obj
 0002:0000cf90       $chain$4$big2_scanPercent  000000018003bf90     libexpat:xmltok.obj
 0002:0000cf90       $chain$6$big2_scanPercent  000000018003bf90     libexpat:xmltok.obj
 0002:0000cf90       $chain$16$big2_scanPercent 000000018003bf90     libexpat:xmltok.obj
 0002:0000cfa4       $chain$19$big2_scanPercent 000000018003bfa4     libexpat:xmltok.obj
 0002:0000cfb4       $chain$0$big2_scanPoundName 000000018003bfb4     libexpat:xmltok.obj
 0002:0000cfc8       $chain$4$big2_scanPoundName 000000018003bfc8     libexpat:xmltok.obj
 0002:0000cfc8       $chain$12$big2_scanPoundName 000000018003bfc8     libexpat:xmltok.obj
 0002:0000cfc8       $chain$6$big2_scanPoundName 000000018003bfc8     libexpat:xmltok.obj
 0002:0000cfc8       $chain$8$big2_scanPoundName 000000018003bfc8     libexpat:xmltok.obj
 0002:0000cfc8       $chain$10$big2_scanPoundName 000000018003bfc8     libexpat:xmltok.obj
 0002:0000cfc8       $chain$14$big2_scanPoundName 000000018003bfc8     libexpat:xmltok.obj
 0002:0000cfc8       $chain$2$big2_scanPoundName 000000018003bfc8     libexpat:xmltok.obj
 0002:0000cfdc       $chain$15$big2_scanPoundName 000000018003bfdc     libexpat:xmltok.obj
 0002:0000cfec       $chain$1$big2_prologTok    000000018003bfec     libexpat:xmltok.obj
 0002:0000d004       $chain$41$big2_prologTok   000000018003c004     libexpat:xmltok.obj
 0002:0000d004       $chain$29$big2_prologTok   000000018003c004     libexpat:xmltok.obj
 0002:0000d004       $chain$27$big2_prologTok   000000018003c004     libexpat:xmltok.obj
 0002:0000d004       $chain$45$big2_prologTok   000000018003c004     libexpat:xmltok.obj
 0002:0000d004       $chain$39$big2_prologTok   000000018003c004     libexpat:xmltok.obj
 0002:0000d004       $chain$25$big2_prologTok   000000018003c004     libexpat:xmltok.obj
 0002:0000d004       $chain$23$big2_prologTok   000000018003c004     libexpat:xmltok.obj
 0002:0000d004       $chain$21$big2_prologTok   000000018003c004     libexpat:xmltok.obj
 0002:0000d004       $chain$19$big2_prologTok   000000018003c004     libexpat:xmltok.obj
 0002:0000d004       $chain$17$big2_prologTok   000000018003c004     libexpat:xmltok.obj
 0002:0000d004       $chain$51$big2_prologTok   000000018003c004     libexpat:xmltok.obj
 0002:0000d004       $chain$58$big2_prologTok   000000018003c004     libexpat:xmltok.obj
 0002:0000d004       $chain$15$big2_prologTok   000000018003c004     libexpat:xmltok.obj
 0002:0000d004       $chain$13$big2_prologTok   000000018003c004     libexpat:xmltok.obj
 0002:0000d004       $chain$31$big2_prologTok   000000018003c004     libexpat:xmltok.obj
 0002:0000d004       $chain$47$big2_prologTok   000000018003c004     libexpat:xmltok.obj
 0002:0000d004       $chain$11$big2_prologTok   000000018003c004     libexpat:xmltok.obj
 0002:0000d004       $chain$9$big2_prologTok    000000018003c004     libexpat:xmltok.obj
 0002:0000d004       $chain$7$big2_prologTok    000000018003c004     libexpat:xmltok.obj
 0002:0000d004       $chain$5$big2_prologTok    000000018003c004     libexpat:xmltok.obj
 0002:0000d004       $chain$49$big2_prologTok   000000018003c004     libexpat:xmltok.obj
 0002:0000d004       $chain$37$big2_prologTok   000000018003c004     libexpat:xmltok.obj
 0002:0000d004       $chain$3$big2_prologTok    000000018003c004     libexpat:xmltok.obj
 0002:0000d004       $chain$33$big2_prologTok   000000018003c004     libexpat:xmltok.obj
 0002:0000d004       $chain$43$big2_prologTok   000000018003c004     libexpat:xmltok.obj
 0002:0000d004       $chain$35$big2_prologTok   000000018003c004     libexpat:xmltok.obj
 0002:0000d01c       $chain$55$big2_prologTok   000000018003c01c     libexpat:xmltok.obj
 0002:0000d03c       $chain$57$big2_prologTok   000000018003c03c     libexpat:xmltok.obj
 0002:0000d05c       $chain$59$big2_prologTok   000000018003c05c     libexpat:xmltok.obj
 0002:0000d06c       $chain$0$big2_attributeValueTok 000000018003c06c     libexpat:xmltok.obj
 0002:0000d080       $chain$4$big2_attributeValueTok 000000018003c080     libexpat:xmltok.obj
 0002:0000d080       $chain$10$big2_attributeValueTok 000000018003c080     libexpat:xmltok.obj
 0002:0000d080       $chain$12$big2_attributeValueTok 000000018003c080     libexpat:xmltok.obj
 0002:0000d080       $chain$8$big2_attributeValueTok 000000018003c080     libexpat:xmltok.obj
 0002:0000d080       $chain$2$big2_attributeValueTok 000000018003c080     libexpat:xmltok.obj
 0002:0000d080       $chain$6$big2_attributeValueTok 000000018003c080     libexpat:xmltok.obj
 0002:0000d094       $chain$13$big2_attributeValueTok 000000018003c094     libexpat:xmltok.obj
 0002:0000d0a4       $chain$2$big2_entityValueTok 000000018003c0a4     libexpat:xmltok.obj
 0002:0000d0c0       $chain$8$big2_entityValueTok 000000018003c0c0     libexpat:xmltok.obj
 0002:0000d0c0       $chain$10$big2_entityValueTok 000000018003c0c0     libexpat:xmltok.obj
 0002:0000d0c0       $chain$6$big2_entityValueTok 000000018003c0c0     libexpat:xmltok.obj
 0002:0000d0c0       $chain$4$big2_entityValueTok 000000018003c0c0     libexpat:xmltok.obj
 0002:0000d0dc       $unwind$toAscii            000000018003c0dc     libexpat:xmltok.obj
 0002:0000d0e4       $unwind$parsePseudoAttribute 000000018003c0e4     libexpat:xmltok.obj
 0002:0000d0f8       $unwind$doParseXmlDecl     000000018003c0f8     libexpat:xmltok.obj
 0002:0000d10c       $chain$0$doParseXmlDecl    000000018003c10c     libexpat:xmltok.obj
 0002:0000d120       $chain$2$doParseXmlDecl    000000018003c120     libexpat:xmltok.obj
 0002:0000d134       $chain$3$doParseXmlDecl    000000018003c134     libexpat:xmltok.obj
 0002:0000d144       $unwind$XmlInitUnknownEncoding 000000018003c144     libexpat:xmltok.obj
 0002:0000d154       $chain$2$XmlInitUnknownEncoding 000000018003c154     libexpat:xmltok.obj
 0002:0000d170       $chain$3$XmlInitUnknownEncoding 000000018003c170     libexpat:xmltok.obj
 0002:0000d180       $chain$4$XmlInitUnknownEncoding 000000018003c180     libexpat:xmltok.obj
 0002:0000d19c       $unwind$initScanContentNS  000000018003c19c     libexpat:xmltok.obj
 0002:0000d19c       $unwind$getEncodingIndex   000000018003c19c     libexpat:xmltok.obj
 0002:0000d19c       $unwind$__GSHandlerCheckCommon 000000018003c19c     LIBCMT:_gshandler_.obj
 0002:0000d19c       $unwind$initScanContent    000000018003c19c     libexpat:xmltok.obj
 0002:0000d1a4       $chain$0$getEncodingIndex  000000018003c1a4     libexpat:xmltok.obj
 0002:0000d1b8       $chain$2$getEncodingIndex  000000018003c1b8     libexpat:xmltok.obj
 0002:0000d1cc       $chain$0$initScanProlog    000000018003c1cc     libexpat:xmltok.obj
 0002:0000d1e0       $chain$6$initScanProlog    000000018003c1e0     libexpat:xmltok.obj
 0002:0000d1e0       $chain$10$initScanProlog   000000018003c1e0     libexpat:xmltok.obj
 0002:0000d1e0       $chain$2$initScanProlog    000000018003c1e0     libexpat:xmltok.obj
 0002:0000d1e0       $chain$4$initScanProlog    000000018003c1e0     libexpat:xmltok.obj
 0002:0000d1e0       $chain$12$initScanProlog   000000018003c1e0     libexpat:xmltok.obj
 0002:0000d1e0       $chain$8$initScanProlog    000000018003c1e0     libexpat:xmltok.obj
 0002:0000d1f4       $unwind$findEncodingNS     000000018003c1f4     libexpat:xmltok.obj
 0002:0000d1f4       $unwind$findEncoding       000000018003c1f4     libexpat:xmltok.obj
 0002:0000d208       $chain$0$findEncoding      000000018003c208     libexpat:xmltok.obj
 0002:0000d21c       $chain$1$findEncoding      000000018003c21c     libexpat:xmltok.obj
 0002:0000d22c       $unwind$XmlParseXmlDecl    000000018003c22c     libexpat:xmltok.obj
 0002:0000d22c       $unwind$XmlParseXmlDeclNS  000000018003c22c     libexpat:xmltok.obj
 0002:0000d234       $chain$0$initScanPrologNS  000000018003c234     libexpat:xmltok.obj
 0002:0000d248       $chain$10$initScanPrologNS 000000018003c248     libexpat:xmltok.obj
 0002:0000d248       $chain$2$initScanPrologNS  000000018003c248     libexpat:xmltok.obj
 0002:0000d248       $chain$6$initScanPrologNS  000000018003c248     libexpat:xmltok.obj
 0002:0000d248       $chain$4$initScanPrologNS  000000018003c248     libexpat:xmltok.obj
 0002:0000d248       $chain$12$initScanPrologNS 000000018003c248     libexpat:xmltok.obj
 0002:0000d248       $chain$8$initScanPrologNS  000000018003c248     libexpat:xmltok.obj
 0002:0000d25c       $chain$0$findEncodingNS    000000018003c25c     libexpat:xmltok.obj
 0002:0000d270       $chain$1$findEncodingNS    000000018003c270     libexpat:xmltok.obj
 0002:0000d280       $chain$0$doctype1          000000018003c280     libexpat:xmlrole.obj
 0002:0000d294       $chain$3$doctype1          000000018003c294     libexpat:xmlrole.obj
 0002:0000d294       $chain$1$doctype1          000000018003c294     libexpat:xmlrole.obj
 0002:0000d2a4       $chain$2$doctype1          000000018003c2a4     libexpat:xmlrole.obj
 0002:0000d2b8       $chain$0$entity2           000000018003c2b8     libexpat:xmlrole.obj
 0002:0000d2cc       $chain$3$entity2           000000018003c2cc     libexpat:xmlrole.obj
 0002:0000d2cc       $chain$1$entity2           000000018003c2cc     libexpat:xmlrole.obj
 0002:0000d2dc       $chain$2$entity2           000000018003c2dc     libexpat:xmlrole.obj
 0002:0000d2f0       $chain$0$entity7           000000018003c2f0     libexpat:xmlrole.obj
 0002:0000d304       $chain$3$entity7           000000018003c304     libexpat:xmlrole.obj
 0002:0000d304       $chain$1$entity7           000000018003c304     libexpat:xmlrole.obj
 0002:0000d314       $chain$2$entity7           000000018003c314     libexpat:xmlrole.obj
 0002:0000d328       $chain$0$notation1         000000018003c328     libexpat:xmlrole.obj
 0002:0000d33c       $chain$1$notation1         000000018003c33c     libexpat:xmlrole.obj
 0002:0000d33c       $chain$3$notation1         000000018003c33c     libexpat:xmlrole.obj
 0002:0000d34c       $chain$2$notation1         000000018003c34c     libexpat:xmlrole.obj
 0002:0000d360       $unwind$attlist2           000000018003c360     libexpat:xmlrole.obj
 0002:0000d370       $chain$3$attlist2          000000018003c370     libexpat:xmlrole.obj
 0002:0000d390       $chain$5$attlist2          000000018003c390     libexpat:xmlrole.obj
 0002:0000d3b0       $chain$6$attlist2          000000018003c3b0     libexpat:xmlrole.obj
 0002:0000d3c0       $chain$0$attlist8          000000018003c3c0     libexpat:xmlrole.obj
 0002:0000d3d4       $chain$1$attlist8          000000018003c3d4     libexpat:xmlrole.obj
 0002:0000d3d4       $chain$3$attlist8          000000018003c3d4     libexpat:xmlrole.obj
 0002:0000d3e4       $chain$2$attlist8          000000018003c3e4     libexpat:xmlrole.obj
 0002:0000d3f8       $chain$0$element1          000000018003c3f8     libexpat:xmlrole.obj
 0002:0000d40c       $chain$1$element1          000000018003c40c     libexpat:xmlrole.obj
 0002:0000d40c       $chain$3$element1          000000018003c40c     libexpat:xmlrole.obj
 0002:0000d41c       $chain$2$element1          000000018003c41c     libexpat:xmlrole.obj
 0002:0000d430       $chain$0$condSect0         000000018003c430     libexpat:xmlrole.obj
 0002:0000d444       $chain$3$condSect0         000000018003c444     libexpat:xmlrole.obj
 0002:0000d444       $chain$1$condSect0         000000018003c444     libexpat:xmlrole.obj
 0002:0000d454       $chain$2$condSect0         000000018003c454     libexpat:xmlrole.obj
 0002:0000d468       xdata                      000000018003c468     node:node.exe
 0002:0000d470       $xdatasym                  000000018003c470     LIBCMT:_amdsecgs_.obj
 0002:0000d474       $unwind$?dllmain_crt_process_attach@@YAHQEAUHINSTANCE__@@QEAX@Z 000000018003c474     LIBCMT:dll_dllmain.obj
 0002:0000d4a0       $unwind$?dllmain_crt_process_detach@@YAH_N@Z 000000018003c4a0     LIBCMT:dll_dllmain.obj
 0002:0000d4c8       $unwind$?dllmain_dispatch@@YAHQEAUHINSTANCE__@@KQEAX@Z 000000018003c4c8     LIBCMT:dll_dllmain.obj
 0002:0000d4f0       $unwind$__report_securityfailure 000000018003c4f0     LIBCMT:gs_report.obj
 0002:0000d4f8       $unwind$capture_previous_context 000000018003c4f8     LIBCMT:gs_report.obj
 0002:0000d504       $unwind$__dcrt_lowio_initialize_console_output 000000018003c504     libucrt:initcon.obj
 0002:0000d504       $unwind$_raise_exc         000000018003c504     libucrt:fpexcept.obj
 0002:0000d504       $unwind$?__scrt_throw_std_bad_alloc@@YAXXZ 000000018003c504     LIBCMT:throw_bad_alloc.obj
 0002:0000d504       $unwind$?__scrt_throw_std_bad_array_new_length@@YAXXZ 000000018003c504     LIBCMT:throw_bad_alloc.obj
 0002:0000d50c       $unwind$__scrt_is_nonwritable_in_current_image 000000018003c50c     LIBCMT:utility.obj
 0002:0000d52c       $unwind$__scrt_is_nonwritable_in_current_image$filt$0 000000018003c52c     LIBCMT:utility.obj
 0002:0000d534       $unwind$__scrt_initialize_onexit_tables 000000018003c534     LIBCMT:utility.obj
 0002:0000d540       $unwind$__security_init_cookie 000000018003c540     LIBCMT:gs_support.obj
 0002:0000d54c       $unwind$__scrt_fastfail    000000018003c54c     LIBCMT:utility_desktop.obj
 0002:0000d55c       $unwind$__isa_available_init 000000018003c55c     LIBCMT:_cpu_disp_.obj
 0002:0000d568       $xdatasym                  000000018003c568     LIBCMT:_guard_dispatch_.obj
 0002:0000d570       $xdatasym                  000000018003c570     libvcruntime:memcpy.obj
 0002:0000d574       $unwind$__telemetry_main_return_trigger 000000018003c574     libvcruntime:telemetry.obj
 0002:0000d574       $unwind$__telemetry_main_invoke_trigger 000000018003c574     libvcruntime:telemetry.obj
 0002:0000d58c       $unwind$?_TlgEnableCallback@__vcrt_trace_logging_provider@@YAXPEBU_GUID@@KE_K1PEAU_EVENT_FILTER_DESCRIPTOR@@PEAX@Z 000000018003c58c     libvcruntime:telemetry.obj
 0002:0000d5a8       $unwind$__C_specific_handler 000000018003c5a8     libvcruntime:_chandler_.obj
 0002:0000d5c4       $unwind$_CxxThrowException 000000018003c5c4     libvcruntime:throw.obj
 0002:0000d5d8       $xdatasym                  000000018003c5d8     libvcruntime:memset.obj
 0002:0000d5dc       $unwind$__acrt_initialize_winapi_thunks 000000018003c5dc     libucrt:winapi_thunks.obj
 0002:0000d5dc       $unwind$__vcrt_initialize_winapi_thunks 000000018003c5dc     libvcruntime:winapi_downlevel.obj
 0002:0000d5e8       $xdatasym                  000000018003c5e8     libvcruntime:_jmpuwind_.obj
 0002:0000d5fc       $unwind$fwprintf           000000018003c5fc     libucrt:assert.obj
 0002:0000d608       $unwind$swprintf           000000018003c608     libucrt:assert.obj
 0002:0000d618       $unwind$??$common_assert_to_stderr@_W@@YAXQEB_W0I@Z 000000018003c618     libucrt:assert.obj
 0002:0000d634       $unwind$??$common_assert_to_message_box@_W@@YAXQEB_W0IQEAX@Z 000000018003c634     libucrt:assert.obj
 0002:0000d650       $unwind$??$common_assert_to_message_box_build_string@_W@@YAXQEA_W_KQEB_W2IQEAX@Z 000000018003c650     libucrt:assert.obj
 0002:0000d670       $unwind$?x_ismbbtype_l@@YAHPEAU__crt_locale_pointers@@IHH@Z 000000018003c670     libucrt:ismbbyte.obj
 0002:0000d670       $unwind$_stricmp_l         000000018003c670     libucrt:stricmp.obj
 0002:0000d680       $unwind$_query_new_handler 000000018003c680     libucrt:new_handler.obj
 0002:0000d6a0       $unwind$?common_exit@@YAXHW4_crt_exit_cleanup_mode@@W4_crt_exit_return_mode@@@Z 000000018003c6a0     libucrt:exit.obj
 0002:0000d6e0       $unwind$_configure_narrow_argv 000000018003c6e0     libucrt:argv_parsing.obj
 0002:0000d6f4       $unwind$??$create_environment@D@@YAQEAPEADQEAD@Z 000000018003c6f4     libucrt:environment_initialization.obj
 0002:0000d70c       $unwind$_register_onexit_function 000000018003c70c     libucrt:onexit.obj
 0002:0000d714       $unwind$_execute_onexit_table 000000018003c714     libucrt:onexit.obj
 0002:0000d71c       $unwind$??$parse_command_line@D@@YAXPEADPEAPEAD0PEA_K2@Z 000000018003c71c     libucrt:argv_parsing.obj
 0002:0000d71c       $unwind$??R<lambda_4e60a939b0d047cfe11ddc22648dfba9>@@QEBAHXZ 000000018003c71c     libucrt:onexit.obj
 0002:0000d738       $unwind$??$?RV<lambda_b8c45f8f788dd370798f47cfe8ac3a86>@@AEAV<lambda_4e60a939b0d047cfe11ddc22648dfba9>@@V<lambda_332c3edc96d0294ec56c57d38c1cdfd5>@@@?$__crt_seh_guarded_call@H@@QEAAH$$QEAV<lambda_b8c45f8f788dd370798f47cfe8ac3a86>@@AEAV<lambda_4e60a939b0d047cfe11ddc22648dfba9>@@$$QEAV<lambda_332c3edc96d0294ec56c57d38c1cdfd5>@@@Z 000000018003c738     libucrt:onexit.obj
 0002:0000d75c       $unwind$??$?RV<lambda_e24bbb7b643b32fcea6fa61b31d4c984>@@AEAV<lambda_275893d493268fdec8709772e3fcec0e>@@V<lambda_9d71df4d7cf3f480f8d633942495c3b0>@@@?$__crt_seh_guarded_call@H@@QEAAH$$QEAV<lambda_e24bbb7b643b32fcea6fa61b31d4c984>@@AEAV<lambda_275893d493268fdec8709772e3fcec0e>@@$$QEAV<lambda_9d71df4d7cf3f480f8d633942495c3b0>@@@Z 000000018003c75c     libucrt:onexit.obj
 0002:0000d78c       $unwind$terminate          000000018003c78c     libucrt:terminate.obj
 0002:0000d7ac       $unwind$__stdio_common_vfwprintf 000000018003c7ac     libucrt:output.obj
 0002:0000d7b4       $unwind$__stdio_common_vswprintf 000000018003c7b4     libucrt:output.obj
 0002:0000d7d8       $unwind$?write_string@?$stream_output_adapter@_W@__crt_stdio_output@@QEBAXQEB_WHQEAH1@Z 000000018003c7d8     libucrt:output.obj
 0002:0000d7f0       $unwind$?process@?$output_processor@_WV?$stream_output_adapter@_W@__crt_stdio_output@@V?$standard_base@_WV?$stream_output_adapter@_W@__crt_stdio_output@@@2@@__crt_stdio_output@@QEAAHXZ 000000018003c7f0     libucrt:output.obj
 0002:0000d808       $unwind$?write_stored_string_tchar@?$output_processor@_WV?$stream_output_adapter@_W@__crt_stdio_output@@V?$standard_base@_WV?$stream_output_adapter@_W@__crt_stdio_output@@@2@@__crt_stdio_output@@AEAA_N_W@Z 000000018003c808     libucrt:output.obj
 0002:0000d81c       $unwind$??R<lambda_dd75445284c072d0bd3768540cc698fa>@@QEBAHXZ 000000018003c81c     libucrt:output.obj
 0002:0000d838       $unwind$?state_case_type@?$output_processor@_WV?$stream_output_adapter@_W@__crt_stdio_output@@V?$standard_base@_WV?$stream_output_adapter@_W@__crt_stdio_output@@@2@@__crt_stdio_output@@AEAA_NXZ 000000018003c838     libucrt:output.obj
 0002:0000d838       $unwind$?state_case_type@?$output_processor@_WV?$string_output_adapter@_W@__crt_stdio_output@@V?$standard_base@_WV?$string_output_adapter@_W@__crt_stdio_output@@@2@@__crt_stdio_output@@AEAA_NXZ 000000018003c838     libucrt:output.obj
 0002:0000d85c       $unwind$?type_case_a@?$output_processor@_WV?$string_output_adapter@_W@__crt_stdio_output@@V?$standard_base@_WV?$string_output_adapter@_W@__crt_stdio_output@@@2@@__crt_stdio_output@@AEAA_NXZ 000000018003c85c     libucrt:output.obj
 0002:0000d85c       $unwind$?type_case_a@?$output_processor@_WV?$stream_output_adapter@_W@__crt_stdio_output@@V?$standard_base@_WV?$stream_output_adapter@_W@__crt_stdio_output@@@2@@__crt_stdio_output@@AEAA_NXZ 000000018003c85c     libucrt:output.obj
 0002:0000d86c       $unwind$?write_stored_string_tchar@?$output_processor@_WV?$string_output_adapter@_W@__crt_stdio_output@@V?$standard_base@_WV?$string_output_adapter@_W@__crt_stdio_output@@@2@@__crt_stdio_output@@AEAA_N_W@Z 000000018003c86c     libucrt:output.obj
 0002:0000d880       $unwind$??$write_multiple_characters@V?$stream_output_adapter@_W@__crt_stdio_output@@D@__crt_stdio_output@@YAXAEBV?$stream_output_adapter@_W@0@DHQEAH@Z 000000018003c880     libucrt:output.obj
 0002:0000d898       $unwind$??$write_multiple_characters@V?$string_output_adapter@_W@__crt_stdio_output@@D@__crt_stdio_output@@YAXAEBV?$string_output_adapter@_W@0@DHQEAH@Z 000000018003c898     libucrt:output.obj
 0002:0000d8a4       $unwind$??$?RV<lambda_7b91131dde12e1c3dfc74ff76b3f2eac>@@AEAV<lambda_dd75445284c072d0bd3768540cc698fa>@@V<lambda_16bc4ecb55b4718497c16bceaea2ceaf>@@@?$__crt_seh_guarded_call@H@@QEAAH$$QEAV<lambda_7b91131dde12e1c3dfc74ff76b3f2eac>@@AEAV<lambda_dd75445284c072d0bd3768540cc698fa>@@$$QEAV<lambda_16bc4ecb55b4718497c16bceaea2ceaf>@@@Z 000000018003c8a4     libucrt:output.obj
 0002:0000d8c8       $unwind$??$parse_integer@KV?$c_string_character_source@_W@__crt_strtox@@@__crt_strtox@@YAKQEAU__crt_locale_pointers@@V?$c_string_character_source@_W@0@H_N@Z 000000018003c8c8     libucrt:atox.obj
 0002:0000d8e4       $unwind$__acrt_call_reportfault 000000018003c8e4     libucrt:invalid_parameter.obj
 0002:0000d904       $unwind$__vcrt_EventWriteTransfer 000000018003c904     libvcruntime:winapi_downlevel.obj
 0002:0000d904       $unwind$_invalid_parameter 000000018003c904     libucrt:invalid_parameter.obj
 0002:0000d91c       $unwind$?process@?$output_processor@_WV?$string_output_adapter@_W@__crt_stdio_output@@V?$standard_base@_WV?$string_output_adapter@_W@__crt_stdio_output@@@2@@__crt_stdio_output@@QEAAHXZ 000000018003c91c     libucrt:output.obj
 0002:0000d91c       $unwind$_initterm          000000018003c91c     libucrt:initterm.obj
 0002:0000d91c       $unwind$__acrt_MessageBoxW 000000018003c91c     libucrt:winapi_thunks.obj
 0002:0000d91c       $unwind$__acrt_initialize_stdio 000000018003c91c     libucrt:_file.obj
 0002:0000d91c       $unwind$__vcrt_EventSetInformation 000000018003c91c     libvcruntime:winapi_downlevel.obj
 0002:0000d91c       $unwind$__vcrt_EventRegister 000000018003c91c     libvcruntime:winapi_downlevel.obj
 0002:0000d934       $unwind$fflush             000000018003c934     libucrt:fflush.obj
 0002:0000d958       $unwind$common_flush_all   000000018003c958     libucrt:fflush.obj
 0002:0000d994       $unwind$setvbuf            000000018003c994     libucrt:setvbuf.obj
 0002:0000d99c       $unwind$??R<lambda_b721fa326cdb32351d23dfa67958c160>@@QEBAHXZ 000000018003c99c     libucrt:setvbuf.obj
 0002:0000d99c       $unwind$?type_case_c_tchar@?$output_processor@_WV?$stream_output_adapter@_W@__crt_stdio_output@@V?$standard_base@_WV?$stream_output_adapter@_W@__crt_stdio_output@@@2@@__crt_stdio_output@@AEAA_N_W@Z 000000018003c99c     libucrt:output.obj
 0002:0000d99c       $unwind$?type_case_c_tchar@?$output_processor@_WV?$string_output_adapter@_W@__crt_stdio_output@@V?$standard_base@_WV?$string_output_adapter@_W@__crt_stdio_output@@@2@@__crt_stdio_output@@AEAA_N_W@Z 000000018003c99c     libucrt:output.obj
 0002:0000d9ac       $unwind$??$?RV<lambda_7a5ef57ff966f610505f1d28a3d40618>@@AEAV<lambda_b721fa326cdb32351d23dfa67958c160>@@V<lambda_5e0fb27672408a07956fe59e48ccb2aa>@@@?$__crt_seh_guarded_call@H@@QEAAH$$QEAV<lambda_7a5ef57ff966f610505f1d28a3d40618>@@AEAV<lambda_b721fa326cdb32351d23dfa67958c160>@@$$QEAV<lambda_5e0fb27672408a07956fe59e48ccb2aa>@@@Z 000000018003c9ac     libucrt:setvbuf.obj
 0002:0000d9d0       $unwind$__acrt_get_sigabrt_handler 000000018003c9d0     libucrt:signal.obj
 0002:0000d9d8       $unwind$raise              000000018003c9d8     libucrt:signal.obj
 0002:0000da04       $unwind$??$?RV<lambda_c36588078e9f5dfd39652860aa6b3aaf>@@AEAV<lambda_ec61778202f4f5fc7e7711acc23c3bca>@@V<lambda_dc9d2797ccde5d239b4a0efae8ebd7db>@@@?$__crt_seh_guarded_call@P6AXH@Z@@QEAAP6AXH@Z$$QEAV<lambda_c36588078e9f5dfd39652860aa6b3aaf>@@AEAV<lambda_ec61778202f4f5fc7e7711acc23c3bca>@@$$QEAV<lambda_dc9d2797ccde5d239b4a0efae8ebd7db>@@@Z 000000018003ca04     libucrt:signal.obj
 0002:0000da28       $unwind$_tolower_l         000000018003ca28     libucrt:tolower_toupper.obj
 0002:0000da38       $unwind$?construct_ptd_array@@YAXQEAU__acrt_ptd@@@Z 000000018003ca38     libucrt:per_thread_data.obj
 0002:0000da40       $unwind$?destroy_ptd_array@@YAXQEAU__acrt_ptd@@@Z 000000018003ca40     libucrt:per_thread_data.obj
 0002:0000da48       $unwind$??$?RV<lambda_72d1df2b273a38828b1ce30cbf4cdab5>@@AEAV<lambda_876a65b173b8412d3a47c70a915b0cf4>@@V<lambda_41932305e351933ebe8f8be3ed8bb5dc>@@@?$__crt_seh_guarded_call@X@@QEAAX$$QEAV<lambda_72d1df2b273a38828b1ce30cbf4cdab5>@@AEAV<lambda_876a65b173b8412d3a47c70a915b0cf4>@@$$QEAV<lambda_41932305e351933ebe8f8be3ed8bb5dc>@@@Z 000000018003ca48     libucrt:per_thread_data.obj
 0002:0000da6c       $unwind$??$?RV<lambda_5e887d1dcbef67a5eb4283622ba103bf>@@AEAV<lambda_4466841279450cc726390878d4a41900>@@V<lambda_341c25c0346d94847f1f3c463c57e077>@@@?$__crt_seh_guarded_call@X@@QEAAX$$QEAV<lambda_5e887d1dcbef67a5eb4283622ba103bf>@@AEAV<lambda_4466841279450cc726390878d4a41900>@@$$QEAV<lambda_341c25c0346d94847f1f3c463c57e077>@@@Z 000000018003ca6c     libucrt:per_thread_data.obj
 0002:0000da90       $unwind$??$?RV<lambda_46352004c1216016012b18bd6f87e700>@@AEAV<lambda_3bd07e1a1191394380780325891bf33f>@@V<lambda_334532d3f185bcaa59b5be82d7d22bff>@@@?$__crt_seh_guarded_call@X@@QEAAX$$QEAV<lambda_46352004c1216016012b18bd6f87e700>@@AEAV<lambda_3bd07e1a1191394380780325891bf33f>@@$$QEAV<lambda_334532d3f185bcaa59b5be82d7d22bff>@@@Z 000000018003ca90     libucrt:per_thread_data.obj
 0002:0000dab4       $unwind$??$?RV<lambda_fb3a7dec4e47f37f22dae91bb15c9095>@@AEAV<lambda_698284760c8add0bfb0756c19673e34b>@@V<lambda_dfb8eca1e75fef3034a8fb18dd509707>@@@?$__crt_seh_guarded_call@X@@QEAAX$$QEAV<lambda_fb3a7dec4e47f37f22dae91bb15c9095>@@AEAV<lambda_698284760c8add0bfb0756c19673e34b>@@$$QEAV<lambda_dfb8eca1e75fef3034a8fb18dd509707>@@@Z 000000018003cab4     libucrt:per_thread_data.obj
 0002:0000dad8       $unwind$__acrt_uninitialize_locale 000000018003cad8     libucrt:wsetlocale.obj
 0002:0000daf8       $unwind$__acrt_is_interactive 000000018003caf8     libucrt:winapi_thunks.obj
 0002:0000db0c       $unwind$?try_get_function@@YAPEAXW4function_id@?A0x63058377@@QEBDQEBW4module_id@2@2@Z 000000018003cb0c     libucrt:winapi_thunks.obj
 0002:0000db0c       $unwind$?try_get_function@@YAPEAXW4function_id@?A0x49c8dc86@@QEBDQEBW4module_id@2@2@Z 000000018003cb0c     libvcruntime:winapi_downlevel.obj
 0002:0000db0c       $unwind$?write_string@?$string_output_adapter@_W@__crt_stdio_output@@QEBAXQEB_WHQEAH1@Z 000000018003cb0c     libucrt:output.obj
 0002:0000db28       $unwind$??$common_expand_argv_wildcards@D@@YAHQEAPEADQEAPEAPEAD@Z 000000018003cb28     libucrt:argv_wildcards.obj
 0002:0000db40       $unwind$??$copy_and_add_argument_to_buffer@D@@YAHQEBD0_KAEAV?$argument_list@D@?A0xca0879c4@@@Z 000000018003cb40     libucrt:argv_wildcards.obj
 0002:0000db5c       $unwind$??$expand_argument_wildcards@D@@YAHQEAD0AEAV?$argument_list@D@?A0xca0879c4@@@Z 000000018003cb5c     libucrt:argv_wildcards.obj
 0002:0000db7c       $unwind$__acrt_update_thread_multibyte_data 000000018003cb7c     libucrt:mbctype.obj
 0002:0000dba0       $unwind$_setmbcp_nolock    000000018003cba0     libucrt:mbctype.obj
 0002:0000dbc0       $unwind$?setSBUpLow@@YAXPEAU__crt_multibyte_data@@@Z 000000018003cbc0     libucrt:mbctype.obj
 0002:0000dbdc       $unwind$?setmbcp_internal@@YAHH_N@Z 000000018003cbdc     libucrt:mbctype.obj
 0002:0000dbec       $unwind$??$?RV<lambda_99476a1ad63dd22509b5d3e65b0ffc95>@@AEAV<lambda_ad1ced32f4ac17aa236e5ef05d6b3b7c>@@V<lambda_f7424dd8d45958661754dc4f2697e9c3>@@@?$__crt_seh_guarded_call@X@@QEAAX$$QEAV<lambda_99476a1ad63dd22509b5d3e65b0ffc95>@@AEAV<lambda_ad1ced32f4ac17aa236e5ef05d6b3b7c>@@$$QEAV<lambda_f7424dd8d45958661754dc4f2697e9c3>@@@Z 000000018003cbec     libucrt:mbctype.obj
 0002:0000dc10       $unwind$__acrt_initialize_lowio 000000018003cc10     libucrt:ioinit.obj
 0002:0000dc30       $unwind$fclose$fin$0       000000018003cc30     libucrt:fclose.obj
 0002:0000dc30       $unwind$?fin$0@?0???$?RV<lambda_72d1df2b273a38828b1ce30cbf4cdab5>@@AEAV<lambda_876a65b173b8412d3a47c70a915b0cf4>@@V<lambda_41932305e351933ebe8f8be3ed8bb5dc>@@@?$__crt_seh_guarded_call@X@@QEAAX$$QEAV<lambda_72d1df2b273a38828b1ce30cbf4cdab5>@@AEAV<lambda_876a65b173b8412d3a47c70a915b0cf4>@@$$QEAV<lambda_41932305e351933ebe8f8be3ed8bb5dc>@@@Z@4HA 000000018003cc30     libucrt:per_thread_data.obj
 0002:0000dc30       $unwind$_fcloseall$fin$0   000000018003cc30     libucrt:closeall.obj
 0002:0000dc30       $unwind$?fin$0@?0???$?RV<lambda_b8c45f8f788dd370798f47cfe8ac3a86>@@AEAV<lambda_4e60a939b0d047cfe11ddc22648dfba9>@@V<lambda_332c3edc96d0294ec56c57d38c1cdfd5>@@@?$__crt_seh_guarded_call@H@@QEAAH$$QEAV<lambda_b8c45f8f788dd370798f47cfe8ac3a86>@@AEAV<lambda_4e60a939b0d047cfe11ddc22648dfba9>@@$$QEAV<lambda_332c3edc96d0294ec56c57d38c1cdfd5>@@@Z@4HA 000000018003cc30     libucrt:onexit.obj
 0002:0000dc30       $unwind$?fin$0@?0???$?RV<lambda_e24bbb7b643b32fcea6fa61b31d4c984>@@AEAV<lambda_275893d493268fdec8709772e3fcec0e>@@V<lambda_9d71df4d7cf3f480f8d633942495c3b0>@@@?$__crt_seh_guarded_call@H@@QEAAH$$QEAV<lambda_e24bbb7b643b32fcea6fa61b31d4c984>@@AEAV<lambda_275893d493268fdec8709772e3fcec0e>@@$$QEAV<lambda_9d71df4d7cf3f480f8d633942495c3b0>@@@Z@4HA 000000018003cc30     libucrt:onexit.obj
 0002:0000dc30       $unwind$?filt$0@?0??common_exit@@YAXHW4_crt_exit_cleanup_mode@@W4_crt_exit_return_mode@@@Z@4HA 000000018003cc30     libucrt:exit.obj
 0002:0000dc30       $unwind$?fin$0@?0???$?RV<lambda_46352004c1216016012b18bd6f87e700>@@AEAV<lambda_3bd07e1a1191394380780325891bf33f>@@V<lambda_334532d3f185bcaa59b5be82d7d22bff>@@@?$__crt_seh_guarded_call@X@@QEAAX$$QEAV<lambda_46352004c1216016012b18bd6f87e700>@@AEAV<lambda_3bd07e1a1191394380780325891bf33f>@@$$QEAV<lambda_334532d3f185bcaa59b5be82d7d22bff>@@@Z@4HA 000000018003cc30     libucrt:per_thread_data.obj
 0002:0000dc30       $unwind$?fin$1@?0??common_exit@@YAXHW4_crt_exit_cleanup_mode@@W4_crt_exit_return_mode@@@Z@4HA 000000018003cc30     libucrt:exit.obj
 0002:0000dc30       $unwind$common_flush_all$fin$1 000000018003cc30     libucrt:fflush.obj
 0002:0000dc30       $unwind$common_flush_all$fin$0 000000018003cc30     libucrt:fflush.obj
 0002:0000dc30       $unwind$fflush$fin$0       000000018003cc30     libucrt:fflush.obj
 0002:0000dc30       $unwind$raise$fin$0        000000018003cc30     libucrt:signal.obj
 0002:0000dc30       $unwind$?fin$0@?0???$?RV<lambda_c36588078e9f5dfd39652860aa6b3aaf>@@AEAV<lambda_ec61778202f4f5fc7e7711acc23c3bca>@@V<lambda_dc9d2797ccde5d239b4a0efae8ebd7db>@@@?$__crt_seh_guarded_call@P6AXH@Z@@QEAAP6AXH@Z$$QEAV<lambda_c36588078e9f5dfd39652860aa6b3aaf>@@AEAV<lambda_ec61778202f4f5fc7e7711acc23c3bca>@@$$QEAV<lambda_dc9d2797ccde5d239b4a0efae8ebd7db>@@@Z@4HA 000000018003cc30     libucrt:signal.obj
 0002:0000dc30       $unwind$_ctrlfp$filt$0     000000018003cc30     libucrt:fpctrl.obj
 0002:0000dc30       $unwind$?fin$0@?0???$?RV<lambda_fb3a7dec4e47f37f22dae91bb15c9095>@@AEAV<lambda_698284760c8add0bfb0756c19673e34b>@@V<lambda_dfb8eca1e75fef3034a8fb18dd509707>@@@?$__crt_seh_guarded_call@X@@QEAAX$$QEAV<lambda_fb3a7dec4e47f37f22dae91bb15c9095>@@AEAV<lambda_698284760c8add0bfb0756c19673e34b>@@$$QEAV<lambda_dfb8eca1e75fef3034a8fb18dd509707>@@@Z@4HA 000000018003cc30     libucrt:per_thread_data.obj
 0002:0000dc30       $unwind$_query_new_handler$fin$0 000000018003cc30     libucrt:new_handler.obj
 0002:0000dc30       $unwind$__acrt_update_thread_multibyte_data$fin$0 000000018003cc30     libucrt:mbctype.obj
 0002:0000dc30       $unwind$__acrt_update_thread_locale_data$fin$0 000000018003cc30     libucrt:locale_refcounting.obj
 0002:0000dc30       $unwind$?fin$0@?0???$?RV<lambda_7b91131dde12e1c3dfc74ff76b3f2eac>@@AEAV<lambda_dd75445284c072d0bd3768540cc698fa>@@V<lambda_16bc4ecb55b4718497c16bceaea2ceaf>@@@?$__crt_seh_guarded_call@H@@QEAAH$$QEAV<lambda_7b91131dde12e1c3dfc74ff76b3f2eac>@@AEAV<lambda_dd75445284c072d0bd3768540cc698fa>@@$$QEAV<lambda_16bc4ecb55b4718497c16bceaea2ceaf>@@@Z@4HA 000000018003cc30     libucrt:output.obj
 0002:0000dc30       $unwind$common_control87$filt$0 000000018003cc30     libucrt:ieee.obj
 0002:0000dc30       $unwind$?fin$0@?0??dllmain_crt_process_detach@@YAH_N@Z@4HA 000000018003cc30     LIBCMT:dll_dllmain.obj
 0002:0000dc30       $unwind$_IsNonwritableInCurrentImage$filt$0 000000018003cc30     LIBCMT:pesect.obj
 0002:0000dc30       $unwind$?fin$0@?0???$?RV<lambda_99476a1ad63dd22509b5d3e65b0ffc95>@@AEAV<lambda_ad1ced32f4ac17aa236e5ef05d6b3b7c>@@V<lambda_f7424dd8d45958661754dc4f2697e9c3>@@@?$__crt_seh_guarded_call@X@@QEAAX$$QEAV<lambda_99476a1ad63dd22509b5d3e65b0ffc95>@@AEAV<lambda_ad1ced32f4ac17aa236e5ef05d6b3b7c>@@$$QEAV<lambda_f7424dd8d45958661754dc4f2697e9c3>@@@Z@4HA 000000018003cc30     libucrt:mbctype.obj
 0002:0000dc30       $unwind$__acrt_uninitialize_locale$fin$0 000000018003cc30     libucrt:wsetlocale.obj
 0002:0000dc30       $unwind$_write$fin$0       000000018003cc30     libucrt:write.obj
 0002:0000dc30       $unwind$?fin$0@?0???$?RV<lambda_7a5ef57ff966f610505f1d28a3d40618>@@AEAV<lambda_b721fa326cdb32351d23dfa67958c160>@@V<lambda_5e0fb27672408a07956fe59e48ccb2aa>@@@?$__crt_seh_guarded_call@H@@QEAAH$$QEAV<lambda_7a5ef57ff966f610505f1d28a3d40618>@@AEAV<lambda_b721fa326cdb32351d23dfa67958c160>@@$$QEAV<lambda_5e0fb27672408a07956fe59e48ccb2aa>@@@Z@4HA 000000018003cc30     libucrt:setvbuf.obj
 0002:0000dc30       $unwind$?fin$0@?0???$?RV<lambda_bfedae4ebbf01fab1bb6dcc6a9e276e0>@@AEAV<lambda_2fe9b910cf3cbf4a0ab98a02ba45b3ec>@@V<lambda_237c231691f317818eb88cc1d5d642d6>@@@?$__crt_seh_guarded_call@H@@QEAAH$$QEAV<lambda_bfedae4ebbf01fab1bb6dcc6a9e276e0>@@AEAV<lambda_2fe9b910cf3cbf4a0ab98a02ba45b3ec>@@$$QEAV<lambda_237c231691f317818eb88cc1d5d642d6>@@@Z@4HA 000000018003cc30     libucrt:close.obj
 0002:0000dc30       $unwind$?fin$0@?0???$?RV<lambda_5e887d1dcbef67a5eb4283622ba103bf>@@AEAV<lambda_4466841279450cc726390878d4a41900>@@V<lambda_341c25c0346d94847f1f3c463c57e077>@@@?$__crt_seh_guarded_call@X@@QEAAX$$QEAV<lambda_5e887d1dcbef67a5eb4283622ba103bf>@@AEAV<lambda_4466841279450cc726390878d4a41900>@@$$QEAV<lambda_341c25c0346d94847f1f3c463c57e077>@@@Z@4HA 000000018003cc30     libucrt:per_thread_data.obj
 0002:0000dc30       $unwind$?fin$0@?0???$common_lseek@_J@@YA_JH_JH@Z@4HA 000000018003cc30     libucrt:lseek.obj
 0002:0000dc30       $unwind$?fin$0@?0???$?RV<lambda_b521505b218e5242e90febf6bfebc422>@@AEAV<lambda_6978c1fb23f02e42e1d9e99668cc68aa>@@V<lambda_314360699dd331753a4119843814e9a7>@@@?$__crt_seh_guarded_call@H@@QEAAH$$QEAV<lambda_b521505b218e5242e90febf6bfebc422>@@AEAV<lambda_6978c1fb23f02e42e1d9e99668cc68aa>@@$$QEAV<lambda_314360699dd331753a4119843814e9a7>@@@Z@4HA 000000018003cc30     libucrt:commit.obj
 0002:0000dc30       $unwind$__acrt_initialize_lowio$fin$0 000000018003cc30     libucrt:ioinit.obj
 0002:0000dc30       $unwind$__acrt_lowio_ensure_fh_exists$fin$0 000000018003cc30     libucrt:osfinfo.obj
 0002:0000dc30       $unwind$?fin$0@?0??dllmain_crt_process_attach@@YAHQEAUHINSTANCE__@@QEAX@Z@4HA 000000018003cc30     LIBCMT:dll_dllmain.obj
 0002:0000dc38       $unwind$?initialize_inherited_file_handles_nolock@@YAXXZ 000000018003cc38     libucrt:ioinit.obj
 0002:0000dc54       $unwind$__std_exception_copy 000000018003cc54     libvcruntime:std_exception.obj
 0002:0000dc54       $unwind$_free_osfhnd       000000018003cc54     libucrt:osfinfo.obj
 0002:0000dc54       $unwind$?initialize_stdio_handles_nolock@@YAXXZ 000000018003cc54     libucrt:ioinit.obj
 0002:0000dc68       $unwind$__acrt_stdio_end_temporary_buffering_nolock 000000018003cc68     libucrt:_sftbuf.obj
 0002:0000dc68       $unwind$__vcrt_uninitialize_winapi_thunks 000000018003cc68     libvcruntime:winapi_downlevel.obj
 0002:0000dc70       $unwind$_mbtowc_l          000000018003cc70     libucrt:mbtowc.obj
 0002:0000dc70       $unwind$__acrt_LCMapStringEx 000000018003cc70     libucrt:winapi_thunks.obj
 0002:0000dc70       $unwind$__acrt_show_wide_message_box 000000018003cc70     libucrt:crtmbox.obj
 0002:0000dc88       $unwind$_invalid_parameter_noinfo 000000018003cc88     libucrt:invalid_parameter.obj
 0002:0000dc88       $unwind$wctomb_s           000000018003cc88     libucrt:wctomb.obj
 0002:0000dc88       $unwind$_itow_s            000000018003cc88     libucrt:xtoa.obj
 0002:0000dc88       $unwind$_log10_special     000000018003cc88     libucrt:log_special.obj
 0002:0000dc90       $unwind$_wctomb_s_l        000000018003cc90     libucrt:wctomb.obj
 0002:0000dca0       $unwind$wcsnlen            000000018003cca0     libucrt:strnlen.obj
 0002:0000dca8       $unwind$__acrt_fp_format   000000018003cca8     libucrt:cvt.obj
 0002:0000dcc4       $unwind$?fp_format_nan_or_infinity@@YAHW4__acrt_fp_class@@_NPEAD_K1@Z 000000018003ccc4     libucrt:cvt.obj
 0002:0000dcd8       $unwind$?fp_format_e_internal@@YAHQEAD_KH_NIQEAU_strflt@@2QEAU__crt_locale_pointers@@@Z 000000018003ccd8     libucrt:cvt.obj
 0002:0000dcf0       $unwind$?fp_format_e@@YAHQEBNQEAD_K12H_NIQEAU__crt_locale_pointers@@@Z 000000018003ccf0     libucrt:cvt.obj
 0002:0000dd04       $unwind$?fp_format_a@@YAHQEBNPEAD_KQEAD2H_NIQEAU__crt_locale_pointers@@@Z 000000018003cd04     libucrt:cvt.obj
 0002:0000dd20       $unwind$__dcrt_get_narrow_environment_from_os 000000018003cd20     libucrt:get_environment_from_os.obj
 0002:0000dd20       $unwind$?fp_format_f_internal@@YAHQEAD_KHQEAU_strflt@@_NQEAU__crt_locale_pointers@@@Z 000000018003cd20     libucrt:cvt.obj
 0002:0000dd38       $unwind$?fp_format_g@@YAHQEBNQEAD_K12H_NIQEAU__crt_locale_pointers@@@Z 000000018003cd38     libucrt:cvt.obj
 0002:0000dd4c       $unwind$_fputwc_nolock     000000018003cd4c     libucrt:fputwc.obj
 0002:0000dd68       $unwind$_isctype_l         000000018003cd68     libucrt:isctype.obj
 0002:0000dd84       $unwind$_fcloseall         000000018003cd84     libucrt:closeall.obj
 0002:0000dda8       $unwind$??$?RV<lambda_b521505b218e5242e90febf6bfebc422>@@AEAV<lambda_6978c1fb23f02e42e1d9e99668cc68aa>@@V<lambda_314360699dd331753a4119843814e9a7>@@@?$__crt_seh_guarded_call@H@@QEAAH$$QEAV<lambda_b521505b218e5242e90febf6bfebc422>@@AEAV<lambda_6978c1fb23f02e42e1d9e99668cc68aa>@@$$QEAV<lambda_314360699dd331753a4119843814e9a7>@@@Z 000000018003cda8     libucrt:commit.obj
 0002:0000ddcc       $unwind$_write             000000018003cdcc     libucrt:write.obj
 0002:0000ddfc       $unwind$_write_nolock      000000018003cdfc     libucrt:write.obj
 0002:0000de14       $unwind$?write_double_translated_ansi_nolock@@YA?AUwrite_result@?A0x9c548279@@HQEBDI@Z 000000018003ce14     libucrt:write.obj
 0002:0000de34       $unwind$?write_text_ansi_nolock@@YA?AUwrite_result@?A0x9c548279@@HQEBDI@Z 000000018003ce34     libucrt:write.obj
 0002:0000de34       $unwind$?write_text_utf16le_nolock@@YA?AUwrite_result@?A0x9c548279@@HQEBDI@Z 000000018003ce34     libucrt:write.obj
 0002:0000de54       $unwind$?write_text_utf8_nolock@@YA?AUwrite_result@?A0x9c548279@@HQEBDI@Z 000000018003ce54     libucrt:write.obj
 0002:0000de78       $unwind$__acrt_LCMapStringA 000000018003ce78     libucrt:lcmapstringa.obj
 0002:0000de88       $unwind$?__acrt_LCMapStringA_stat@@YAHPEAU__crt_locale_pointers@@PEB_WKPEBDHPEADHHH@Z 000000018003ce88     libucrt:lcmapstringa.obj
 0002:0000deb0       $unwind$_free_base         000000018003ceb0     libucrt:free_base.obj
 0002:0000deb0       $unwind$__acrt_locale_free_lc_time_if_unreferenced 000000018003ceb0     libucrt:locale_refcounting.obj
 0002:0000deb0       $unwind$?destroy_fls@@YAXPEAX@Z 000000018003ceb0     libucrt:per_thread_data.obj
 0002:0000deb0       $unwind$__acrt_locale_free_numeric 000000018003ceb0     libucrt:initnum.obj
 0002:0000deb8       $unwind$__acrt_update_thread_locale_data 000000018003ceb8     libucrt:locale_refcounting.obj
 0002:0000dedc       $unwind$__acrt_locale_free_monetary 000000018003cedc     libucrt:initmon.obj
 0002:0000dee4       $unwind$__acrt_locale_free_time 000000018003cee4     libucrt:inittime.obj
 0002:0000def4       $unwind$__acrt_GetStringTypeA 000000018003cef4     libucrt:getstringtypea.obj
 0002:0000df1c       $unwind$?GetTableIndexFromLocaleName@@YAHPEB_W@Z 000000018003cf1c     libucrt:lcidtoname_downlevel.obj
 0002:0000df34       $unwind$qsort              000000018003cf34     libucrt:qsort.obj
 0002:0000df4c       $chain$4$qsort             000000018003cf4c     libucrt:qsort.obj
 0002:0000df70       $chain$5$qsort             000000018003cf70     libucrt:qsort.obj
 0002:0000df80       $unwind$?shortsort@@YAXPEAD0_KP6AHPEBX2@Z@Z 000000018003cf80     libucrt:qsort.obj
 0002:0000df90       $chain$2$?shortsort@@YAXPEAD0_KP6AHPEBX2@Z@Z 000000018003cf90     libucrt:qsort.obj
 0002:0000dfac       $chain$3$?shortsort@@YAXPEAD0_KP6AHPEBX2@Z@Z 000000018003cfac     libucrt:qsort.obj
 0002:0000dfbc       $unwind$strpbrk            000000018003cfbc     libucrt:strpbrk.obj
 0002:0000dfcc       $unwind$__acrt_lowio_destroy_handle_array 000000018003cfcc     libucrt:osfinfo.obj
 0002:0000dfdc       $unwind$__acrt_lowio_ensure_fh_exists 000000018003cfdc     libucrt:osfinfo.obj
 0002:0000e008       $unwind$__acrt_fltout      000000018003d008     libucrt:cfout.obj
 0002:0000e028       $unwind$?divide@__crt_strtox@@YA_KAEAUbig_integer@1@AEBU21@@Z 000000018003d028     libucrt:cfout.obj
 0002:0000e048       $chain$5$?divide@__crt_strtox@@YA_KAEAUbig_integer@1@AEBU21@@Z 000000018003d048     libucrt:cfout.obj
 0002:0000e05c       $chain$6$?divide@__crt_strtox@@YA_KAEAUbig_integer@1@AEBU21@@Z 000000018003d05c     libucrt:cfout.obj
 0002:0000e06c       $unwind$??$write_buffer_nolock@D@@YA_NDV__crt_stdio_stream@@@Z 000000018003d06c     libucrt:_flsbuf.obj
 0002:0000e07c       $unwind$??$write_buffer_nolock@_W@@YA_N_WV__crt_stdio_stream@@@Z 000000018003d07c     libucrt:_flsbuf.obj
 0002:0000e08c       $unwind$fclose             000000018003d08c     libucrt:fclose.obj
 0002:0000e0b0       $unwind$??$common_lseek@_J@@YA_JH_JH@Z 000000018003d0b0     libucrt:lseek.obj
 0002:0000e0e0       $unwind$_putwch_nolock     000000018003d0e0     libucrt:putwch.obj
 0002:0000e0e0       $unwind$__report_gsfailure 000000018003d0e0     LIBCMT:gs_report.obj
 0002:0000e0e8       $xdatasym                  000000018003d0e8     libucrt:log10.obj
 0002:0000e0f4       $unwind$_commit            000000018003d0f4     libucrt:commit.obj
 0002:0000e0f4       $unwind$_close             000000018003d0f4     libucrt:close.obj
 0002:0000e0fc       $unwind$??$?RV<lambda_bfedae4ebbf01fab1bb6dcc6a9e276e0>@@AEAV<lambda_2fe9b910cf3cbf4a0ab98a02ba45b3ec>@@V<lambda_237c231691f317818eb88cc1d5d642d6>@@@?$__crt_seh_guarded_call@H@@QEAAH$$QEAV<lambda_bfedae4ebbf01fab1bb6dcc6a9e276e0>@@AEAV<lambda_2fe9b910cf3cbf4a0ab98a02ba45b3ec>@@$$QEAV<lambda_237c231691f317818eb88cc1d5d642d6>@@@Z 000000018003d0fc     libucrt:close.obj
 0002:0000e120       $unwind$common_control87   000000018003d120     libucrt:ieee.obj
 0002:0000e150       $unwind$_call_matherr      000000018003d150     libucrt:libm_error.obj
 0002:0000e158       $unwind$_handle_error      000000018003d158     libucrt:libm_error.obj
 0002:0000e178       $unwind$__acrt_initialize_fma3 000000018003d178     libucrt:fma3_available.obj
 0002:0000e180       $unwind$_log_special_common 000000018003d180     libucrt:log_special.obj
 0002:0000e190       $xdatasym                  000000018003d190     libucrt:fpsr.obj
 0002:0000e198       $unwind$_raise_exc_ex      000000018003d198     libucrt:fpexcept.obj
 0002:0000e1ac       $unwind$_ctrlfp            000000018003d1ac     libucrt:fpctrl.obj
 0002:0000e1d4       $unwind$?DloadObtainSection@@YAPEAXPEAK0@Z 000000018003d1d4     DelayImp:delayhlp.obj
 0002:0000e1e4       $unwind$?DloadMakePermanentImageCommit@@YAXPEAX_K@Z 000000018003d1e4     DelayImp:delayhlp.obj
 0002:0000e1f0       $unwind$?DloadProtectSection@@YAXKPEAK@Z 000000018003d1f0     DelayImp:delayhlp.obj
 0002:0000e200       $unwind$__delayLoadHelper2 000000018003d200     DelayImp:delayhlp.obj
 0002:0000e218       $unwind$_IsNonwritableInCurrentImage 000000018003d218     LIBCMT:pesect.obj
 0002:0000e240       $xdatasym                  000000018003d240     LIBCMT:_chkstk_.obj
 0002:0000e248       $xdatasym                  000000018003d248     libvcruntime:memcmp.obj
 0002:0000e24c       $unwind$strrchr            000000018003d24c     libvcruntime:strrchr.obj
 0002:0000f540       .edata                     000000018003e540     node_expat.exp
 0002:0000f568       rgpv                       000000018003e568     node_expat.exp
 0002:0000f56c       rgszName                   000000018003e56c     node_expat.exp
 0002:0000f570       rgwOrd                     000000018003e570     node_expat.exp
 0002:0000f572       szName                     000000018003e572     node_expat.exp
 0002:0000f582       $N00001                    000000018003e582     node_expat.exp
 0002:0000f864       .idata$6                   000000018003e864     kernel32:KERNEL32.dll
 0002:0000fdc2       .idata$6                   000000018003edc2     advapi32:ADVAPI32.dll
 0003:00000030       ?_Tlg_Microsoft_CRTProviderProv@@3U_TlgProvider_t@__vcrt_trace_logging_provider@@A 000000018003f030     libvcruntime:telemetry.obj
 0003:00000080       ?__vcrt_flsindex@@3KA      000000018003f080     libvcruntime:per_thread_data.obj
 0003:00000088       errno_no_memory            000000018003f088     libucrt:errno.obj
 0003:0000008c       doserrno_no_memory         000000018003f08c     libucrt:errno.obj
 0003:00000198       __acrt_flsindex            000000018003f198     libucrt:per_thread_data.obj
 0003:00000540       __rgctypeflag              000000018003f540     libucrt:mbctype.obj
 0003:00000550       __rgcode_page_info         000000018003f550     libucrt:mbctype.obj
 0003:00000948       ?dazSupported@?1??common_control87@@9@9 000000018003f948     libucrt:ieee.obj
 0003:00000950       ?dazSupported@?1??_ctrlfp@@9@9 000000018003f950     libucrt:fpctrl.obj
 0003:00000970       _module                    000000018003f970     node-expat.obj
 0003:00000c28       ?__proc_attached@@3HA      000000018003fc28     LIBCMT:dll_dllmain.obj
 0003:00000c30       GS_ExceptionRecord         000000018003fc30     LIBCMT:gs_report.obj
 0003:00000cd0       GS_ContextRecord           000000018003fcd0     LIBCMT:gs_report.obj
 0003:000011b0       ?module_local_atexit_table@@3U_onexit_table_t@@A 00000001800401b0     LIBCMT:utility.obj
 0003:000011c8       ?module_local_at_quick_exit_table@@3U_onexit_table_t@@A 00000001800401c8     LIBCMT:utility.obj
 0003:000011e0       ?is_initialized_as_dll@@3_NA 00000001800401e0     LIBCMT:utility.obj
 0003:00001220       ?module_handles@@3PAPEAUHINSTANCE__@@A 0000000180040220     libvcruntime:winapi_downlevel.obj
 0003:00001240       ?encoded_function_pointers@@3PAPEAXA 0000000180040240     libvcruntime:winapi_downlevel.obj
 0003:00001290       ?__vcrt_startup_thread_ptd@@3U__vcrt_ptd@@A 0000000180040290     libvcruntime:per_thread_data.obj
 0003:00001308       __vcrt_lock_table          0000000180040308     libvcruntime:locks.obj
 0003:00001330       __vcrt_locks_initialized   0000000180040330     libvcruntime:locks.obj
 0003:00001388       ?heap@@3V_HeapManager@@A   0000000180040388     libvcruntime:undname.obj
 0003:000013b0       __acrt_new_handler         00000001800403b0     libucrt:new_handler.obj
 0003:000013b8       c_termination_complete     00000001800403b8     libucrt:exit.obj
 0003:000013c0       thread_local_exit_callback_func 00000001800403c0     libucrt:exit.obj
 0003:000013c8       ?c_exit_complete@?5??common_exit@@YAXHW4_crt_exit_cleanup_mode@@W4_crt_exit_return_mode@@@Z@4_NA 00000001800403c8     libucrt:exit.obj
 0003:000013d0       ?program_name@?5???$common_configure_argv@D@@YAHW4_crt_argv_mode@@@Z@4PADA 00000001800403d0     libucrt:argv_parsing.obj
 0003:00001528       __acrt_invalid_parameter_handler 0000000180040528     libucrt:invalid_parameter.obj
 0003:00001530       __acrt_app_type            0000000180040530     libucrt:report_runtime_error.obj
 0003:00001534       __acrt_error_mode          0000000180040534     libucrt:set_error_mode.obj
 0003:00001550       ctrlc_action               0000000180040550     libucrt:signal.obj
 0003:00001558       ctrlbreak_action           0000000180040558     libucrt:signal.obj
 0003:00001560       abort_action               0000000180040560     libucrt:signal.obj
 0003:00001568       term_action                0000000180040568     libucrt:signal.obj
 0003:00001580       __acrt_lock_table          0000000180040580     libucrt:locks.obj
 0003:00001788       __acrt_locks_initialized   0000000180040788     libucrt:locks.obj
 0003:00001790       module_handles             0000000180040790     libucrt:winapi_thunks.obj
 0003:00001830       encoded_function_pointers  0000000180040830     libucrt:winapi_thunks.obj
 0003:00001930       ?state_cache@?1??__acrt_is_packaged_app@@9@4JA 0000000180040930     libucrt:winapi_thunks.obj
 0003:0000194c       fSystemSet                 000000018004094c     libucrt:mbctype.obj
 0003:00001958       ?initialized@?1??__acrt_initialize_multibyte@@9@4_NA 0000000180040958     libucrt:mbctype.obj
 0003:00001d98       user_matherr               0000000180040d98     libucrt:matherr.obj
 0003:00001db0       __acrt_global_new_mode     0000000180040db0     libucrt:new_mode.obj
 0003:00001db8       enable_percent_n           0000000180040db8     libucrt:printf_count_output.obj
 0004:00000000       $pdata$?TraceLoggingRegister@__vcrt_trace_logging_provider@@YAJPEBU_TlgProvider_t@1@PEBU_GUID@@P6AX1KE_K2PEAU_EVENT_FILTER_DESCRIPTOR@@PEAX@Z4@Z 0000000180041000     libvcruntime:telemetry.obj
 0004:0000000c       $pdata$?_TlgEnableCallback@__vcrt_trace_logging_provider@@YAXPEBU_GUID@@KE_K1PEAU_EVENT_FILTER_DESCRIPTOR@@PEAX@Z 000000018004100c     libvcruntime:telemetry.obj
 0004:00000018       $pdata$?_TlgWrite@__vcrt_trace_logging_provider@@YAJPEBU_TlgProvider_t@1@PEFBXPEBU_GUID@@2IPEAU_EVENT_DATA_DESCRIPTOR@@@Z 0000000180041018     libvcruntime:telemetry.obj
 0004:00000024       $pdata$?FunctionCallbackWrapper@imp@Nan@@YAXAEBV?$FunctionCallbackInfo@VValue@v8@@@v8@@@Z 0000000180041024     node-expat.obj
 0004:00000030       $pdata$?New@?$Factory@VFunctionTemplate@v8@@@imp@Nan@@SA?AV?$Local@VFunctionTemplate@v8@@@v8@@P6AXAEBV?$FunctionCallbackInfo@VValue@v8@@@3@@ZV?$Local@VValue@v8@@@5@V?$Local@VSignature@v8@@@5@@Z 0000000180041030     node-expat.obj
 0004:0000003c       $pdata$0$?New@?$Factory@VFunctionTemplate@v8@@@imp@Nan@@SA?AV?$Local@VFunctionTemplate@v8@@@v8@@P6AXAEBV?$FunctionCallbackInfo@VValue@v8@@@3@@ZV?$Local@VValue@v8@@@5@V?$Local@VSignature@v8@@@5@@Z 000000018004103c     node-expat.obj
 0004:00000048       $pdata$1$?New@?$Factory@VFunctionTemplate@v8@@@imp@Nan@@SA?AV?$Local@VFunctionTemplate@v8@@@v8@@P6AXAEBV?$FunctionCallbackInfo@VValue@v8@@@3@@ZV?$Local@VValue@v8@@@5@V?$Local@VSignature@v8@@@5@@Z 0000000180041048     node-expat.obj
 0004:00000054       $pdata$?ThrowError@Nan@@YAXPEBD@Z 0000000180041054     node-expat.obj
 0004:00000060       $pdata$?ThrowTypeError@Nan@@YAXPEBD@Z 0000000180041060     node-expat.obj
 0004:0000006c       $pdata$??0Utf8String@Nan@@QEAA@V?$Local@VValue@v8@@@v8@@@Z 000000018004106c     node-expat.obj
 0004:00000078       $pdata$0$??0Utf8String@Nan@@QEAA@V?$Local@VValue@v8@@@v8@@@Z 0000000180041078     node-expat.obj
 0004:00000084       $pdata$1$??0Utf8String@Nan@@QEAA@V?$Local@VValue@v8@@@v8@@@Z 0000000180041084     node-expat.obj
 0004:00000090       $pdata$?SetPrototypeMethod@Nan@@YAXV?$Local@VFunctionTemplate@v8@@@v8@@PEBDP6AXAEBV?$FunctionCallbackInfo@VValue@v8@@@1@@Z@Z 0000000180041090     node-expat.obj
 0004:0000009c       $pdata$??1ObjectWrap@Nan@@UEAA@XZ 000000018004109c     node-expat.obj
 0004:000000a8       $pdata$?Wrap@ObjectWrap@Nan@@IEAAXV?$Local@VObject@v8@@@v8@@@Z 00000001800410a8     node-expat.obj
 0004:000000b4       $pdata$?Ref@ObjectWrap@Nan@@MEAAXXZ 00000001800410b4     node-expat.obj
 0004:000000c0       $pdata$?Unref@ObjectWrap@Nan@@MEAAXXZ 00000001800410c0     node-expat.obj
 0004:000000cc       $pdata$?WeakCallback@ObjectWrap@Nan@@CAXAEBV?$WeakCallbackInfo@VObjectWrap@Nan@@@v8@@@Z 00000001800410cc     node-expat.obj
 0004:000000d8       $pdata$??_GObjectWrap@Nan@@UEAAPEAXI@Z 00000001800410d8     node-expat.obj
 0004:000000e4       $pdata$?Initialize@Parser@@SAXV?$Local@VObject@v8@@@v8@@@Z 00000001800410e4     node-expat.obj
 0004:000000f0       $pdata$?New@Parser@@KAXAEBV?$FunctionCallbackInfo@VValue@v8@@@Nan@@@Z 00000001800410f0     node-expat.obj
 0004:000000fc       $pdata$?Parse@Parser@@KAXAEBV?$FunctionCallbackInfo@VValue@v8@@@Nan@@@Z 00000001800410fc     node-expat.obj
 0004:00000108       $pdata$1$?Parse@Parser@@KAXAEBV?$FunctionCallbackInfo@VValue@v8@@@Nan@@@Z 0000000180041108     node-expat.obj
 0004:00000114       $pdata$2$?Parse@Parser@@KAXAEBV?$FunctionCallbackInfo@VValue@v8@@@Nan@@@Z 0000000180041114     node-expat.obj
 0004:00000120       $pdata$?parseString@Parser@@IEAA_NAEAVString@v8@@H@Z 0000000180041120     node-expat.obj
 0004:0000012c       $pdata$1$?parseString@Parser@@IEAA_NAEAVString@v8@@H@Z 000000018004112c     node-expat.obj
 0004:00000138       $pdata$2$?parseString@Parser@@IEAA_NAEAVString@v8@@H@Z 0000000180041138     node-expat.obj
 0004:00000144       $pdata$?SetEncoding@Parser@@KAXAEBV?$FunctionCallbackInfo@VValue@v8@@@Nan@@@Z 0000000180041144     node-expat.obj
 0004:00000150       $pdata$?setEncoding@Parser@@IEAAHPEAD@Z 0000000180041150     node-expat.obj
 0004:0000015c       $pdata$?GetError@Parser@@KAXAEBV?$FunctionCallbackInfo@VValue@v8@@@Nan@@@Z 000000018004115c     node-expat.obj
 0004:00000168       $pdata$?Stop@Parser@@KAXAEBV?$FunctionCallbackInfo@VValue@v8@@@Nan@@@Z 0000000180041168     node-expat.obj
 0004:00000174       $pdata$?Resume@Parser@@KAXAEBV?$FunctionCallbackInfo@VValue@v8@@@Nan@@@Z 0000000180041174     node-expat.obj
 0004:00000180       $pdata$?Reset@Parser@@KAXAEBV?$FunctionCallbackInfo@VValue@v8@@@Nan@@@Z 0000000180041180     node-expat.obj
 0004:0000018c       $pdata$?GetCurrentLineNumber@Parser@@KAXAEBV?$FunctionCallbackInfo@VValue@v8@@@Nan@@@Z 000000018004118c     node-expat.obj
 0004:00000198       $pdata$?GetCurrentColumnNumber@Parser@@KAXAEBV?$FunctionCallbackInfo@VValue@v8@@@Nan@@@Z 0000000180041198     node-expat.obj
 0004:000001a4       $pdata$?GetCurrentByteIndex@Parser@@KAXAEBV?$FunctionCallbackInfo@VValue@v8@@@Nan@@@Z 00000001800411a4     node-expat.obj
 0004:000001b0       $pdata$?StartElement@Parser@@CAXPEAXPEBDPEAPEBD@Z 00000001800411b0     node-expat.obj
 0004:000001bc       $pdata$2$?StartElement@Parser@@CAXPEAXPEBDPEAPEBD@Z 00000001800411bc     node-expat.obj
 0004:000001c8       $pdata$3$?StartElement@Parser@@CAXPEAXPEBDPEAPEBD@Z 00000001800411c8     node-expat.obj
 0004:000001d4       $pdata$4$?StartElement@Parser@@CAXPEAXPEBDPEAPEBD@Z 00000001800411d4     node-expat.obj
 0004:000001e0       $pdata$5$?StartElement@Parser@@CAXPEAXPEBDPEAPEBD@Z 00000001800411e0     node-expat.obj
 0004:000001ec       $pdata$6$?StartElement@Parser@@CAXPEAXPEBDPEAPEBD@Z 00000001800411ec     node-expat.obj
 0004:000001f8       $pdata$7$?StartElement@Parser@@CAXPEAXPEBDPEAPEBD@Z 00000001800411f8     node-expat.obj
 0004:00000204       $pdata$?EndElement@Parser@@CAXPEAXPEBD@Z 0000000180041204     node-expat.obj
 0004:00000210       $pdata$?StartCdata@Parser@@CAXPEAX@Z 0000000180041210     node-expat.obj
 0004:0000021c       $pdata$?EndCdata@Parser@@CAXPEAX@Z 000000018004121c     node-expat.obj
 0004:00000228       $pdata$?Text@Parser@@CAXPEAXPEBDH@Z 0000000180041228     node-expat.obj
 0004:00000234       $pdata$?ProcessingInstruction@Parser@@CAXPEAXPEBD1@Z 0000000180041234     node-expat.obj
 0004:00000240       $pdata$?Comment@Parser@@CAXPEAXPEBD@Z 0000000180041240     node-expat.obj
 0004:0000024c       $pdata$?XmlDecl@Parser@@CAXPEAXPEBD1H@Z 000000018004124c     node-expat.obj
 0004:00000258       $pdata$?EntityDecl@Parser@@CAXPEAXPEBDH1H1111@Z 0000000180041258     node-expat.obj
 0004:00000264       $pdata$?UnknownEncoding@Parser@@CAHPEAXPEBDPEAUXML_Encoding@@@Z 0000000180041264     node-expat.obj
 0004:00000270       $pdata$?SetUnknownEncoding@Parser@@CAXAEBV?$FunctionCallbackInfo@VValue@v8@@@Nan@@@Z 0000000180041270     node-expat.obj
 0004:0000027c       $pdata$2$?SetUnknownEncoding@Parser@@CAXAEBV?$FunctionCallbackInfo@VValue@v8@@@Nan@@@Z 000000018004127c     node-expat.obj
 0004:00000288       $pdata$3$?SetUnknownEncoding@Parser@@CAXAEBV?$FunctionCallbackInfo@VValue@v8@@@Nan@@@Z 0000000180041288     node-expat.obj
 0004:00000294       $pdata$?Emit@Parser@@AEAAXHQEAV?$Local@VValue@v8@@@v8@@@Z 0000000180041294     node-expat.obj
 0004:000002a0       $pdata$??_GParser@@MEAAPEAXI@Z 00000001800412a0     node-expat.obj
 0004:000002ac       $pdata$init                00000001800412ac     node-expat.obj
 0004:000002b8       $pdata$??$Unwrap@VParser@@@ObjectWrap@Nan@@SAPEAVParser@@V?$Local@VObject@v8@@@v8@@@Z 00000001800412b8     node-expat.obj
 0004:000002c4       $pdata$load_exe_hook       00000001800412c4     win_delay_load_hook.obj
 0004:000002d0       $pdata$startParsing        00000001800412d0     libexpat:xmlparse.obj
 0004:000002dc       $pdata$0$startParsing      00000001800412dc     libexpat:xmlparse.obj
 0004:000002e8       $pdata$1$startParsing      00000001800412e8     libexpat:xmlparse.obj
 0004:000002f4       $pdata$parserCreate        00000001800412f4     libexpat:xmlparse.obj
 0004:00000300       $pdata$1$parserCreate      0000000180041300     libexpat:xmlparse.obj
 0004:0000030c       $pdata$3$parserCreate      000000018004130c     libexpat:xmlparse.obj
 0004:00000318       $pdata$4$parserCreate      0000000180041318     libexpat:xmlparse.obj
 0004:00000324       $pdata$parserInit          0000000180041324     libexpat:xmlparse.obj
 0004:00000330       $pdata$XML_ParserReset     0000000180041330     libexpat:xmlparse.obj
 0004:0000033c       $pdata$XML_ParserFree      000000018004133c     libexpat:xmlparse.obj
 0004:00000348       $pdata$1$XML_ParserFree    0000000180041348     libexpat:xmlparse.obj
 0004:00000354       $pdata$4$XML_ParserFree    0000000180041354     libexpat:xmlparse.obj
 0004:00000360       $pdata$5$XML_ParserFree    0000000180041360     libexpat:xmlparse.obj
 0004:0000036c       $pdata$6$XML_ParserFree    000000018004136c     libexpat:xmlparse.obj
 0004:00000378       $pdata$7$XML_ParserFree    0000000180041378     libexpat:xmlparse.obj
 0004:00000384       $pdata$8$XML_ParserFree    0000000180041384     libexpat:xmlparse.obj
 0004:00000390       $pdata$XML_Parse           0000000180041390     libexpat:xmlparse.obj
 0004:0000039c       $pdata$XML_ParseBuffer     000000018004139c     libexpat:xmlparse.obj
 0004:000003a8       $pdata$0$XML_ParseBuffer   00000001800413a8     libexpat:xmlparse.obj
 0004:000003b4       $pdata$1$XML_ParseBuffer   00000001800413b4     libexpat:xmlparse.obj
 0004:000003c0       $pdata$2$XML_ParseBuffer   00000001800413c0     libexpat:xmlparse.obj
 0004:000003cc       $pdata$XML_GetBuffer       00000001800413cc     libexpat:xmlparse.obj
 0004:000003d8       $pdata$2$XML_GetBuffer     00000001800413d8     libexpat:xmlparse.obj
 0004:000003e4       $pdata$4$XML_GetBuffer     00000001800413e4     libexpat:xmlparse.obj
 0004:000003f0       $pdata$5$XML_GetBuffer     00000001800413f0     libexpat:xmlparse.obj
 0004:000003fc       $pdata$XML_ResumeParser    00000001800413fc     libexpat:xmlparse.obj
 0004:00000408       $pdata$0$XML_ResumeParser  0000000180041408     libexpat:xmlparse.obj
 0004:00000414       $pdata$2$XML_ResumeParser  0000000180041414     libexpat:xmlparse.obj
 0004:00000420       $pdata$4$XML_ResumeParser  0000000180041420     libexpat:xmlparse.obj
 0004:0000042c       $pdata$storeRawNames       000000018004142c     libexpat:xmlparse.obj
 0004:00000438       $pdata$contentProcessor    0000000180041438     libexpat:xmlparse.obj
 0004:00000444       $pdata$externalEntityContentProcessor 0000000180041444     libexpat:xmlparse.obj
 0004:00000450       $pdata$doContent           0000000180041450     libexpat:xmlparse.obj
 0004:0000045c       $pdata$storeAtts           000000018004145c     libexpat:xmlparse.obj
 0004:00000468       $pdata$addBinding          0000000180041468     libexpat:xmlparse.obj
 0004:00000474       $pdata$cdataSectionProcessor 0000000180041474     libexpat:xmlparse.obj
 0004:00000480       $pdata$doCdataSection      0000000180041480     libexpat:xmlparse.obj
 0004:0000048c       $pdata$ignoreSectionProcessor 000000018004148c     libexpat:xmlparse.obj
 0004:00000498       $pdata$doIgnoreSection     0000000180041498     libexpat:xmlparse.obj
 0004:000004a4       $pdata$processXmlDecl      00000001800414a4     libexpat:xmlparse.obj
 0004:000004b0       $pdata$handleUnknownEncoding 00000001800414b0     libexpat:xmlparse.obj
 0004:000004bc       $pdata$prologInitProcessor 00000001800414bc     libexpat:xmlparse.obj
 0004:000004c8       $pdata$prologProcessor     00000001800414c8     libexpat:xmlparse.obj
 0004:000004d4       $pdata$doProlog            00000001800414d4     libexpat:xmlparse.obj
 0004:000004e0       $pdata$epilogProcessor     00000001800414e0     libexpat:xmlparse.obj
 0004:000004ec       $pdata$processInternalEntity 00000001800414ec     libexpat:xmlparse.obj
 0004:000004f8       $pdata$0$processInternalEntity 00000001800414f8     libexpat:xmlparse.obj
 0004:00000504       $pdata$1$processInternalEntity 0000000180041504     libexpat:xmlparse.obj
 0004:00000510       $pdata$2$processInternalEntity 0000000180041510     libexpat:xmlparse.obj
 0004:0000051c       $pdata$internalEntityProcessor 000000018004151c     libexpat:xmlparse.obj
 0004:00000528       $pdata$2$internalEntityProcessor 0000000180041528     libexpat:xmlparse.obj
 0004:00000534       $pdata$3$internalEntityProcessor 0000000180041534     libexpat:xmlparse.obj
 0004:00000540       $pdata$storeAttributeValue 0000000180041540     libexpat:xmlparse.obj
 0004:0000054c       $pdata$appendAttributeValue 000000018004154c     libexpat:xmlparse.obj
 0004:00000558       $pdata$storeEntityValue    0000000180041558     libexpat:xmlparse.obj
 0004:00000564       $pdata$reportProcessingInstruction 0000000180041564     libexpat:xmlparse.obj
 0004:00000570       $pdata$reportComment       0000000180041570     libexpat:xmlparse.obj
 0004:0000057c       $pdata$0$reportComment     000000018004157c     libexpat:xmlparse.obj
 0004:00000588       $pdata$2$reportComment     0000000180041588     libexpat:xmlparse.obj
 0004:00000594       $pdata$reportDefault       0000000180041594     libexpat:xmlparse.obj
 0004:000005a0       $pdata$2$reportDefault     00000001800415a0     libexpat:xmlparse.obj
 0004:000005ac       $pdata$3$reportDefault     00000001800415ac     libexpat:xmlparse.obj
 0004:000005b8       $pdata$defineAttribute     00000001800415b8     libexpat:xmlparse.obj
 0004:000005c4       $pdata$0$defineAttribute   00000001800415c4     libexpat:xmlparse.obj
 0004:000005d0       $pdata$1$defineAttribute   00000001800415d0     libexpat:xmlparse.obj
 0004:000005dc       $pdata$2$defineAttribute   00000001800415dc     libexpat:xmlparse.obj
 0004:000005e8       $pdata$3$defineAttribute   00000001800415e8     libexpat:xmlparse.obj
 0004:000005f4       $pdata$setElementTypePrefix 00000001800415f4     libexpat:xmlparse.obj
 0004:00000600       $pdata$getAttributeId      0000000180041600     libexpat:xmlparse.obj
 0004:0000060c       $pdata$0$getAttributeId    000000018004160c     libexpat:xmlparse.obj
 0004:00000618       $pdata$1$getAttributeId    0000000180041618     libexpat:xmlparse.obj
 0004:00000624       $pdata$2$getAttributeId    0000000180041624     libexpat:xmlparse.obj
 0004:00000630       $pdata$3$getAttributeId    0000000180041630     libexpat:xmlparse.obj
 0004:0000063c       $pdata$4$getAttributeId    000000018004163c     libexpat:xmlparse.obj
 0004:00000648       $pdata$5$getAttributeId    0000000180041648     libexpat:xmlparse.obj
 0004:00000654       $pdata$getContext          0000000180041654     libexpat:xmlparse.obj
 0004:00000660       $pdata$setContext          0000000180041660     libexpat:xmlparse.obj
 0004:0000066c       $pdata$dtdCreate           000000018004166c     libexpat:xmlparse.obj
 0004:00000678       $pdata$dtdReset            0000000180041678     libexpat:xmlparse.obj
 0004:00000684       $pdata$dtdDestroy          0000000180041684     libexpat:xmlparse.obj
 0004:00000690       $pdata$lookup              0000000180041690     libexpat:xmlparse.obj
 0004:0000069c       $pdata$poolAppend          000000018004169c     libexpat:xmlparse.obj
 0004:000006a8       $pdata$3$poolAppend        00000001800416a8     libexpat:xmlparse.obj
 0004:000006b4       $pdata$5$poolAppend        00000001800416b4     libexpat:xmlparse.obj
 0004:000006c0       $pdata$poolCopyString      00000001800416c0     libexpat:xmlparse.obj
 0004:000006cc       $pdata$poolAppendString    00000001800416cc     libexpat:xmlparse.obj
 0004:000006d8       $pdata$poolStoreString     00000001800416d8     libexpat:xmlparse.obj
 0004:000006e4       $pdata$poolGrow            00000001800416e4     libexpat:xmlparse.obj
 0004:000006f0       $pdata$nextScaffoldPart    00000001800416f0     libexpat:xmlparse.obj
 0004:000006fc       $pdata$build_node          00000001800416fc     libexpat:xmlparse.obj
 0004:00000708       $pdata$build_model         0000000180041708     libexpat:xmlparse.obj
 0004:00000714       $pdata$getElementType      0000000180041714     libexpat:xmlparse.obj
 0004:00000720       $pdata$normal_scanComment  0000000180041720     libexpat:xmltok.obj
 0004:0000072c       $pdata$normal_scanDecl     000000018004172c     libexpat:xmltok.obj
 0004:00000738       $pdata$0$normal_scanDecl   0000000180041738     libexpat:xmltok.obj
 0004:00000744       $pdata$2$normal_scanDecl   0000000180041744     libexpat:xmltok.obj
 0004:00000750       $pdata$4$normal_scanDecl   0000000180041750     libexpat:xmltok.obj
 0004:0000075c       $pdata$5$normal_scanDecl   000000018004175c     libexpat:xmltok.obj
 0004:00000768       $pdata$normal_scanPi       0000000180041768     libexpat:xmltok.obj
 0004:00000774       $pdata$0$normal_scanPi     0000000180041774     libexpat:xmltok.obj
 0004:00000780       $pdata$1$normal_scanPi     0000000180041780     libexpat:xmltok.obj
 0004:0000078c       $pdata$2$normal_scanPi     000000018004178c     libexpat:xmltok.obj
 0004:00000798       $pdata$3$normal_scanPi     0000000180041798     libexpat:xmltok.obj
 0004:000007a4       $pdata$4$normal_scanPi     00000001800417a4     libexpat:xmltok.obj
 0004:000007b0       $pdata$normal_cdataSectionTok 00000001800417b0     libexpat:xmltok.obj
 0004:000007bc       $pdata$0$normal_cdataSectionTok 00000001800417bc     libexpat:xmltok.obj
 0004:000007c8       $pdata$1$normal_cdataSectionTok 00000001800417c8     libexpat:xmltok.obj
 0004:000007d4       $pdata$normal_scanEndTag   00000001800417d4     libexpat:xmltok.obj
 0004:000007e0       $pdata$0$normal_scanEndTag 00000001800417e0     libexpat:xmltok.obj
 0004:000007ec       $pdata$1$normal_scanEndTag 00000001800417ec     libexpat:xmltok.obj
 0004:000007f8       $pdata$2$normal_scanEndTag 00000001800417f8     libexpat:xmltok.obj
 0004:00000804       $pdata$4$normal_scanEndTag 0000000180041804     libexpat:xmltok.obj
 0004:00000810       $pdata$normal_scanRef      0000000180041810     libexpat:xmltok.obj
 0004:0000081c       $pdata$0$normal_scanRef    000000018004181c     libexpat:xmltok.obj
 0004:00000828       $pdata$1$normal_scanRef    0000000180041828     libexpat:xmltok.obj
 0004:00000834       $pdata$normal_scanAtts     0000000180041834     libexpat:xmltok.obj
 0004:00000840       $pdata$normal_scanLt       0000000180041840     libexpat:xmltok.obj
 0004:0000084c       $pdata$0$normal_scanLt     000000018004184c     libexpat:xmltok.obj
 0004:00000858       $pdata$1$normal_scanLt     0000000180041858     libexpat:xmltok.obj
 0004:00000864       $pdata$2$normal_scanLt     0000000180041864     libexpat:xmltok.obj
 0004:00000870       $pdata$3$normal_scanLt     0000000180041870     libexpat:xmltok.obj
 0004:0000087c       $pdata$4$normal_scanLt     000000018004187c     libexpat:xmltok.obj
 0004:00000888       $pdata$5$normal_scanLt     0000000180041888     libexpat:xmltok.obj
 0004:00000894       $pdata$normal_contentTok   0000000180041894     libexpat:xmltok.obj
 0004:000008a0       $pdata$0$normal_contentTok 00000001800418a0     libexpat:xmltok.obj
 0004:000008ac       $pdata$1$normal_contentTok 00000001800418ac     libexpat:xmltok.obj
 0004:000008b8       $pdata$2$normal_contentTok 00000001800418b8     libexpat:xmltok.obj
 0004:000008c4       $pdata$normal_scanPercent  00000001800418c4     libexpat:xmltok.obj
 0004:000008d0       $pdata$0$normal_scanPercent 00000001800418d0     libexpat:xmltok.obj
 0004:000008dc       $pdata$1$normal_scanPercent 00000001800418dc     libexpat:xmltok.obj
 0004:000008e8       $pdata$normal_scanPoundName 00000001800418e8     libexpat:xmltok.obj
 0004:000008f4       $pdata$0$normal_scanPoundName 00000001800418f4     libexpat:xmltok.obj
 0004:00000900       $pdata$1$normal_scanPoundName 0000000180041900     libexpat:xmltok.obj
 0004:0000090c       $pdata$normal_scanLit      000000018004190c     libexpat:xmltok.obj
 0004:00000918       $pdata$normal_prologTok    0000000180041918     libexpat:xmltok.obj
 0004:00000924       $pdata$1$normal_prologTok  0000000180041924     libexpat:xmltok.obj
 0004:00000930       $pdata$2$normal_prologTok  0000000180041930     libexpat:xmltok.obj
 0004:0000093c       $pdata$normal_attributeValueTok 000000018004193c     libexpat:xmltok.obj
 0004:00000948       $pdata$0$normal_attributeValueTok 0000000180041948     libexpat:xmltok.obj
 0004:00000954       $pdata$2$normal_attributeValueTok 0000000180041954     libexpat:xmltok.obj
 0004:00000960       $pdata$4$normal_attributeValueTok 0000000180041960     libexpat:xmltok.obj
 0004:0000096c       $pdata$6$normal_attributeValueTok 000000018004196c     libexpat:xmltok.obj
 0004:00000978       $pdata$8$normal_attributeValueTok 0000000180041978     libexpat:xmltok.obj
 0004:00000984       $pdata$10$normal_attributeValueTok 0000000180041984     libexpat:xmltok.obj
 0004:00000990       $pdata$12$normal_attributeValueTok 0000000180041990     libexpat:xmltok.obj
 0004:0000099c       $pdata$13$normal_attributeValueTok 000000018004199c     libexpat:xmltok.obj
 0004:000009a8       $pdata$normal_entityValueTok 00000001800419a8     libexpat:xmltok.obj
 0004:000009b4       $pdata$1$normal_entityValueTok 00000001800419b4     libexpat:xmltok.obj
 0004:000009c0       $pdata$3$normal_entityValueTok 00000001800419c0     libexpat:xmltok.obj
 0004:000009cc       $pdata$5$normal_entityValueTok 00000001800419cc     libexpat:xmltok.obj
 0004:000009d8       $pdata$7$normal_entityValueTok 00000001800419d8     libexpat:xmltok.obj
 0004:000009e4       $pdata$9$normal_entityValueTok 00000001800419e4     libexpat:xmltok.obj
 0004:000009f0       $pdata$11$normal_entityValueTok 00000001800419f0     libexpat:xmltok.obj
 0004:000009fc       $pdata$12$normal_entityValueTok 00000001800419fc     libexpat:xmltok.obj
 0004:00000a08       $pdata$normal_ignoreSectionTok 0000000180041a08     libexpat:xmltok.obj
 0004:00000a14       $pdata$normal_isPublicId   0000000180041a14     libexpat:xmltok.obj
 0004:00000a20       $pdata$normal_getAtts      0000000180041a20     libexpat:xmltok.obj
 0004:00000a2c       $pdata$utf8_toUtf8         0000000180041a2c     libexpat:xmltok.obj
 0004:00000a38       $pdata$utf8_toUtf16        0000000180041a38     libexpat:xmltok.obj
 0004:00000a44       $pdata$2$utf8_toUtf16      0000000180041a44     libexpat:xmltok.obj
 0004:00000a50       $pdata$3$utf8_toUtf16      0000000180041a50     libexpat:xmltok.obj
 0004:00000a5c       $pdata$little2_toUtf8      0000000180041a5c     libexpat:xmltok.obj
 0004:00000a68       $pdata$little2_toUtf16     0000000180041a68     libexpat:xmltok.obj
 0004:00000a74       $pdata$big2_toUtf8         0000000180041a74     libexpat:xmltok.obj
 0004:00000a80       $pdata$big2_toUtf16        0000000180041a80     libexpat:xmltok.obj
 0004:00000a8c       $pdata$little2_scanComment 0000000180041a8c     libexpat:xmltok.obj
 0004:00000a98       $pdata$little2_scanDecl    0000000180041a98     libexpat:xmltok.obj
 0004:00000aa4       $pdata$0$little2_scanDecl  0000000180041aa4     libexpat:xmltok.obj
 0004:00000ab0       $pdata$2$little2_scanDecl  0000000180041ab0     libexpat:xmltok.obj
 0004:00000abc       $pdata$4$little2_scanDecl  0000000180041abc     libexpat:xmltok.obj
 0004:00000ac8       $pdata$5$little2_scanDecl  0000000180041ac8     libexpat:xmltok.obj
 0004:00000ad4       $pdata$little2_scanPi      0000000180041ad4     libexpat:xmltok.obj
 0004:00000ae0       $pdata$3$little2_scanPi    0000000180041ae0     libexpat:xmltok.obj
 0004:00000aec       $pdata$5$little2_scanPi    0000000180041aec     libexpat:xmltok.obj
 0004:00000af8       $pdata$6$little2_scanPi    0000000180041af8     libexpat:xmltok.obj
 0004:00000b04       $pdata$8$little2_scanPi    0000000180041b04     libexpat:xmltok.obj
 0004:00000b10       $pdata$10$little2_scanPi   0000000180041b10     libexpat:xmltok.obj
 0004:00000b1c       $pdata$11$little2_scanPi   0000000180041b1c     libexpat:xmltok.obj
 0004:00000b28       $pdata$little2_cdataSectionTok 0000000180041b28     libexpat:xmltok.obj
 0004:00000b34       $pdata$little2_scanEndTag  0000000180041b34     libexpat:xmltok.obj
 0004:00000b40       $pdata$0$little2_scanEndTag 0000000180041b40     libexpat:xmltok.obj
 0004:00000b4c       $pdata$2$little2_scanEndTag 0000000180041b4c     libexpat:xmltok.obj
 0004:00000b58       $pdata$4$little2_scanEndTag 0000000180041b58     libexpat:xmltok.obj
 0004:00000b64       $pdata$6$little2_scanEndTag 0000000180041b64     libexpat:xmltok.obj
 0004:00000b70       $pdata$8$little2_scanEndTag 0000000180041b70     libexpat:xmltok.obj
 0004:00000b7c       $pdata$10$little2_scanEndTag 0000000180041b7c     libexpat:xmltok.obj
 0004:00000b88       $pdata$12$little2_scanEndTag 0000000180041b88     libexpat:xmltok.obj
 0004:00000b94       $pdata$14$little2_scanEndTag 0000000180041b94     libexpat:xmltok.obj
 0004:00000ba0       $pdata$16$little2_scanEndTag 0000000180041ba0     libexpat:xmltok.obj
 0004:00000bac       $pdata$17$little2_scanEndTag 0000000180041bac     libexpat:xmltok.obj
 0004:00000bb8       $pdata$little2_scanRef     0000000180041bb8     libexpat:xmltok.obj
 0004:00000bc4       $pdata$0$little2_scanRef   0000000180041bc4     libexpat:xmltok.obj
 0004:00000bd0       $pdata$2$little2_scanRef   0000000180041bd0     libexpat:xmltok.obj
 0004:00000bdc       $pdata$4$little2_scanRef   0000000180041bdc     libexpat:xmltok.obj
 0004:00000be8       $pdata$6$little2_scanRef   0000000180041be8     libexpat:xmltok.obj
 0004:00000bf4       $pdata$8$little2_scanRef   0000000180041bf4     libexpat:xmltok.obj
 0004:00000c00       $pdata$10$little2_scanRef  0000000180041c00     libexpat:xmltok.obj
 0004:00000c0c       $pdata$12$little2_scanRef  0000000180041c0c     libexpat:xmltok.obj
 0004:00000c18       $pdata$14$little2_scanRef  0000000180041c18     libexpat:xmltok.obj
 0004:00000c24       $pdata$16$little2_scanRef  0000000180041c24     libexpat:xmltok.obj
 0004:00000c30       $pdata$18$little2_scanRef  0000000180041c30     libexpat:xmltok.obj
 0004:00000c3c       $pdata$19$little2_scanRef  0000000180041c3c     libexpat:xmltok.obj
 0004:00000c48       $pdata$little2_scanAtts    0000000180041c48     libexpat:xmltok.obj
 0004:00000c54       $pdata$little2_scanLt      0000000180041c54     libexpat:xmltok.obj
 0004:00000c60       $pdata$3$little2_scanLt    0000000180041c60     libexpat:xmltok.obj
 0004:00000c6c       $pdata$5$little2_scanLt    0000000180041c6c     libexpat:xmltok.obj
 0004:00000c78       $pdata$6$little2_scanLt    0000000180041c78     libexpat:xmltok.obj
 0004:00000c84       $pdata$8$little2_scanLt    0000000180041c84     libexpat:xmltok.obj
 0004:00000c90       $pdata$10$little2_scanLt   0000000180041c90     libexpat:xmltok.obj
 0004:00000c9c       $pdata$12$little2_scanLt   0000000180041c9c     libexpat:xmltok.obj
 0004:00000ca8       $pdata$14$little2_scanLt   0000000180041ca8     libexpat:xmltok.obj
 0004:00000cb4       $pdata$16$little2_scanLt   0000000180041cb4     libexpat:xmltok.obj
 0004:00000cc0       $pdata$18$little2_scanLt   0000000180041cc0     libexpat:xmltok.obj
 0004:00000ccc       $pdata$20$little2_scanLt   0000000180041ccc     libexpat:xmltok.obj
 0004:00000cd8       $pdata$22$little2_scanLt   0000000180041cd8     libexpat:xmltok.obj
 0004:00000ce4       $pdata$24$little2_scanLt   0000000180041ce4     libexpat:xmltok.obj
 0004:00000cf0       $pdata$25$little2_scanLt   0000000180041cf0     libexpat:xmltok.obj
 0004:00000cfc       $pdata$little2_contentTok  0000000180041cfc     libexpat:xmltok.obj
 0004:00000d08       $pdata$little2_scanPercent 0000000180041d08     libexpat:xmltok.obj
 0004:00000d14       $pdata$0$little2_scanPercent 0000000180041d14     libexpat:xmltok.obj
 0004:00000d20       $pdata$2$little2_scanPercent 0000000180041d20     libexpat:xmltok.obj
 0004:00000d2c       $pdata$4$little2_scanPercent 0000000180041d2c     libexpat:xmltok.obj
 0004:00000d38       $pdata$6$little2_scanPercent 0000000180041d38     libexpat:xmltok.obj
 0004:00000d44       $pdata$8$little2_scanPercent 0000000180041d44     libexpat:xmltok.obj
 0004:00000d50       $pdata$10$little2_scanPercent 0000000180041d50     libexpat:xmltok.obj
 0004:00000d5c       $pdata$12$little2_scanPercent 0000000180041d5c     libexpat:xmltok.obj
 0004:00000d68       $pdata$14$little2_scanPercent 0000000180041d68     libexpat:xmltok.obj
 0004:00000d74       $pdata$16$little2_scanPercent 0000000180041d74     libexpat:xmltok.obj
 0004:00000d80       $pdata$18$little2_scanPercent 0000000180041d80     libexpat:xmltok.obj
 0004:00000d8c       $pdata$19$little2_scanPercent 0000000180041d8c     libexpat:xmltok.obj
 0004:00000d98       $pdata$little2_scanPoundName 0000000180041d98     libexpat:xmltok.obj
 0004:00000da4       $pdata$0$little2_scanPoundName 0000000180041da4     libexpat:xmltok.obj
 0004:00000db0       $pdata$2$little2_scanPoundName 0000000180041db0     libexpat:xmltok.obj
 0004:00000dbc       $pdata$4$little2_scanPoundName 0000000180041dbc     libexpat:xmltok.obj
 0004:00000dc8       $pdata$6$little2_scanPoundName 0000000180041dc8     libexpat:xmltok.obj
 0004:00000dd4       $pdata$8$little2_scanPoundName 0000000180041dd4     libexpat:xmltok.obj
 0004:00000de0       $pdata$10$little2_scanPoundName 0000000180041de0     libexpat:xmltok.obj
 0004:00000dec       $pdata$12$little2_scanPoundName 0000000180041dec     libexpat:xmltok.obj
 0004:00000df8       $pdata$14$little2_scanPoundName 0000000180041df8     libexpat:xmltok.obj
 0004:00000e04       $pdata$15$little2_scanPoundName 0000000180041e04     libexpat:xmltok.obj
 0004:00000e10       $pdata$little2_scanLit     0000000180041e10     libexpat:xmltok.obj
 0004:00000e1c       $pdata$little2_prologTok   0000000180041e1c     libexpat:xmltok.obj
 0004:00000e28       $pdata$1$little2_prologTok 0000000180041e28     libexpat:xmltok.obj
 0004:00000e34       $pdata$3$little2_prologTok 0000000180041e34     libexpat:xmltok.obj
 0004:00000e40       $pdata$5$little2_prologTok 0000000180041e40     libexpat:xmltok.obj
 0004:00000e4c       $pdata$7$little2_prologTok 0000000180041e4c     libexpat:xmltok.obj
 0004:00000e58       $pdata$9$little2_prologTok 0000000180041e58     libexpat:xmltok.obj
 0004:00000e64       $pdata$11$little2_prologTok 0000000180041e64     libexpat:xmltok.obj
 0004:00000e70       $pdata$13$little2_prologTok 0000000180041e70     libexpat:xmltok.obj
 0004:00000e7c       $pdata$15$little2_prologTok 0000000180041e7c     libexpat:xmltok.obj
 0004:00000e88       $pdata$17$little2_prologTok 0000000180041e88     libexpat:xmltok.obj
 0004:00000e94       $pdata$19$little2_prologTok 0000000180041e94     libexpat:xmltok.obj
 0004:00000ea0       $pdata$21$little2_prologTok 0000000180041ea0     libexpat:xmltok.obj
 0004:00000eac       $pdata$23$little2_prologTok 0000000180041eac     libexpat:xmltok.obj
 0004:00000eb8       $pdata$25$little2_prologTok 0000000180041eb8     libexpat:xmltok.obj
 0004:00000ec4       $pdata$27$little2_prologTok 0000000180041ec4     libexpat:xmltok.obj
 0004:00000ed0       $pdata$29$little2_prologTok 0000000180041ed0     libexpat:xmltok.obj
 0004:00000edc       $pdata$31$little2_prologTok 0000000180041edc     libexpat:xmltok.obj
 0004:00000ee8       $pdata$33$little2_prologTok 0000000180041ee8     libexpat:xmltok.obj
 0004:00000ef4       $pdata$35$little2_prologTok 0000000180041ef4     libexpat:xmltok.obj
 0004:00000f00       $pdata$37$little2_prologTok 0000000180041f00     libexpat:xmltok.obj
 0004:00000f0c       $pdata$39$little2_prologTok 0000000180041f0c     libexpat:xmltok.obj
 0004:00000f18       $pdata$41$little2_prologTok 0000000180041f18     libexpat:xmltok.obj
 0004:00000f24       $pdata$43$little2_prologTok 0000000180041f24     libexpat:xmltok.obj
 0004:00000f30       $pdata$45$little2_prologTok 0000000180041f30     libexpat:xmltok.obj
 0004:00000f3c       $pdata$47$little2_prologTok 0000000180041f3c     libexpat:xmltok.obj
 0004:00000f48       $pdata$49$little2_prologTok 0000000180041f48     libexpat:xmltok.obj
 0004:00000f54       $pdata$51$little2_prologTok 0000000180041f54     libexpat:xmltok.obj
 0004:00000f60       $pdata$55$little2_prologTok 0000000180041f60     libexpat:xmltok.obj
 0004:00000f6c       $pdata$57$little2_prologTok 0000000180041f6c     libexpat:xmltok.obj
 0004:00000f78       $pdata$58$little2_prologTok 0000000180041f78     libexpat:xmltok.obj
 0004:00000f84       $pdata$59$little2_prologTok 0000000180041f84     libexpat:xmltok.obj
 0004:00000f90       $pdata$little2_attributeValueTok 0000000180041f90     libexpat:xmltok.obj
 0004:00000f9c       $pdata$0$little2_attributeValueTok 0000000180041f9c     libexpat:xmltok.obj
 0004:00000fa8       $pdata$2$little2_attributeValueTok 0000000180041fa8     libexpat:xmltok.obj
 0004:00000fb4       $pdata$4$little2_attributeValueTok 0000000180041fb4     libexpat:xmltok.obj
 0004:00000fc0       $pdata$6$little2_attributeValueTok 0000000180041fc0     libexpat:xmltok.obj
 0004:00000fcc       $pdata$8$little2_attributeValueTok 0000000180041fcc     libexpat:xmltok.obj
 0004:00000fd8       $pdata$10$little2_attributeValueTok 0000000180041fd8     libexpat:xmltok.obj
 0004:00000fe4       $pdata$12$little2_attributeValueTok 0000000180041fe4     libexpat:xmltok.obj
 0004:00000ff0       $pdata$13$little2_attributeValueTok 0000000180041ff0     libexpat:xmltok.obj
 0004:00000ffc       $pdata$little2_entityValueTok 0000000180041ffc     libexpat:xmltok.obj
 0004:00001008       $pdata$2$little2_entityValueTok 0000000180042008     libexpat:xmltok.obj
 0004:00001014       $pdata$4$little2_entityValueTok 0000000180042014     libexpat:xmltok.obj
 0004:00001020       $pdata$6$little2_entityValueTok 0000000180042020     libexpat:xmltok.obj
 0004:0000102c       $pdata$8$little2_entityValueTok 000000018004202c     libexpat:xmltok.obj
 0004:00001038       $pdata$10$little2_entityValueTok 0000000180042038     libexpat:xmltok.obj
 0004:00001044       $pdata$little2_ignoreSectionTok 0000000180042044     libexpat:xmltok.obj
 0004:00001050       $pdata$little2_isPublicId  0000000180042050     libexpat:xmltok.obj
 0004:0000105c       $pdata$little2_getAtts     000000018004205c     libexpat:xmltok.obj
 0004:00001068       $pdata$little2_charRefNumber 0000000180042068     libexpat:xmltok.obj
 0004:00001074       $pdata$big2_scanComment    0000000180042074     libexpat:xmltok.obj
 0004:00001080       $pdata$big2_scanDecl       0000000180042080     libexpat:xmltok.obj
 0004:0000108c       $pdata$0$big2_scanDecl     000000018004208c     libexpat:xmltok.obj
 0004:00001098       $pdata$2$big2_scanDecl     0000000180042098     libexpat:xmltok.obj
 0004:000010a4       $pdata$4$big2_scanDecl     00000001800420a4     libexpat:xmltok.obj
 0004:000010b0       $pdata$5$big2_scanDecl     00000001800420b0     libexpat:xmltok.obj
 0004:000010bc       $pdata$big2_scanPi         00000001800420bc     libexpat:xmltok.obj
 0004:000010c8       $pdata$3$big2_scanPi       00000001800420c8     libexpat:xmltok.obj
 0004:000010d4       $pdata$5$big2_scanPi       00000001800420d4     libexpat:xmltok.obj
 0004:000010e0       $pdata$6$big2_scanPi       00000001800420e0     libexpat:xmltok.obj
 0004:000010ec       $pdata$8$big2_scanPi       00000001800420ec     libexpat:xmltok.obj
 0004:000010f8       $pdata$10$big2_scanPi      00000001800420f8     libexpat:xmltok.obj
 0004:00001104       $pdata$11$big2_scanPi      0000000180042104     libexpat:xmltok.obj
 0004:00001110       $pdata$big2_cdataSectionTok 0000000180042110     libexpat:xmltok.obj
 0004:0000111c       $pdata$big2_scanEndTag     000000018004211c     libexpat:xmltok.obj
 0004:00001128       $pdata$0$big2_scanEndTag   0000000180042128     libexpat:xmltok.obj
 0004:00001134       $pdata$2$big2_scanEndTag   0000000180042134     libexpat:xmltok.obj
 0004:00001140       $pdata$4$big2_scanEndTag   0000000180042140     libexpat:xmltok.obj
 0004:0000114c       $pdata$6$big2_scanEndTag   000000018004214c     libexpat:xmltok.obj
 0004:00001158       $pdata$8$big2_scanEndTag   0000000180042158     libexpat:xmltok.obj
 0004:00001164       $pdata$10$big2_scanEndTag  0000000180042164     libexpat:xmltok.obj
 0004:00001170       $pdata$12$big2_scanEndTag  0000000180042170     libexpat:xmltok.obj
 0004:0000117c       $pdata$14$big2_scanEndTag  000000018004217c     libexpat:xmltok.obj
 0004:00001188       $pdata$16$big2_scanEndTag  0000000180042188     libexpat:xmltok.obj
 0004:00001194       $pdata$17$big2_scanEndTag  0000000180042194     libexpat:xmltok.obj
 0004:000011a0       $pdata$big2_scanRef        00000001800421a0     libexpat:xmltok.obj
 0004:000011ac       $pdata$0$big2_scanRef      00000001800421ac     libexpat:xmltok.obj
 0004:000011b8       $pdata$2$big2_scanRef      00000001800421b8     libexpat:xmltok.obj
 0004:000011c4       $pdata$4$big2_scanRef      00000001800421c4     libexpat:xmltok.obj
 0004:000011d0       $pdata$6$big2_scanRef      00000001800421d0     libexpat:xmltok.obj
 0004:000011dc       $pdata$8$big2_scanRef      00000001800421dc     libexpat:xmltok.obj
 0004:000011e8       $pdata$10$big2_scanRef     00000001800421e8     libexpat:xmltok.obj
 0004:000011f4       $pdata$12$big2_scanRef     00000001800421f4     libexpat:xmltok.obj
 0004:00001200       $pdata$14$big2_scanRef     0000000180042200     libexpat:xmltok.obj
 0004:0000120c       $pdata$16$big2_scanRef     000000018004220c     libexpat:xmltok.obj
 0004:00001218       $pdata$18$big2_scanRef     0000000180042218     libexpat:xmltok.obj
 0004:00001224       $pdata$19$big2_scanRef     0000000180042224     libexpat:xmltok.obj
 0004:00001230       $pdata$big2_scanAtts       0000000180042230     libexpat:xmltok.obj
 0004:0000123c       $pdata$big2_scanLt         000000018004223c     libexpat:xmltok.obj
 0004:00001248       $pdata$3$big2_scanLt       0000000180042248     libexpat:xmltok.obj
 0004:00001254       $pdata$5$big2_scanLt       0000000180042254     libexpat:xmltok.obj
 0004:00001260       $pdata$6$big2_scanLt       0000000180042260     libexpat:xmltok.obj
 0004:0000126c       $pdata$8$big2_scanLt       000000018004226c     libexpat:xmltok.obj
 0004:00001278       $pdata$10$big2_scanLt      0000000180042278     libexpat:xmltok.obj
 0004:00001284       $pdata$12$big2_scanLt      0000000180042284     libexpat:xmltok.obj
 0004:00001290       $pdata$14$big2_scanLt      0000000180042290     libexpat:xmltok.obj
 0004:0000129c       $pdata$16$big2_scanLt      000000018004229c     libexpat:xmltok.obj
 0004:000012a8       $pdata$18$big2_scanLt      00000001800422a8     libexpat:xmltok.obj
 0004:000012b4       $pdata$20$big2_scanLt      00000001800422b4     libexpat:xmltok.obj
 0004:000012c0       $pdata$22$big2_scanLt      00000001800422c0     libexpat:xmltok.obj
 0004:000012cc       $pdata$24$big2_scanLt      00000001800422cc     libexpat:xmltok.obj
 0004:000012d8       $pdata$25$big2_scanLt      00000001800422d8     libexpat:xmltok.obj
 0004:000012e4       $pdata$big2_contentTok     00000001800422e4     libexpat:xmltok.obj
 0004:000012f0       $pdata$big2_scanPercent    00000001800422f0     libexpat:xmltok.obj
 0004:000012fc       $pdata$0$big2_scanPercent  00000001800422fc     libexpat:xmltok.obj
 0004:00001308       $pdata$2$big2_scanPercent  0000000180042308     libexpat:xmltok.obj
 0004:00001314       $pdata$4$big2_scanPercent  0000000180042314     libexpat:xmltok.obj
 0004:00001320       $pdata$6$big2_scanPercent  0000000180042320     libexpat:xmltok.obj
 0004:0000132c       $pdata$8$big2_scanPercent  000000018004232c     libexpat:xmltok.obj
 0004:00001338       $pdata$10$big2_scanPercent 0000000180042338     libexpat:xmltok.obj
 0004:00001344       $pdata$12$big2_scanPercent 0000000180042344     libexpat:xmltok.obj
 0004:00001350       $pdata$14$big2_scanPercent 0000000180042350     libexpat:xmltok.obj
 0004:0000135c       $pdata$16$big2_scanPercent 000000018004235c     libexpat:xmltok.obj
 0004:00001368       $pdata$18$big2_scanPercent 0000000180042368     libexpat:xmltok.obj
 0004:00001374       $pdata$19$big2_scanPercent 0000000180042374     libexpat:xmltok.obj
 0004:00001380       $pdata$big2_scanPoundName  0000000180042380     libexpat:xmltok.obj
 0004:0000138c       $pdata$0$big2_scanPoundName 000000018004238c     libexpat:xmltok.obj
 0004:00001398       $pdata$2$big2_scanPoundName 0000000180042398     libexpat:xmltok.obj
 0004:000013a4       $pdata$4$big2_scanPoundName 00000001800423a4     libexpat:xmltok.obj
 0004:000013b0       $pdata$6$big2_scanPoundName 00000001800423b0     libexpat:xmltok.obj
 0004:000013bc       $pdata$8$big2_scanPoundName 00000001800423bc     libexpat:xmltok.obj
 0004:000013c8       $pdata$10$big2_scanPoundName 00000001800423c8     libexpat:xmltok.obj
 0004:000013d4       $pdata$12$big2_scanPoundName 00000001800423d4     libexpat:xmltok.obj
 0004:000013e0       $pdata$14$big2_scanPoundName 00000001800423e0     libexpat:xmltok.obj
 0004:000013ec       $pdata$15$big2_scanPoundName 00000001800423ec     libexpat:xmltok.obj
 0004:000013f8       $pdata$big2_scanLit        00000001800423f8     libexpat:xmltok.obj
 0004:00001404       $pdata$big2_prologTok      0000000180042404     libexpat:xmltok.obj
 0004:00001410       $pdata$1$big2_prologTok    0000000180042410     libexpat:xmltok.obj
 0004:0000141c       $pdata$3$big2_prologTok    000000018004241c     libexpat:xmltok.obj
 0004:00001428       $pdata$5$big2_prologTok    0000000180042428     libexpat:xmltok.obj
 0004:00001434       $pdata$7$big2_prologTok    0000000180042434     libexpat:xmltok.obj
 0004:00001440       $pdata$9$big2_prologTok    0000000180042440     libexpat:xmltok.obj
 0004:0000144c       $pdata$11$big2_prologTok   000000018004244c     libexpat:xmltok.obj
 0004:00001458       $pdata$13$big2_prologTok   0000000180042458     libexpat:xmltok.obj
 0004:00001464       $pdata$15$big2_prologTok   0000000180042464     libexpat:xmltok.obj
 0004:00001470       $pdata$17$big2_prologTok   0000000180042470     libexpat:xmltok.obj
 0004:0000147c       $pdata$19$big2_prologTok   000000018004247c     libexpat:xmltok.obj
 0004:00001488       $pdata$21$big2_prologTok   0000000180042488     libexpat:xmltok.obj
 0004:00001494       $pdata$23$big2_prologTok   0000000180042494     libexpat:xmltok.obj
 0004:000014a0       $pdata$25$big2_prologTok   00000001800424a0     libexpat:xmltok.obj
 0004:000014ac       $pdata$27$big2_prologTok   00000001800424ac     libexpat:xmltok.obj
 0004:000014b8       $pdata$29$big2_prologTok   00000001800424b8     libexpat:xmltok.obj
 0004:000014c4       $pdata$31$big2_prologTok   00000001800424c4     libexpat:xmltok.obj
 0004:000014d0       $pdata$33$big2_prologTok   00000001800424d0     libexpat:xmltok.obj
 0004:000014dc       $pdata$35$big2_prologTok   00000001800424dc     libexpat:xmltok.obj
 0004:000014e8       $pdata$37$big2_prologTok   00000001800424e8     libexpat:xmltok.obj
 0004:000014f4       $pdata$39$big2_prologTok   00000001800424f4     libexpat:xmltok.obj
 0004:00001500       $pdata$41$big2_prologTok   0000000180042500     libexpat:xmltok.obj
 0004:0000150c       $pdata$43$big2_prologTok   000000018004250c     libexpat:xmltok.obj
 0004:00001518       $pdata$45$big2_prologTok   0000000180042518     libexpat:xmltok.obj
 0004:00001524       $pdata$47$big2_prologTok   0000000180042524     libexpat:xmltok.obj
 0004:00001530       $pdata$49$big2_prologTok   0000000180042530     libexpat:xmltok.obj
 0004:0000153c       $pdata$51$big2_prologTok   000000018004253c     libexpat:xmltok.obj
 0004:00001548       $pdata$55$big2_prologTok   0000000180042548     libexpat:xmltok.obj
 0004:00001554       $pdata$57$big2_prologTok   0000000180042554     libexpat:xmltok.obj
 0004:00001560       $pdata$58$big2_prologTok   0000000180042560     libexpat:xmltok.obj
 0004:0000156c       $pdata$59$big2_prologTok   000000018004256c     libexpat:xmltok.obj
 0004:00001578       $pdata$big2_attributeValueTok 0000000180042578     libexpat:xmltok.obj
 0004:00001584       $pdata$0$big2_attributeValueTok 0000000180042584     libexpat:xmltok.obj
 0004:00001590       $pdata$2$big2_attributeValueTok 0000000180042590     libexpat:xmltok.obj
 0004:0000159c       $pdata$4$big2_attributeValueTok 000000018004259c     libexpat:xmltok.obj
 0004:000015a8       $pdata$6$big2_attributeValueTok 00000001800425a8     libexpat:xmltok.obj
 0004:000015b4       $pdata$8$big2_attributeValueTok 00000001800425b4     libexpat:xmltok.obj
 0004:000015c0       $pdata$10$big2_attributeValueTok 00000001800425c0     libexpat:xmltok.obj
 0004:000015cc       $pdata$12$big2_attributeValueTok 00000001800425cc     libexpat:xmltok.obj
 0004:000015d8       $pdata$13$big2_attributeValueTok 00000001800425d8     libexpat:xmltok.obj
 0004:000015e4       $pdata$big2_entityValueTok 00000001800425e4     libexpat:xmltok.obj
 0004:000015f0       $pdata$2$big2_entityValueTok 00000001800425f0     libexpat:xmltok.obj
 0004:000015fc       $pdata$4$big2_entityValueTok 00000001800425fc     libexpat:xmltok.obj
 0004:00001608       $pdata$6$big2_entityValueTok 0000000180042608     libexpat:xmltok.obj
 0004:00001614       $pdata$8$big2_entityValueTok 0000000180042614     libexpat:xmltok.obj
 0004:00001620       $pdata$10$big2_entityValueTok 0000000180042620     libexpat:xmltok.obj
 0004:0000162c       $pdata$big2_ignoreSectionTok 000000018004262c     libexpat:xmltok.obj
 0004:00001638       $pdata$big2_isPublicId     0000000180042638     libexpat:xmltok.obj
 0004:00001644       $pdata$big2_getAtts        0000000180042644     libexpat:xmltok.obj
 0004:00001650       $pdata$big2_charRefNumber  0000000180042650     libexpat:xmltok.obj
 0004:0000165c       $pdata$toAscii             000000018004265c     libexpat:xmltok.obj
 0004:00001668       $pdata$parsePseudoAttribute 0000000180042668     libexpat:xmltok.obj
 0004:00001674       $pdata$doParseXmlDecl      0000000180042674     libexpat:xmltok.obj
 0004:00001680       $pdata$0$doParseXmlDecl    0000000180042680     libexpat:xmltok.obj
 0004:0000168c       $pdata$2$doParseXmlDecl    000000018004268c     libexpat:xmltok.obj
 0004:00001698       $pdata$3$doParseXmlDecl    0000000180042698     libexpat:xmltok.obj
 0004:000016a4       $pdata$unknown_isName      00000001800426a4     libexpat:xmltok.obj
 0004:000016b0       $pdata$unknown_isNmstrt    00000001800426b0     libexpat:xmltok.obj
 0004:000016bc       $pdata$unknown_isInvalid   00000001800426bc     libexpat:xmltok.obj
 0004:000016c8       $pdata$unknown_toUtf8      00000001800426c8     libexpat:xmltok.obj
 0004:000016d4       $pdata$unknown_toUtf16     00000001800426d4     libexpat:xmltok.obj
 0004:000016e0       $pdata$XmlInitUnknownEncoding 00000001800426e0     libexpat:xmltok.obj
 0004:000016ec       $pdata$2$XmlInitUnknownEncoding 00000001800426ec     libexpat:xmltok.obj
 0004:000016f8       $pdata$3$XmlInitUnknownEncoding 00000001800426f8     libexpat:xmltok.obj
 0004:00001704       $pdata$4$XmlInitUnknownEncoding 0000000180042704     libexpat:xmltok.obj
 0004:00001710       $pdata$getEncodingIndex    0000000180042710     libexpat:xmltok.obj
 0004:0000171c       $pdata$0$getEncodingIndex  000000018004271c     libexpat:xmltok.obj
 0004:00001728       $pdata$2$getEncodingIndex  0000000180042728     libexpat:xmltok.obj
 0004:00001734       $pdata$initScanProlog      0000000180042734     libexpat:xmltok.obj
 0004:00001740       $pdata$0$initScanProlog    0000000180042740     libexpat:xmltok.obj
 0004:0000174c       $pdata$2$initScanProlog    000000018004274c     libexpat:xmltok.obj
 0004:00001758       $pdata$4$initScanProlog    0000000180042758     libexpat:xmltok.obj
 0004:00001764       $pdata$6$initScanProlog    0000000180042764     libexpat:xmltok.obj
 0004:00001770       $pdata$8$initScanProlog    0000000180042770     libexpat:xmltok.obj
 0004:0000177c       $pdata$10$initScanProlog   000000018004277c     libexpat:xmltok.obj
 0004:00001788       $pdata$12$initScanProlog   0000000180042788     libexpat:xmltok.obj
 0004:00001794       $pdata$initScanContent     0000000180042794     libexpat:xmltok.obj
 0004:000017a0       $pdata$XmlInitEncoding     00000001800427a0     libexpat:xmltok.obj
 0004:000017ac       $pdata$findEncoding        00000001800427ac     libexpat:xmltok.obj
 0004:000017b8       $pdata$0$findEncoding      00000001800427b8     libexpat:xmltok.obj
 0004:000017c4       $pdata$1$findEncoding      00000001800427c4     libexpat:xmltok.obj
 0004:000017d0       $pdata$XmlParseXmlDecl     00000001800427d0     libexpat:xmltok.obj
 0004:000017dc       $pdata$initScanPrologNS    00000001800427dc     libexpat:xmltok.obj
 0004:000017e8       $pdata$0$initScanPrologNS  00000001800427e8     libexpat:xmltok.obj
 0004:000017f4       $pdata$2$initScanPrologNS  00000001800427f4     libexpat:xmltok.obj
 0004:00001800       $pdata$4$initScanPrologNS  0000000180042800     libexpat:xmltok.obj
 0004:0000180c       $pdata$6$initScanPrologNS  000000018004280c     libexpat:xmltok.obj
 0004:00001818       $pdata$8$initScanPrologNS  0000000180042818     libexpat:xmltok.obj
 0004:00001824       $pdata$10$initScanPrologNS 0000000180042824     libexpat:xmltok.obj
 0004:00001830       $pdata$12$initScanPrologNS 0000000180042830     libexpat:xmltok.obj
 0004:0000183c       $pdata$initScanContentNS   000000018004283c     libexpat:xmltok.obj
 0004:00001848       $pdata$XmlInitEncodingNS   0000000180042848     libexpat:xmltok.obj
 0004:00001854       $pdata$findEncodingNS      0000000180042854     libexpat:xmltok.obj
 0004:00001860       $pdata$0$findEncodingNS    0000000180042860     libexpat:xmltok.obj
 0004:0000186c       $pdata$1$findEncodingNS    000000018004286c     libexpat:xmltok.obj
 0004:00001878       $pdata$XmlParseXmlDeclNS   0000000180042878     libexpat:xmltok.obj
 0004:00001884       $pdata$XmlInitUnknownEncodingNS 0000000180042884     libexpat:xmltok.obj
 0004:00001890       $pdata$prolog0             0000000180042890     libexpat:xmlrole.obj
 0004:0000189c       $pdata$prolog1             000000018004289c     libexpat:xmlrole.obj
 0004:000018a8       $pdata$doctype1            00000001800428a8     libexpat:xmlrole.obj
 0004:000018b4       $pdata$0$doctype1          00000001800428b4     libexpat:xmlrole.obj
 0004:000018c0       $pdata$1$doctype1          00000001800428c0     libexpat:xmlrole.obj
 0004:000018cc       $pdata$2$doctype1          00000001800428cc     libexpat:xmlrole.obj
 0004:000018d8       $pdata$3$doctype1          00000001800428d8     libexpat:xmlrole.obj
 0004:000018e4       $pdata$internalSubset      00000001800428e4     libexpat:xmlrole.obj
 0004:000018f0       $pdata$entity2             00000001800428f0     libexpat:xmlrole.obj
 0004:000018fc       $pdata$0$entity2           00000001800428fc     libexpat:xmlrole.obj
 0004:00001908       $pdata$1$entity2           0000000180042908     libexpat:xmlrole.obj
 0004:00001914       $pdata$2$entity2           0000000180042914     libexpat:xmlrole.obj
 0004:00001920       $pdata$3$entity2           0000000180042920     libexpat:xmlrole.obj
 0004:0000192c       $pdata$entity5             000000018004292c     libexpat:xmlrole.obj
 0004:00001938       $pdata$entity7             0000000180042938     libexpat:xmlrole.obj
 0004:00001944       $pdata$0$entity7           0000000180042944     libexpat:xmlrole.obj
 0004:00001950       $pdata$1$entity7           0000000180042950     libexpat:xmlrole.obj
 0004:0000195c       $pdata$2$entity7           000000018004295c     libexpat:xmlrole.obj
 0004:00001968       $pdata$3$entity7           0000000180042968     libexpat:xmlrole.obj
 0004:00001974       $pdata$notation1           0000000180042974     libexpat:xmlrole.obj
 0004:00001980       $pdata$0$notation1         0000000180042980     libexpat:xmlrole.obj
 0004:0000198c       $pdata$1$notation1         000000018004298c     libexpat:xmlrole.obj
 0004:00001998       $pdata$2$notation1         0000000180042998     libexpat:xmlrole.obj
 0004:000019a4       $pdata$3$notation1         00000001800429a4     libexpat:xmlrole.obj
 0004:000019b0       $pdata$attlist2            00000001800429b0     libexpat:xmlrole.obj
 0004:000019bc       $pdata$3$attlist2          00000001800429bc     libexpat:xmlrole.obj
 0004:000019c8       $pdata$5$attlist2          00000001800429c8     libexpat:xmlrole.obj
 0004:000019d4       $pdata$6$attlist2          00000001800429d4     libexpat:xmlrole.obj
 0004:000019e0       $pdata$attlist8            00000001800429e0     libexpat:xmlrole.obj
 0004:000019ec       $pdata$0$attlist8          00000001800429ec     libexpat:xmlrole.obj
 0004:000019f8       $pdata$1$attlist8          00000001800429f8     libexpat:xmlrole.obj
 0004:00001a04       $pdata$2$attlist8          0000000180042a04     libexpat:xmlrole.obj
 0004:00001a10       $pdata$3$attlist8          0000000180042a10     libexpat:xmlrole.obj
 0004:00001a1c       $pdata$element1            0000000180042a1c     libexpat:xmlrole.obj
 0004:00001a28       $pdata$0$element1          0000000180042a28     libexpat:xmlrole.obj
 0004:00001a34       $pdata$1$element1          0000000180042a34     libexpat:xmlrole.obj
 0004:00001a40       $pdata$2$element1          0000000180042a40     libexpat:xmlrole.obj
 0004:00001a4c       $pdata$3$element1          0000000180042a4c     libexpat:xmlrole.obj
 0004:00001a58       $pdata$element2            0000000180042a58     libexpat:xmlrole.obj
 0004:00001a64       $pdata$condSect0           0000000180042a64     libexpat:xmlrole.obj
 0004:00001a70       $pdata$0$condSect0         0000000180042a70     libexpat:xmlrole.obj
 0004:00001a7c       $pdata$1$condSect0         0000000180042a7c     libexpat:xmlrole.obj
 0004:00001a88       $pdata$2$condSect0         0000000180042a88     libexpat:xmlrole.obj
 0004:00001a94       $pdata$3$condSect0         0000000180042a94     libexpat:xmlrole.obj
 0004:00001ab8       $pdata$??2@YAPEAX_K@Z      0000000180042ab8     LIBCMT:new_scalar.obj
 0004:00001ac4       $pdata$?dllmain_crt_dispatch@@YAHQEAUHINSTANCE__@@KQEAX@Z 0000000180042ac4     LIBCMT:dll_dllmain.obj
 0004:00001ad0       $pdata$?dllmain_crt_process_attach@@YAHQEAUHINSTANCE__@@QEAX@Z 0000000180042ad0     LIBCMT:dll_dllmain.obj
 0004:00001adc       $pdata$?dllmain_crt_process_detach@@YAH_N@Z 0000000180042adc     LIBCMT:dll_dllmain.obj
 0004:00001ae8       $pdata$?dllmain_dispatch@@YAHQEAUHINSTANCE__@@KQEAX@Z 0000000180042ae8     LIBCMT:dll_dllmain.obj
 0004:00001af4       $pdata$?dllmain_raw@@YAHQEAUHINSTANCE__@@KQEAX@Z 0000000180042af4     LIBCMT:dll_dllmain.obj
 0004:00001b00       $pdata$_DllMainCRTStartup  0000000180042b00     LIBCMT:dll_dllmain.obj
 0004:00001b0c       $pdata$__raise_securityfailure 0000000180042b0c     LIBCMT:gs_report.obj
 0004:00001b18       $pdata$__report_gsfailure  0000000180042b18     LIBCMT:gs_report.obj
 0004:00001b24       $pdata$__report_rangecheckfailure 0000000180042b24     LIBCMT:gs_report.obj
 0004:00001b30       $pdata$__report_securityfailure 0000000180042b30     LIBCMT:gs_report.obj
 0004:00001b3c       $pdata$capture_current_context 0000000180042b3c     LIBCMT:gs_report.obj
 0004:00001b48       $pdata$capture_previous_context 0000000180042b48     LIBCMT:gs_report.obj
 0004:00001b54       $pdata$??0bad_alloc@std@@QEAA@AEBV01@@Z 0000000180042b54     LIBCMT:throw_bad_alloc.obj
 0004:00001b60       $pdata$??0bad_array_new_length@std@@QEAA@AEBV01@@Z 0000000180042b60     LIBCMT:throw_bad_alloc.obj
 0004:00001b6c       $pdata$??0exception@std@@QEAA@AEBV01@@Z 0000000180042b6c     LIBCMT:throw_bad_alloc.obj
 0004:00001b78       $pdata$??_Gbad_alloc@std@@UEAAPEAXI@Z 0000000180042b78     LIBCMT:throw_bad_alloc.obj
 0004:00001b78       $pdata$??_Gexception@std@@UEAAPEAXI@Z 0000000180042b78     LIBCMT:throw_bad_alloc.obj
 0004:00001b78       $pdata$??_Gbad_array_new_length@std@@UEAAPEAXI@Z 0000000180042b78     LIBCMT:throw_bad_alloc.obj
 0004:00001b84       $pdata$?__scrt_throw_std_bad_alloc@@YAXXZ 0000000180042b84     LIBCMT:throw_bad_alloc.obj
 0004:00001b90       $pdata$?__scrt_throw_std_bad_array_new_length@@YAXXZ 0000000180042b90     LIBCMT:throw_bad_alloc.obj
 0004:00001b9c       $pdata$__scrt_acquire_startup_lock 0000000180042b9c     LIBCMT:utility.obj
 0004:00001ba8       $pdata$__scrt_dllmain_after_initialize_c 0000000180042ba8     LIBCMT:utility.obj
 0004:00001bb4       $pdata$__scrt_dllmain_before_initialize_c 0000000180042bb4     LIBCMT:utility.obj
 0004:00001bc0       $pdata$__scrt_dllmain_crt_thread_attach 0000000180042bc0     LIBCMT:utility.obj
 0004:00001bcc       $pdata$__scrt_dllmain_crt_thread_detach 0000000180042bcc     LIBCMT:utility.obj
 0004:00001bd8       $pdata$__scrt_dllmain_exception_filter 0000000180042bd8     LIBCMT:utility.obj
 0004:00001be4       $pdata$__scrt_dllmain_uninitialize_c 0000000180042be4     LIBCMT:utility.obj
 0004:00001bf0       $pdata$__scrt_dllmain_uninitialize_critical 0000000180042bf0     LIBCMT:utility.obj
 0004:00001bfc       $pdata$__scrt_initialize_crt 0000000180042bfc     LIBCMT:utility.obj
 0004:00001c08       $pdata$__scrt_initialize_onexit_tables 0000000180042c08     LIBCMT:utility.obj
 0004:00001c14       $pdata$__scrt_is_nonwritable_in_current_image 0000000180042c14     LIBCMT:utility.obj
 0004:00001c20       $pdata$__scrt_release_startup_lock 0000000180042c20     LIBCMT:utility.obj
 0004:00001c2c       $pdata$__scrt_uninitialize_crt 0000000180042c2c     LIBCMT:utility.obj
 0004:00001c38       $pdata$_onexit             0000000180042c38     LIBCMT:utility.obj
 0004:00001c44       $pdata$atexit              0000000180042c44     LIBCMT:utility.obj
 0004:00001c50       $pdata$__security_init_cookie 0000000180042c50     LIBCMT:gs_support.obj
 0004:00001c5c       $pdata$__scrt_initialize_default_local_stdio_options 0000000180042c5c     LIBCMT:default_local_stdio_options.obj
 0004:00001c68       $pdata$__scrt_fastfail     0000000180042c68     LIBCMT:utility_desktop.obj
 0004:00001c74       $pdata$_RTC_Initialize     0000000180042c74     LIBCMT:_initsect_.obj
 0004:00001c80       $pdata$_RTC_Terminate      0000000180042c80     LIBCMT:_initsect_.obj
 0004:00001c8c       $pdata$??_Gtype_info@@UEAAPEAXI@Z 0000000180042c8c     LIBCMT:std_type_info_static.obj
 0004:00001c98       $pdata$__isa_available_init 0000000180042c98     LIBCMT:_cpu_disp_.obj
 0004:00001cb0       $pdata$__telemetry_main_invoke_trigger 0000000180042cb0     libvcruntime:telemetry.obj
 0004:00001cbc       $pdata$__telemetry_main_return_trigger 0000000180042cbc     libvcruntime:telemetry.obj
 0004:00001cc8       $pdata$__vcrt_uninitialize_telemetry_provider 0000000180042cc8     libvcruntime:telemetry.obj
 0004:00001cd4       $pdata$__C_specific_handler 0000000180042cd4     libvcruntime:_chandler_.obj
 0004:00001ce0       $pdata$__std_exception_copy 0000000180042ce0     libvcruntime:std_exception.obj
 0004:00001cec       $pdata$__std_exception_destroy 0000000180042cec     libvcruntime:std_exception.obj
 0004:00001cf8       $pdata$_CxxThrowException  0000000180042cf8     libvcruntime:throw.obj
 0004:00001d04       $pdata$__vcrt_initialize   0000000180042d04     libvcruntime:initialization.obj
 0004:00001d10       $pdata$__vcrt_thread_attach 0000000180042d10     libvcruntime:initialization.obj
 0004:00001d1c       $pdata$__vcrt_thread_detach 0000000180042d1c     libvcruntime:initialization.obj
 0004:00001d28       $pdata$__vcrt_uninitialize 0000000180042d28     libvcruntime:initialization.obj
 0004:00001d34       $pdata$__vcrt_uninitialize_critical 0000000180042d34     libvcruntime:initialization.obj
 0004:00001d40       $pdata$__std_type_info_destroy_list 0000000180042d40     libvcruntime:std_type_info.obj
 0004:00001d58       $pdata$?try_get_function@@YAPEAXW4function_id@?A0x49c8dc86@@QEBDQEBW4module_id@2@2@Z 0000000180042d58     libvcruntime:winapi_downlevel.obj
 0004:00001d64       $pdata$__vcrt_EventRegister 0000000180042d64     libvcruntime:winapi_downlevel.obj
 0004:00001d70       $pdata$__vcrt_EventSetInformation 0000000180042d70     libvcruntime:winapi_downlevel.obj
 0004:00001d7c       $pdata$__vcrt_EventUnregister 0000000180042d7c     libvcruntime:winapi_downlevel.obj
 0004:00001d88       $pdata$__vcrt_EventWriteTransfer 0000000180042d88     libvcruntime:winapi_downlevel.obj
 0004:00001d94       $pdata$__vcrt_FlsAlloc     0000000180042d94     libvcruntime:winapi_downlevel.obj
 0004:00001da0       $pdata$__vcrt_FlsFree      0000000180042da0     libvcruntime:winapi_downlevel.obj
 0004:00001dac       $pdata$__vcrt_FlsGetValue  0000000180042dac     libvcruntime:winapi_downlevel.obj
 0004:00001db8       $pdata$__vcrt_FlsSetValue  0000000180042db8     libvcruntime:winapi_downlevel.obj
 0004:00001dc4       $pdata$__vcrt_InitializeCriticalSectionEx 0000000180042dc4     libvcruntime:winapi_downlevel.obj
 0004:00001dd0       $pdata$__vcrt_initialize_winapi_thunks 0000000180042dd0     libvcruntime:winapi_downlevel.obj
 0004:00001ddc       $pdata$__vcrt_uninitialize_winapi_thunks 0000000180042ddc     libvcruntime:winapi_downlevel.obj
 0004:00001e18       $pdata$__vcrt_freefls      0000000180042e18     libvcruntime:per_thread_data.obj
 0004:00001e24       $pdata$__vcrt_freeptd      0000000180042e24     libvcruntime:per_thread_data.obj
 0004:00001e30       $pdata$__vcrt_getptd_noexit 0000000180042e30     libvcruntime:per_thread_data.obj
 0004:00001e3c       $pdata$__vcrt_initialize_ptd 0000000180042e3c     libvcruntime:per_thread_data.obj
 0004:00001e48       $pdata$__vcrt_uninitialize_ptd 0000000180042e48     libvcruntime:per_thread_data.obj
 0004:00001e54       $pdata$__vcrt_initialize_locks 0000000180042e54     libvcruntime:locks.obj
 0004:00001e60       $pdata$__vcrt_uninitialize_locks 0000000180042e60     libvcruntime:locks.obj
 0004:00001e6c       $pdata$??$common_assert_to_message_box@_W@@YAXQEB_W0IQEAX@Z 0000000180042e6c     libucrt:assert.obj
 0004:00001e78       $pdata$??$common_assert_to_message_box_build_string@_W@@YAXQEA_W_KQEB_W2IQEAX@Z 0000000180042e78     libucrt:assert.obj
 0004:00001e84       $pdata$??$common_assert_to_stderr@_W@@YAXQEB_W0I@Z 0000000180042e84     libucrt:assert.obj
 0004:00001e90       $pdata$_wassert            0000000180042e90     libucrt:assert.obj
 0004:00001e9c       $pdata$fwprintf            0000000180042e9c     libucrt:assert.obj
 0004:00001ea8       $pdata$swprintf            0000000180042ea8     libucrt:assert.obj
 0004:00001eb4       $pdata$??0_LocaleUpdate@@QEAA@QEAU__crt_locale_pointers@@@Z 0000000180042eb4     libucrt:stricmp.obj
 0004:00001ec0       $pdata$_stricmp            0000000180042ec0     libucrt:stricmp.obj
 0004:00001ecc       $pdata$_stricmp_l          0000000180042ecc     libucrt:stricmp.obj
 0004:00001ed8       $pdata$_callnewh           0000000180042ed8     libucrt:new_handler.obj
 0004:00001ee4       $pdata$_query_new_handler  0000000180042ee4     libucrt:new_handler.obj
 0004:00001ef0       $pdata$_initterm           0000000180042ef0     libucrt:initterm.obj
 0004:00001efc       $pdata$_initterm_e         0000000180042efc     libucrt:initterm.obj
 0004:00001f08       $pdata$_seh_filter_exe     0000000180042f08     libucrt:exception_filter.obj
 0004:00001f14       $pdata$?common_exit@@YAXHW4_crt_exit_cleanup_mode@@W4_crt_exit_return_mode@@@Z 0000000180042f14     libucrt:exit.obj
 0004:00001f20       $pdata$?exit_or_terminate_process@@YAXI@Z 0000000180042f20     libucrt:exit.obj
 0004:00001f2c       $pdata$?try_cor_exit_process@@YAXI@Z 0000000180042f2c     libucrt:exit.obj
 0004:00001f38       $pdata$??$parse_command_line@D@@YAXPEADPEAPEAD0PEA_K2@Z 0000000180042f38     libucrt:argv_parsing.obj
 0004:00001f44       $pdata$__acrt_allocate_buffer_for_argv 0000000180042f44     libucrt:argv_parsing.obj
 0004:00001f50       $pdata$_configure_narrow_argv 0000000180042f50     libucrt:argv_parsing.obj
 0004:00001f5c       $pdata$??$common_initialize_environment_nolock@D@@YAHXZ 0000000180042f5c     libucrt:environment_initialization.obj
 0004:00001f68       $pdata$??$create_environment@D@@YAQEAPEADQEAD@Z 0000000180042f68     libucrt:environment_initialization.obj
 0004:00001f74       $pdata$??$free_environment@_W@@YAXQEAPEA_W@Z 0000000180042f74     libucrt:environment_initialization.obj
 0004:00001f74       $pdata$??$free_environment@D@@YAXQEAPEAD@Z 0000000180042f74     libucrt:environment_initialization.obj
 0004:00001f80       $pdata$??$uninitialize_environment_internal@D@@YAXAEAPEAPEAD@Z 0000000180042f80     libucrt:environment_initialization.obj
 0004:00001f8c       $pdata$??$uninitialize_environment_internal@_W@@YAXAEAPEAPEA_W@Z 0000000180042f8c     libucrt:environment_initialization.obj
 0004:00001f98       $pdata$__dcrt_uninitialize_environments_nolock 0000000180042f98     libucrt:environment_initialization.obj
 0004:00001fa4       $pdata$??$?RV<lambda_b8c45f8f788dd370798f47cfe8ac3a86>@@AEAV<lambda_4e60a939b0d047cfe11ddc22648dfba9>@@V<lambda_332c3edc96d0294ec56c57d38c1cdfd5>@@@?$__crt_seh_guarded_call@H@@QEAAH$$QEAV<lambda_b8c45f8f788dd370798f47cfe8ac3a86>@@AEAV<lambda_4e60a939b0d047cfe11ddc22648dfba9>@@$$QEAV<lambda_332c3edc96d0294ec56c57d38c1cdfd5>@@@Z 0000000180042fa4     libucrt:onexit.obj
 0004:00001fb0       $pdata$??$?RV<lambda_e24bbb7b643b32fcea6fa61b31d4c984>@@AEAV<lambda_275893d493268fdec8709772e3fcec0e>@@V<lambda_9d71df4d7cf3f480f8d633942495c3b0>@@@?$__crt_seh_guarded_call@H@@QEAAH$$QEAV<lambda_e24bbb7b643b32fcea6fa61b31d4c984>@@AEAV<lambda_275893d493268fdec8709772e3fcec0e>@@$$QEAV<lambda_9d71df4d7cf3f480f8d633942495c3b0>@@@Z 0000000180042fb0     libucrt:onexit.obj
 0004:00001fbc       $pdata$??R<lambda_4e60a939b0d047cfe11ddc22648dfba9>@@QEBAHXZ 0000000180042fbc     libucrt:onexit.obj
 0004:00001fc8       $pdata$_execute_onexit_table 0000000180042fc8     libucrt:onexit.obj
 0004:00001fd4       $pdata$_register_onexit_function 0000000180042fd4     libucrt:onexit.obj
 0004:00001fe0       $pdata$initialize_c        0000000180042fe0     libucrt:initialization.obj
 0004:00001fec       $pdata$uninitialize_environment 0000000180042fec     libucrt:initialization.obj
 0004:00001ff8       $pdata$initialize_pointers 0000000180042ff8     libucrt:initialization.obj
 0004:00002004       $pdata$uninitialize_allocated_memory 0000000180043004     libucrt:initialization.obj
 0004:00002010       $pdata$__acrt_thread_attach 0000000180043010     libucrt:initialization.obj
 0004:0000201c       $pdata$__acrt_thread_detach 000000018004301c     libucrt:initialization.obj
 0004:00002028       $pdata$__acrt_uninitialize_critical 0000000180043028     libucrt:initialization.obj
 0004:00002034       $pdata$terminate           0000000180043034     libucrt:terminate.obj
 0004:00002040       $pdata$strcpy_s            0000000180043040     libucrt:strcpy_s.obj
 0004:0000204c       $pdata$_free_base          000000018004304c     libucrt:free_base.obj
 0004:00002058       $pdata$_malloc_base        0000000180043058     libucrt:malloc_base.obj
 0004:00002064       $pdata$abort               0000000180043064     libucrt:abort.obj
 0004:00002070       $pdata$_calloc_base        0000000180043070     libucrt:calloc_base.obj
 0004:0000207c       $pdata$??$?RV<lambda_7b91131dde12e1c3dfc74ff76b3f2eac>@@AEAV<lambda_dd75445284c072d0bd3768540cc698fa>@@V<lambda_16bc4ecb55b4718497c16bceaea2ceaf>@@@?$__crt_seh_guarded_call@H@@QEAAH$$QEAV<lambda_7b91131dde12e1c3dfc74ff76b3f2eac>@@AEAV<lambda_dd75445284c072d0bd3768540cc698fa>@@$$QEAV<lambda_16bc4ecb55b4718497c16bceaea2ceaf>@@@Z 000000018004307c     libucrt:output.obj
 0004:00002088       $pdata$??$ensure_buffer_is_big_enough@D@formatting_buffer@__crt_stdio_output@@QEAA_N_K@Z 0000000180043088     libucrt:output.obj
 0004:00002094       $pdata$??$type_case_integer_parse_into_buffer@I@?$output_processor@_WV?$stream_output_adapter@_W@__crt_stdio_output@@V?$standard_base@_WV?$stream_output_adapter@_W@__crt_stdio_output@@@2@@__crt_stdio_output@@AEAAXII_N@Z 0000000180043094     libucrt:output.obj
 0004:00002094       $pdata$??$type_case_integer_parse_into_buffer@I@?$output_processor@_WV?$string_output_adapter@_W@__crt_stdio_output@@V?$standard_base@_WV?$string_output_adapter@_W@__crt_stdio_output@@@2@@__crt_stdio_output@@AEAAXII_N@Z 0000000180043094     libucrt:output.obj
 0004:000020a0       $pdata$??$type_case_integer_parse_into_buffer@_K@?$output_processor@_WV?$stream_output_adapter@_W@__crt_stdio_output@@V?$standard_base@_WV?$stream_output_adapter@_W@__crt_stdio_output@@@2@@__crt_stdio_output@@AEAAX_KI_N@Z 00000001800430a0     libucrt:output.obj
 0004:000020a0       $pdata$??$type_case_integer_parse_into_buffer@_K@?$output_processor@_WV?$string_output_adapter@_W@__crt_stdio_output@@V?$standard_base@_WV?$string_output_adapter@_W@__crt_stdio_output@@@2@@__crt_stdio_output@@AEAAX_KI_N@Z 00000001800430a0     libucrt:output.obj
 0004:000020ac       $pdata$??$write_multiple_characters@V?$stream_output_adapter@_W@__crt_stdio_output@@D@__crt_stdio_output@@YAXAEBV?$stream_output_adapter@_W@0@DHQEAH@Z 00000001800430ac     libucrt:output.obj
 0004:000020b8       $pdata$??$write_multiple_characters@V?$string_output_adapter@_W@__crt_stdio_output@@D@__crt_stdio_output@@YAXAEBV?$string_output_adapter@_W@0@DHQEAH@Z 00000001800430b8     libucrt:output.obj
 0004:000020c4       $pdata$??0?$output_processor@_WV?$stream_output_adapter@_W@__crt_stdio_output@@V?$standard_base@_WV?$stream_output_adapter@_W@__crt_stdio_output@@@2@@__crt_stdio_output@@QEAA@AEBV?$stream_output_adapter@_W@1@_KQEB_WQEAU__crt_locale_pointers@@QEAD@Z 00000001800430c4     libucrt:output.obj
 0004:000020c4       $pdata$??0?$output_processor@_WV?$string_output_adapter@_W@__crt_stdio_output@@V?$standard_base@_WV?$string_output_adapter@_W@__crt_stdio_output@@@2@@__crt_stdio_output@@QEAA@AEBV?$string_output_adapter@_W@1@_KQEB_WQEAU__crt_locale_pointers@@QEAD@Z 00000001800430c4     libucrt:output.obj
 0004:000020d0       $pdata$??R<lambda_dd75445284c072d0bd3768540cc698fa>@@QEBAHXZ 00000001800430d0     libucrt:output.obj
 0004:000020dc       $pdata$?force_decimal_point@__crt_stdio_output@@YAXPEADQEAU__crt_locale_pointers@@@Z 00000001800430dc     libucrt:output.obj
 0004:000020e8       $pdata$?parse_int_from_format_string@?$output_processor@_WV?$stream_output_adapter@_W@__crt_stdio_output@@V?$standard_base@_WV?$stream_output_adapter@_W@__crt_stdio_output@@@2@@__crt_stdio_output@@AEAA_NQEAH@Z 00000001800430e8     libucrt:output.obj
 0004:000020e8       $pdata$?parse_int_from_format_string@?$output_processor@_WV?$string_output_adapter@_W@__crt_stdio_output@@V?$standard_base@_WV?$string_output_adapter@_W@__crt_stdio_output@@@2@@__crt_stdio_output@@AEAA_NQEAH@Z 00000001800430e8     libucrt:output.obj
 0004:000020f4       $pdata$?process@?$output_processor@_WV?$stream_output_adapter@_W@__crt_stdio_output@@V?$standard_base@_WV?$stream_output_adapter@_W@__crt_stdio_output@@@2@@__crt_stdio_output@@QEAAHXZ 00000001800430f4     libucrt:output.obj
 0004:00002100       $pdata$?process@?$output_processor@_WV?$string_output_adapter@_W@__crt_stdio_output@@V?$standard_base@_WV?$string_output_adapter@_W@__crt_stdio_output@@@2@@__crt_stdio_output@@QEAAHXZ 0000000180043100     libucrt:output.obj
 0004:0000210c       $pdata$?state_case_size@?$output_processor@_WV?$stream_output_adapter@_W@__crt_stdio_output@@V?$standard_base@_WV?$stream_output_adapter@_W@__crt_stdio_output@@@2@@__crt_stdio_output@@AEAA_NXZ 000000018004310c     libucrt:output.obj
 0004:00002118       $pdata$?state_case_size@?$output_processor@_WV?$string_output_adapter@_W@__crt_stdio_output@@V?$standard_base@_WV?$string_output_adapter@_W@__crt_stdio_output@@@2@@__crt_stdio_output@@AEAA_NXZ 0000000180043118     libucrt:output.obj
 0004:00002124       $pdata$?state_case_type@?$output_processor@_WV?$stream_output_adapter@_W@__crt_stdio_output@@V?$standard_base@_WV?$stream_output_adapter@_W@__crt_stdio_output@@@2@@__crt_stdio_output@@AEAA_NXZ 0000000180043124     libucrt:output.obj
 0004:00002130       $pdata$?state_case_type@?$output_processor@_WV?$string_output_adapter@_W@__crt_stdio_output@@V?$standard_base@_WV?$string_output_adapter@_W@__crt_stdio_output@@@2@@__crt_stdio_output@@AEAA_NXZ 0000000180043130     libucrt:output.obj
 0004:0000213c       $pdata$?type_case_Z@?$output_processor@_WV?$stream_output_adapter@_W@__crt_stdio_output@@V?$standard_base@_WV?$stream_output_adapter@_W@__crt_stdio_output@@@2@@__crt_stdio_output@@AEAA_NXZ 000000018004313c     libucrt:output.obj
 0004:0000213c       $pdata$?type_case_Z@?$output_processor@_WV?$string_output_adapter@_W@__crt_stdio_output@@V?$standard_base@_WV?$string_output_adapter@_W@__crt_stdio_output@@@2@@__crt_stdio_output@@AEAA_NXZ 000000018004313c     libucrt:output.obj
 0004:00002148       $pdata$?type_case_a@?$output_processor@_WV?$stream_output_adapter@_W@__crt_stdio_output@@V?$standard_base@_WV?$stream_output_adapter@_W@__crt_stdio_output@@@2@@__crt_stdio_output@@AEAA_NXZ 0000000180043148     libucrt:output.obj
 0004:00002148       $pdata$?type_case_a@?$output_processor@_WV?$string_output_adapter@_W@__crt_stdio_output@@V?$standard_base@_WV?$string_output_adapter@_W@__crt_stdio_output@@@2@@__crt_stdio_output@@AEAA_NXZ 0000000180043148     libucrt:output.obj
 0004:00002154       $pdata$?type_case_c_tchar@?$output_processor@_WV?$stream_output_adapter@_W@__crt_stdio_output@@V?$standard_base@_WV?$stream_output_adapter@_W@__crt_stdio_output@@@2@@__crt_stdio_output@@AEAA_N_W@Z 0000000180043154     libucrt:output.obj
 0004:00002154       $pdata$?type_case_c_tchar@?$output_processor@_WV?$string_output_adapter@_W@__crt_stdio_output@@V?$standard_base@_WV?$string_output_adapter@_W@__crt_stdio_output@@@2@@__crt_stdio_output@@AEAA_N_W@Z 0000000180043154     libucrt:output.obj
 0004:00002160       $pdata$?type_case_integer@?$output_processor@_WV?$stream_output_adapter@_W@__crt_stdio_output@@V?$standard_base@_WV?$stream_output_adapter@_W@__crt_stdio_output@@@2@@__crt_stdio_output@@AEAA_NI_N@Z 0000000180043160     libucrt:output.obj
 0004:00002160       $pdata$?type_case_integer@?$output_processor@_WV?$string_output_adapter@_W@__crt_stdio_output@@V?$standard_base@_WV?$string_output_adapter@_W@__crt_stdio_output@@@2@@__crt_stdio_output@@AEAA_NI_N@Z 0000000180043160     libucrt:output.obj
 0004:0000216c       $pdata$?type_case_n@?$output_processor@_WV?$string_output_adapter@_W@__crt_stdio_output@@V?$standard_base@_WV?$string_output_adapter@_W@__crt_stdio_output@@@2@@__crt_stdio_output@@AEAA_NXZ 000000018004316c     libucrt:output.obj
 0004:0000216c       $pdata$?type_case_n@?$output_processor@_WV?$stream_output_adapter@_W@__crt_stdio_output@@V?$standard_base@_WV?$stream_output_adapter@_W@__crt_stdio_output@@@2@@__crt_stdio_output@@AEAA_NXZ 000000018004316c     libucrt:output.obj
 0004:00002178       $pdata$?type_case_s@?$output_processor@_WV?$string_output_adapter@_W@__crt_stdio_output@@V?$standard_base@_WV?$string_output_adapter@_W@__crt_stdio_output@@@2@@__crt_stdio_output@@AEAA_NXZ 0000000180043178     libucrt:output.obj
 0004:00002178       $pdata$?type_case_s@?$output_processor@_WV?$stream_output_adapter@_W@__crt_stdio_output@@V?$standard_base@_WV?$stream_output_adapter@_W@__crt_stdio_output@@@2@@__crt_stdio_output@@AEAA_NXZ 0000000180043178     libucrt:output.obj
 0004:00002184       $pdata$?write_stored_string_tchar@?$output_processor@_WV?$stream_output_adapter@_W@__crt_stdio_output@@V?$standard_base@_WV?$stream_output_adapter@_W@__crt_stdio_output@@@2@@__crt_stdio_output@@AEAA_N_W@Z 0000000180043184     libucrt:output.obj
 0004:00002190       $pdata$?write_stored_string_tchar@?$output_processor@_WV?$string_output_adapter@_W@__crt_stdio_output@@V?$standard_base@_WV?$string_output_adapter@_W@__crt_stdio_output@@@2@@__crt_stdio_output@@AEAA_N_W@Z 0000000180043190     libucrt:output.obj
 0004:0000219c       $pdata$?write_string@?$stream_output_adapter@_W@__crt_stdio_output@@QEBAXQEB_WHQEAH1@Z 000000018004319c     libucrt:output.obj
 0004:000021a8       $pdata$?write_string@?$string_output_adapter@_W@__crt_stdio_output@@QEBAXQEB_WHQEAH1@Z 00000001800431a8     libucrt:output.obj
 0004:000021b4       $pdata$__stdio_common_vfwprintf 00000001800431b4     libucrt:output.obj
 0004:000021c0       $pdata$__stdio_common_vswprintf 00000001800431c0     libucrt:output.obj
 0004:000021cc       $pdata$??$parse_integer@KV?$c_string_character_source@_W@__crt_strtox@@@__crt_strtox@@YAKQEAU__crt_locale_pointers@@V?$c_string_character_source@_W@0@H_N@Z 00000001800431cc     libucrt:atox.obj
 0004:000021d8       $pdata$__acrt_call_reportfault 00000001800431d8     libucrt:invalid_parameter.obj
 0004:000021e4       $pdata$_invalid_parameter  00000001800431e4     libucrt:invalid_parameter.obj
 0004:000021f0       $pdata$_invalid_parameter_noinfo 00000001800431f0     libucrt:invalid_parameter.obj
 0004:000021fc       $pdata$_invoke_watson      00000001800431fc     libucrt:invalid_parameter.obj
 0004:00002208       $pdata$__acrt_errno_map_os_error 0000000180043208     libucrt:errno.obj
 0004:00002214       $pdata$__doserrno          0000000180043214     libucrt:errno.obj
 0004:00002220       $pdata$_errno              0000000180043220     libucrt:errno.obj
 0004:0000222c       $pdata$??$common_xtox@K_W@@YAHKQEA_W_KI_N@Z 000000018004322c     libucrt:xtoa.obj
 0004:00002238       $pdata$??$common_xtox_s@K_W@@YAHKQEA_W_KI_N@Z 0000000180043238     libucrt:xtoa.obj
 0004:00002244       $pdata$_itow_s             0000000180043244     libucrt:xtoa.obj
 0004:00002250       $pdata$_set_error_mode     0000000180043250     libucrt:set_error_mode.obj
 0004:0000225c       $pdata$wcscat_s            000000018004325c     libucrt:wcscat_s.obj
 0004:00002268       $pdata$wcscpy_s            0000000180043268     libucrt:wcscpy_s.obj
 0004:00002274       $pdata$wcsncat_s           0000000180043274     libucrt:wcsncat_s.obj
 0004:00002280       $pdata$??$message_box_wait_thread@_W@@YAKQEAX@Z 0000000180043280     libucrt:crtmbox.obj
 0004:0000228c       $pdata$__acrt_show_wide_message_box 000000018004328c     libucrt:crtmbox.obj
 0004:00002298       $pdata$__acrt_initialize_stdio 0000000180043298     libucrt:_file.obj
 0004:000022a4       $pdata$__acrt_uninitialize_stdio 00000001800432a4     libucrt:_file.obj
 0004:000022b0       $pdata$__acrt_stdio_flush_nolock 00000001800432b0     libucrt:fflush.obj
 0004:000022bc       $pdata$_fflush_nolock      00000001800432bc     libucrt:fflush.obj
 0004:000022c8       $pdata$common_flush_all    00000001800432c8     libucrt:fflush.obj
 0004:000022d4       $pdata$fflush              00000001800432d4     libucrt:fflush.obj
 0004:000022e0       $pdata$??$?RV<lambda_7a5ef57ff966f610505f1d28a3d40618>@@AEAV<lambda_b721fa326cdb32351d23dfa67958c160>@@V<lambda_5e0fb27672408a07956fe59e48ccb2aa>@@@?$__crt_seh_guarded_call@H@@QEAAH$$QEAV<lambda_7a5ef57ff966f610505f1d28a3d40618>@@AEAV<lambda_b721fa326cdb32351d23dfa67958c160>@@$$QEAV<lambda_5e0fb27672408a07956fe59e48ccb2aa>@@@Z 00000001800432e0     libucrt:setvbuf.obj
 0004:000022ec       $pdata$??R<lambda_b721fa326cdb32351d23dfa67958c160>@@QEBAHXZ 00000001800432ec     libucrt:setvbuf.obj
 0004:000022f8       $pdata$setvbuf             00000001800432f8     libucrt:setvbuf.obj
 0004:00002304       $pdata$??$?RV<lambda_c36588078e9f5dfd39652860aa6b3aaf>@@AEAV<lambda_ec61778202f4f5fc7e7711acc23c3bca>@@V<lambda_dc9d2797ccde5d239b4a0efae8ebd7db>@@@?$__crt_seh_guarded_call@P6AXH@Z@@QEAAP6AXH@Z$$QEAV<lambda_c36588078e9f5dfd39652860aa6b3aaf>@@AEAV<lambda_ec61778202f4f5fc7e7711acc23c3bca>@@$$QEAV<lambda_dc9d2797ccde5d239b4a0efae8ebd7db>@@@Z 0000000180043304     libucrt:signal.obj
 0004:00002310       $pdata$__acrt_get_sigabrt_handler 0000000180043310     libucrt:signal.obj
 0004:0000231c       $pdata$raise               000000018004331c     libucrt:signal.obj
 0004:00002328       $pdata$?internal_isupper_l@@YA_NHQEAU__crt_locale_pointers@@@Z 0000000180043328     libucrt:tolower_toupper.obj
 0004:00002334       $pdata$_tolower_l          0000000180043334     libucrt:tolower_toupper.obj
 0004:00002340       $pdata$tolower             0000000180043340     libucrt:tolower_toupper.obj
 0004:0000234c       $pdata$??$?RV<lambda_46352004c1216016012b18bd6f87e700>@@AEAV<lambda_3bd07e1a1191394380780325891bf33f>@@V<lambda_334532d3f185bcaa59b5be82d7d22bff>@@@?$__crt_seh_guarded_call@X@@QEAAX$$QEAV<lambda_46352004c1216016012b18bd6f87e700>@@AEAV<lambda_3bd07e1a1191394380780325891bf33f>@@$$QEAV<lambda_334532d3f185bcaa59b5be82d7d22bff>@@@Z 000000018004334c     libucrt:per_thread_data.obj
 0004:00002358       $pdata$??$?RV<lambda_5e887d1dcbef67a5eb4283622ba103bf>@@AEAV<lambda_4466841279450cc726390878d4a41900>@@V<lambda_341c25c0346d94847f1f3c463c57e077>@@@?$__crt_seh_guarded_call@X@@QEAAX$$QEAV<lambda_5e887d1dcbef67a5eb4283622ba103bf>@@AEAV<lambda_4466841279450cc726390878d4a41900>@@$$QEAV<lambda_341c25c0346d94847f1f3c463c57e077>@@@Z 0000000180043358     libucrt:per_thread_data.obj
 0004:00002364       $pdata$??$?RV<lambda_72d1df2b273a38828b1ce30cbf4cdab5>@@AEAV<lambda_876a65b173b8412d3a47c70a915b0cf4>@@V<lambda_41932305e351933ebe8f8be3ed8bb5dc>@@@?$__crt_seh_guarded_call@X@@QEAAX$$QEAV<lambda_72d1df2b273a38828b1ce30cbf4cdab5>@@AEAV<lambda_876a65b173b8412d3a47c70a915b0cf4>@@$$QEAV<lambda_41932305e351933ebe8f8be3ed8bb5dc>@@@Z 0000000180043364     libucrt:per_thread_data.obj
 0004:00002370       $pdata$??$?RV<lambda_fb3a7dec4e47f37f22dae91bb15c9095>@@AEAV<lambda_698284760c8add0bfb0756c19673e34b>@@V<lambda_dfb8eca1e75fef3034a8fb18dd509707>@@@?$__crt_seh_guarded_call@X@@QEAAX$$QEAV<lambda_fb3a7dec4e47f37f22dae91bb15c9095>@@AEAV<lambda_698284760c8add0bfb0756c19673e34b>@@$$QEAV<lambda_dfb8eca1e75fef3034a8fb18dd509707>@@@Z 0000000180043370     libucrt:per_thread_data.obj
 0004:0000237c       $pdata$?construct_ptd_array@@YAXQEAU__acrt_ptd@@@Z 000000018004337c     libucrt:per_thread_data.obj
 0004:00002388       $pdata$?destroy_fls@@YAXPEAX@Z 0000000180043388     libucrt:per_thread_data.obj
 0004:00002394       $pdata$?destroy_ptd_array@@YAXQEAU__acrt_ptd@@@Z 0000000180043394     libucrt:per_thread_data.obj
 0004:000023a0       $pdata$?replace_current_thread_locale_nolock@@YAXQEAU__acrt_ptd@@QEAU__crt_locale_data@@@Z 00000001800433a0     libucrt:per_thread_data.obj
 0004:000023ac       $pdata$__acrt_freeptd      00000001800433ac     libucrt:per_thread_data.obj
 0004:000023b8       $pdata$__acrt_getptd       00000001800433b8     libucrt:per_thread_data.obj
 0004:000023c4       $pdata$__acrt_getptd_noexit 00000001800433c4     libucrt:per_thread_data.obj
 0004:000023d0       $pdata$__acrt_initialize_ptd 00000001800433d0     libucrt:per_thread_data.obj
 0004:000023dc       $pdata$__acrt_uninitialize_ptd 00000001800433dc     libucrt:per_thread_data.obj
 0004:000023e8       $pdata$__acrt_update_locale_info 00000001800433e8     libucrt:locale_update.obj
 0004:000023f4       $pdata$__acrt_update_multibyte_info 00000001800433f4     libucrt:locale_update.obj
 0004:00002400       $pdata$__acrt_uninitialize_locale 0000000180043400     libucrt:wsetlocale.obj
 0004:0000240c       $pdata$_realloc_base       000000018004340c     libucrt:realloc_base.obj
 0004:00002418       $pdata$__acrt_initialize_locks 0000000180043418     libucrt:locks.obj
 0004:00002424       $pdata$__acrt_uninitialize_locks 0000000180043424     libucrt:locks.obj
 0004:00002430       $pdata$?try_get_function@@YAPEAXW4function_id@?A0x63058377@@QEBDQEBW4module_id@2@2@Z 0000000180043430     libucrt:winapi_thunks.obj
 0004:0000243c       $pdata$__acrt_FlsAlloc     000000018004343c     libucrt:winapi_thunks.obj
 0004:00002448       $pdata$__acrt_FlsFree      0000000180043448     libucrt:winapi_thunks.obj
 0004:00002454       $pdata$__acrt_FlsGetValue  0000000180043454     libucrt:winapi_thunks.obj
 0004:00002460       $pdata$__acrt_FlsSetValue  0000000180043460     libucrt:winapi_thunks.obj
 0004:0000246c       $pdata$__acrt_InitializeCriticalSectionEx 000000018004346c     libucrt:winapi_thunks.obj
 0004:00002478       $pdata$__acrt_LCMapStringEx 0000000180043478     libucrt:winapi_thunks.obj
 0004:00002484       $pdata$__acrt_LocaleNameToLCID 0000000180043484     libucrt:winapi_thunks.obj
 0004:00002490       $pdata$__acrt_MessageBoxW  0000000180043490     libucrt:winapi_thunks.obj
 0004:0000249c       $pdata$__acrt_can_show_message_box 000000018004349c     libucrt:winapi_thunks.obj
 0004:000024a8       $pdata$__acrt_get_parent_window 00000001800434a8     libucrt:winapi_thunks.obj
 0004:000024b4       $pdata$__acrt_initialize_winapi_thunks 00000001800434b4     libucrt:winapi_thunks.obj
 0004:000024c0       $pdata$__acrt_is_interactive 00000001800434c0     libucrt:winapi_thunks.obj
 0004:000024cc       $pdata$__acrt_is_packaged_app 00000001800434cc     libucrt:winapi_thunks.obj
 0004:000024d8       $pdata$__acrt_uninitialize_winapi_thunks 00000001800434d8     libucrt:winapi_thunks.obj
 0004:000024e4       $pdata$??$common_expand_argv_wildcards@D@@YAHQEAPEADQEAPEAPEAD@Z 00000001800434e4     libucrt:argv_wildcards.obj
 0004:000024f0       $pdata$??$copy_and_add_argument_to_buffer@D@@YAHQEBD0_KAEAV?$argument_list@D@?A0xca0879c4@@@Z 00000001800434f0     libucrt:argv_wildcards.obj
 0004:000024fc       $pdata$??$expand_argument_wildcards@D@@YAHQEAD0AEAV?$argument_list@D@?A0xca0879c4@@@Z 00000001800434fc     libucrt:argv_wildcards.obj
 0004:00002508       $pdata$?expand_if_necessary@?$argument_list@D@?A0xca0879c4@@AEAAHXZ 0000000180043508     libucrt:argv_wildcards.obj
 0004:00002514       $pdata$??$?RV<lambda_99476a1ad63dd22509b5d3e65b0ffc95>@@AEAV<lambda_ad1ced32f4ac17aa236e5ef05d6b3b7c>@@V<lambda_f7424dd8d45958661754dc4f2697e9c3>@@@?$__crt_seh_guarded_call@X@@QEAAX$$QEAV<lambda_99476a1ad63dd22509b5d3e65b0ffc95>@@AEAV<lambda_ad1ced32f4ac17aa236e5ef05d6b3b7c>@@$$QEAV<lambda_f7424dd8d45958661754dc4f2697e9c3>@@@Z 0000000180043514     libucrt:mbctype.obj
 0004:00002520       $pdata$??R<lambda_ad1ced32f4ac17aa236e5ef05d6b3b7c>@@QEBAXXZ 0000000180043520     libucrt:mbctype.obj
 0004:0000252c       $pdata$?getSystemCP@@YAHH@Z 000000018004352c     libucrt:mbctype.obj
 0004:00002538       $pdata$?setSBCS@@YAXPEAU__crt_multibyte_data@@@Z 0000000180043538     libucrt:mbctype.obj
 0004:00002544       $pdata$?setSBUpLow@@YAXPEAU__crt_multibyte_data@@@Z 0000000180043544     libucrt:mbctype.obj
 0004:00002550       $pdata$?setmbcp_internal@@YAHH_N@Z 0000000180043550     libucrt:mbctype.obj
 0004:0000255c       $pdata$__acrt_initialize_multibyte 000000018004355c     libucrt:mbctype.obj
 0004:00002568       $pdata$__acrt_update_thread_multibyte_data 0000000180043568     libucrt:mbctype.obj
 0004:00002574       $pdata$_setmbcp_nolock     0000000180043574     libucrt:mbctype.obj
 0004:00002580       $pdata$?x_ismbbtype_l@@YAHPEAU__crt_locale_pointers@@IHH@Z 0000000180043580     libucrt:ismbbyte.obj
 0004:0000258c       $pdata$__acrt_initialize_command_line 000000018004358c     libucrt:argv_data.obj
 0004:00002598       $pdata$__dcrt_get_narrow_environment_from_os 0000000180043598     libucrt:get_environment_from_os.obj
 0004:000025a4       $pdata$_recalloc_base      00000001800435a4     libucrt:recalloc.obj
 0004:000025b0       $pdata$__acrt_initialize_heap 00000001800435b0     libucrt:heap_handle.obj
 0004:000025bc       $pdata$?initialize_inherited_file_handles_nolock@@YAXXZ 00000001800435bc     libucrt:ioinit.obj
 0004:000025c8       $pdata$?initialize_stdio_handles_nolock@@YAXXZ 00000001800435c8     libucrt:ioinit.obj
 0004:000025d4       $pdata$__acrt_initialize_lowio 00000001800435d4     libucrt:ioinit.obj
 0004:000025e0       $pdata$__acrt_uninitialize_lowio 00000001800435e0     libucrt:ioinit.obj
 0004:000025ec       $pdata$__acrt_execute_initializers 00000001800435ec     libucrt:shared_initialization.obj
 0004:000025f8       $pdata$__acrt_execute_uninitializers 00000001800435f8     libucrt:shared_initialization.obj
 0004:00002604       $pdata$__acrt_invoke_user_matherr 0000000180043604     libucrt:matherr.obj
 0004:00002610       $pdata$__acrt_stdio_begin_temporary_buffering_nolock 0000000180043610     libucrt:_sftbuf.obj
 0004:0000261c       $pdata$__acrt_stdio_end_temporary_buffering_nolock 000000018004361c     libucrt:_sftbuf.obj
 0004:00002628       $pdata$isdigit             0000000180043628     libucrt:_ctype.obj
 0004:00002634       $pdata$wcstol              0000000180043634     libucrt:strtox.obj
 0004:00002640       $pdata$_mbtowc_l           0000000180043640     libucrt:mbtowc.obj
 0004:0000264c       $pdata$_wctomb_s_l         000000018004364c     libucrt:wctomb.obj
 0004:00002658       $pdata$wctomb_s            0000000180043658     libucrt:wctomb.obj
 0004:00002664       $pdata$wcsnlen             0000000180043664     libucrt:strnlen.obj
 0004:00002670       $pdata$?fp_format_a@@YAHQEBNPEAD_KQEAD2H_NIQEAU__crt_locale_pointers@@@Z 0000000180043670     libucrt:cvt.obj
 0004:0000267c       $pdata$?fp_format_e@@YAHQEBNQEAD_K12H_NIQEAU__crt_locale_pointers@@@Z 000000018004367c     libucrt:cvt.obj
 0004:00002688       $pdata$?fp_format_e_internal@@YAHQEAD_KH_NIQEAU_strflt@@2QEAU__crt_locale_pointers@@@Z 0000000180043688     libucrt:cvt.obj
 0004:00002694       $pdata$?fp_format_f_internal@@YAHQEAD_KHQEAU_strflt@@_NQEAU__crt_locale_pointers@@@Z 0000000180043694     libucrt:cvt.obj
 0004:000026a0       $pdata$?fp_format_g@@YAHQEBNQEAD_K12H_NIQEAU__crt_locale_pointers@@@Z 00000001800436a0     libucrt:cvt.obj
 0004:000026ac       $pdata$?fp_format_nan_or_infinity@@YAHW4__acrt_fp_class@@_NPEAD_K1@Z 00000001800436ac     libucrt:cvt.obj
 0004:000026b8       $pdata$__acrt_fp_format    00000001800436b8     libucrt:cvt.obj
 0004:000026c4       $pdata$_fputwc_nolock      00000001800436c4     libucrt:fputwc.obj
 0004:000026d0       $pdata$_fileno             00000001800436d0     libucrt:fileno.obj
 0004:000026dc       $pdata$__pctype_func       00000001800436dc     libucrt:ctype.obj
 0004:000026e8       $pdata$iswctype            00000001800436e8     libucrt:iswctype.obj
 0004:000026f4       $pdata$_isctype_l          00000001800436f4     libucrt:isctype.obj
 0004:00002700       $pdata$_fcloseall          0000000180043700     libucrt:closeall.obj
 0004:0000270c       $pdata$__acrt_stdio_free_buffer_nolock 000000018004370c     libucrt:_freebuf.obj
 0004:00002718       $pdata$??$?RV<lambda_b521505b218e5242e90febf6bfebc422>@@AEAV<lambda_6978c1fb23f02e42e1d9e99668cc68aa>@@V<lambda_314360699dd331753a4119843814e9a7>@@@?$__crt_seh_guarded_call@H@@QEAAH$$QEAV<lambda_b521505b218e5242e90febf6bfebc422>@@AEAV<lambda_6978c1fb23f02e42e1d9e99668cc68aa>@@$$QEAV<lambda_314360699dd331753a4119843814e9a7>@@@Z 0000000180043718     libucrt:commit.obj
 0004:00002724       $pdata$_commit             0000000180043724     libucrt:commit.obj
 0004:00002730       $pdata$?write_double_translated_ansi_nolock@@YA?AUwrite_result@?A0x9c548279@@HQEBDI@Z 0000000180043730     libucrt:write.obj
 0004:0000273c       $pdata$?write_text_ansi_nolock@@YA?AUwrite_result@?A0x9c548279@@HQEBDI@Z 000000018004373c     libucrt:write.obj
 0004:00002748       $pdata$?write_text_utf16le_nolock@@YA?AUwrite_result@?A0x9c548279@@HQEBDI@Z 0000000180043748     libucrt:write.obj
 0004:00002754       $pdata$?write_text_utf8_nolock@@YA?AUwrite_result@?A0x9c548279@@HQEBDI@Z 0000000180043754     libucrt:write.obj
 0004:00002760       $pdata$_write              0000000180043760     libucrt:write.obj
 0004:0000276c       $pdata$_write_nolock       000000018004376c     libucrt:write.obj
 0004:00002778       $pdata$_isleadbyte_l       0000000180043778     libucrt:_wctype.obj
 0004:00002784       $pdata$?__acrt_LCMapStringA_stat@@YAHPEAU__crt_locale_pointers@@PEB_WKPEBDHPEADHHH@Z 0000000180043784     libucrt:lcmapstringa.obj
 0004:00002790       $pdata$__acrt_LCMapStringA 0000000180043790     libucrt:lcmapstringa.obj
 0004:0000279c       $pdata$__acrt_free_locale  000000018004379c     libucrt:locale_refcounting.obj
 0004:000027a8       $pdata$__acrt_locale_free_lc_time_if_unreferenced 00000001800437a8     libucrt:locale_refcounting.obj
 0004:000027b4       $pdata$__acrt_release_locale_ref 00000001800437b4     libucrt:locale_refcounting.obj
 0004:000027c0       $pdata$__acrt_update_thread_locale_data 00000001800437c0     libucrt:locale_refcounting.obj
 0004:000027cc       $pdata$_updatetlocinfoEx_nolock 00000001800437cc     libucrt:locale_refcounting.obj
 0004:000027d8       $pdata$__acrt_locale_free_monetary 00000001800437d8     libucrt:initmon.obj
 0004:000027e4       $pdata$__acrt_locale_free_numeric 00000001800437e4     libucrt:initnum.obj
 0004:000027f0       $pdata$?free_crt_array_internal@@YAXQEAPEBX_K@Z 00000001800437f0     libucrt:inittime.obj
 0004:000027fc       $pdata$__acrt_locale_free_time 00000001800437fc     libucrt:inittime.obj
 0004:00002808       $pdata$__acrt_GetStringTypeA 0000000180043808     libucrt:getstringtypea.obj
 0004:00002814       $pdata$?GetTableIndexFromLocaleName@@YAHPEB_W@Z 0000000180043814     libucrt:lcidtoname_downlevel.obj
 0004:00002820       $pdata$__acrt_DownlevelLocaleNameToLCID 0000000180043820     libucrt:lcidtoname_downlevel.obj
 0004:0000282c       $pdata$?shortsort@@YAXPEAD0_KP6AHPEBX2@Z@Z 000000018004382c     libucrt:qsort.obj
 0004:00002838       $pdata$2$?shortsort@@YAXPEAD0_KP6AHPEBX2@Z@Z 0000000180043838     libucrt:qsort.obj
 0004:00002844       $pdata$3$?shortsort@@YAXPEAD0_KP6AHPEBX2@Z@Z 0000000180043844     libucrt:qsort.obj
 0004:00002850       $pdata$qsort               0000000180043850     libucrt:qsort.obj
 0004:0000285c       $pdata$4$qsort             000000018004385c     libucrt:qsort.obj
 0004:00002868       $pdata$5$qsort             0000000180043868     libucrt:qsort.obj
 0004:00002874       $pdata$strncpy_s           0000000180043874     libucrt:strncpy_s.obj
 0004:00002880       $pdata$strpbrk             0000000180043880     libucrt:strpbrk.obj
 0004:0000288c       $pdata$_mbsdec_l           000000018004388c     libucrt:mbsdec.obj
 0004:00002898       $pdata$?initialize_multibyte@@YAHXZ 0000000180043898     libucrt:multibyte_initializer.obj
 0004:000028a4       $pdata$_msize              00000001800438a4     libucrt:msize.obj
 0004:000028b0       $pdata$__acrt_lowio_create_handle_array 00000001800438b0     libucrt:osfinfo.obj
 0004:000028bc       $pdata$__acrt_lowio_destroy_handle_array 00000001800438bc     libucrt:osfinfo.obj
 0004:000028c8       $pdata$__acrt_lowio_ensure_fh_exists 00000001800438c8     libucrt:osfinfo.obj
 0004:000028d4       $pdata$_free_osfhnd        00000001800438d4     libucrt:osfinfo.obj
 0004:000028e0       $pdata$_get_osfhandle      00000001800438e0     libucrt:osfinfo.obj
 0004:000028ec       $pdata$_isatty             00000001800438ec     libucrt:isatty.obj
 0004:000028f8       $pdata$__acrt_fp_strflt_to_string 00000001800438f8     libucrt:_fptostr.obj
 0004:00002904       $pdata$?divide@__crt_strtox@@YA_KAEAUbig_integer@1@AEBU21@@Z 0000000180043904     libucrt:cfout.obj
 0004:00002910       $pdata$5$?divide@__crt_strtox@@YA_KAEAUbig_integer@1@AEBU21@@Z 0000000180043910     libucrt:cfout.obj
 0004:0000291c       $pdata$6$?divide@__crt_strtox@@YA_KAEAUbig_integer@1@AEBU21@@Z 000000018004391c     libucrt:cfout.obj
 0004:00002928       $pdata$__acrt_fltout       0000000180043928     libucrt:cfout.obj
 0004:00002934       $pdata$memcpy_s            0000000180043934     libucrt:cfout.obj
 0004:00002940       $pdata$??$write_buffer_nolock@D@@YA_NDV__crt_stdio_stream@@@Z 0000000180043940     libucrt:_flsbuf.obj
 0004:0000294c       $pdata$??$write_buffer_nolock@_W@@YA_N_WV__crt_stdio_stream@@@Z 000000018004394c     libucrt:_flsbuf.obj
 0004:00002958       $pdata$__acrt_stdio_flush_and_write_narrow_nolock 0000000180043958     libucrt:_flsbuf.obj
 0004:00002964       $pdata$__acrt_stdio_flush_and_write_wide_nolock 0000000180043964     libucrt:_flsbuf.obj
 0004:00002970       $pdata$_fclose_nolock      0000000180043970     libucrt:fclose.obj
 0004:0000297c       $pdata$fclose              000000018004397c     libucrt:fclose.obj
 0004:00002988       $pdata$??$common_lseek@_J@@YA_JH_JH@Z 0000000180043988     libucrt:lseek.obj
 0004:00002994       $pdata$??$common_lseek_nolock@_J@@YA_JH_JH@Z 0000000180043994     libucrt:lseek.obj
 0004:000029a0       $pdata$_putwch_nolock      00000001800439a0     libucrt:putwch.obj
 0004:000029ac       $pdata$fegetenv            00000001800439ac     libucrt:fegetenv.obj
 0004:000029b8       $pdata$fesetenv            00000001800439b8     libucrt:fesetenv.obj
 0004:000029c4       $pdata$feholdexcept        00000001800439c4     libucrt:feholdexcept.obj
 0004:000029dc       $pdata$__acrt_stdio_allocate_buffer_nolock 00000001800439dc     libucrt:_getbuf.obj
 0004:000029e8       $pdata$??$?RV<lambda_bfedae4ebbf01fab1bb6dcc6a9e276e0>@@AEAV<lambda_2fe9b910cf3cbf4a0ab98a02ba45b3ec>@@V<lambda_237c231691f317818eb88cc1d5d642d6>@@@?$__crt_seh_guarded_call@H@@QEAAH$$QEAV<lambda_bfedae4ebbf01fab1bb6dcc6a9e276e0>@@AEAV<lambda_2fe9b910cf3cbf4a0ab98a02ba45b3ec>@@$$QEAV<lambda_237c231691f317818eb88cc1d5d642d6>@@@Z 00000001800439e8     libucrt:close.obj
 0004:000029f4       $pdata$_close              00000001800439f4     libucrt:close.obj
 0004:00002a00       $pdata$_close_nolock       0000000180043a00     libucrt:close.obj
 0004:00002a0c       $pdata$__dcrt_lowio_initialize_console_output 0000000180043a0c     libucrt:initcon.obj
 0004:00002a18       $pdata$__dcrt_terminate_console_output 0000000180043a18     libucrt:initcon.obj
 0004:00002a24       $pdata$_getfpcontrolword   0000000180043a24     libucrt:_fenvutils.obj
 0004:00002a30       $pdata$_getfpstatusword    0000000180043a30     libucrt:_fenvutils.obj
 0004:00002a3c       $pdata$_setfpstatusword    0000000180043a3c     libucrt:_fenvutils.obj
 0004:00002a48       $pdata$_clearfp            0000000180043a48     libucrt:ieee.obj
 0004:00002a54       $pdata$common_control87    0000000180043a54     libucrt:ieee.obj
 0004:00002a60       $pdata$_call_matherr       0000000180043a60     libucrt:libm_error.obj
 0004:00002a6c       $pdata$_exception_enabled  0000000180043a6c     libucrt:libm_error.obj
 0004:00002a78       $pdata$_handle_error       0000000180043a78     libucrt:libm_error.obj
 0004:00002a84       $pdata$__acrt_initialize_fma3 0000000180043a84     libucrt:fma3_available.obj
 0004:00002a90       $pdata$_log10_special      0000000180043a90     libucrt:log_special.obj
 0004:00002a9c       $pdata$_log_special_common 0000000180043a9c     libucrt:log_special.obj
 0004:00002ab4       $pdata$_raise_exc          0000000180043ab4     libucrt:fpexcept.obj
 0004:00002ac0       $pdata$_raise_exc_ex       0000000180043ac0     libucrt:fpexcept.obj
 0004:00002acc       $pdata$_set_errno_from_matherr 0000000180043acc     libucrt:fpexcept.obj
 0004:00002ad8       $pdata$_clrfp              0000000180043ad8     libucrt:fpctrl.obj
 0004:00002ae4       $pdata$_ctrlfp             0000000180043ae4     libucrt:fpctrl.obj
 0004:00002af0       $pdata$_set_statfp         0000000180043af0     libucrt:fpctrl.obj
 0004:00002afc       $pdata$_statfp             0000000180043afc     libucrt:fpctrl.obj
 0004:00002b08       $pdata$?DloadAcquireSectionWriteAccess@@YAXXZ 0000000180043b08     DelayImp:delayhlp.obj
 0004:00002b14       $pdata$?DloadGetSRWLockFunctionPointers@@YAEXZ 0000000180043b14     DelayImp:delayhlp.obj
 0004:00002b20       $pdata$?DloadMakePermanentImageCommit@@YAXPEAX_K@Z 0000000180043b20     DelayImp:delayhlp.obj
 0004:00002b2c       $pdata$?DloadObtainSection@@YAPEAXPEAK0@Z 0000000180043b2c     DelayImp:delayhlp.obj
 0004:00002b38       $pdata$?DloadProtectSection@@YAXKPEAK@Z 0000000180043b38     DelayImp:delayhlp.obj
 0004:00002b44       $pdata$?DloadReleaseSectionWriteAccess@@YAXXZ 0000000180043b44     DelayImp:delayhlp.obj
 0004:00002b50       $pdata$__delayLoadHelper2  0000000180043b50     DelayImp:delayhlp.obj
 0004:00002b5c       $pdata$__GSHandlerCheck    0000000180043b5c     LIBCMT:_gshandler_.obj
 0004:00002b68       $pdata$__GSHandlerCheckCommon 0000000180043b68     LIBCMT:_gshandler_.obj
 0004:00002b74       $pdata$_IsNonwritableInCurrentImage 0000000180043b74     LIBCMT:pesect.obj
 0004:00002b98       $pdata$strrchr             0000000180043b98     libvcruntime:strrchr.obj
 0004:00002bb0       $pdata$?fin$0@?0??dllmain_crt_process_attach@@YAHQEAUHINSTANCE__@@QEAX@Z@4HA 0000000180043bb0     LIBCMT:dll_dllmain.obj
 0004:00002bbc       $pdata$?fin$0@?0??dllmain_crt_process_detach@@YAH_N@Z@4HA 0000000180043bbc     LIBCMT:dll_dllmain.obj
 0004:00002bc8       $pdata$?filt$0@?0??dllmain_dispatch@@YAHQEAUHINSTANCE__@@KQEAX@Z@4HA 0000000180043bc8     LIBCMT:dll_dllmain.obj
 0004:00002bd4       $pdata$__scrt_is_nonwritable_in_current_image$filt$0 0000000180043bd4     LIBCMT:utility.obj
 0004:00002be0       $pdata$_query_new_handler$fin$0 0000000180043be0     libucrt:new_handler.obj
 0004:00002bec       $pdata$?filt$0@?0??common_exit@@YAXHW4_crt_exit_cleanup_mode@@W4_crt_exit_return_mode@@@Z@4HA 0000000180043bec     libucrt:exit.obj
 0004:00002bf8       $pdata$?fin$1@?0??common_exit@@YAXHW4_crt_exit_cleanup_mode@@W4_crt_exit_return_mode@@@Z@4HA 0000000180043bf8     libucrt:exit.obj
 0004:00002c04       $pdata$?fin$0@?0???$?RV<lambda_e24bbb7b643b32fcea6fa61b31d4c984>@@AEAV<lambda_275893d493268fdec8709772e3fcec0e>@@V<lambda_9d71df4d7cf3f480f8d633942495c3b0>@@@?$__crt_seh_guarded_call@H@@QEAAH$$QEAV<lambda_e24bbb7b643b32fcea6fa61b31d4c984>@@AEAV<lambda_275893d493268fdec8709772e3fcec0e>@@$$QEAV<lambda_9d71df4d7cf3f480f8d633942495c3b0>@@@Z@4HA 0000000180043c04     libucrt:onexit.obj
 0004:00002c10       $pdata$?fin$0@?0???$?RV<lambda_7b91131dde12e1c3dfc74ff76b3f2eac>@@AEAV<lambda_dd75445284c072d0bd3768540cc698fa>@@V<lambda_16bc4ecb55b4718497c16bceaea2ceaf>@@@?$__crt_seh_guarded_call@H@@QEAAH$$QEAV<lambda_7b91131dde12e1c3dfc74ff76b3f2eac>@@AEAV<lambda_dd75445284c072d0bd3768540cc698fa>@@$$QEAV<lambda_16bc4ecb55b4718497c16bceaea2ceaf>@@@Z@4HA 0000000180043c10     libucrt:output.obj
 0004:00002c10       $pdata$?fin$0@?0???$?RV<lambda_7a5ef57ff966f610505f1d28a3d40618>@@AEAV<lambda_b721fa326cdb32351d23dfa67958c160>@@V<lambda_5e0fb27672408a07956fe59e48ccb2aa>@@@?$__crt_seh_guarded_call@H@@QEAAH$$QEAV<lambda_7a5ef57ff966f610505f1d28a3d40618>@@AEAV<lambda_b721fa326cdb32351d23dfa67958c160>@@$$QEAV<lambda_5e0fb27672408a07956fe59e48ccb2aa>@@@Z@4HA 0000000180043c10     libucrt:setvbuf.obj
 0004:00002c1c       $pdata$common_flush_all$fin$0 0000000180043c1c     libucrt:fflush.obj
 0004:00002c28       $pdata$common_flush_all$fin$1 0000000180043c28     libucrt:fflush.obj
 0004:00002c34       $pdata$fclose$fin$0        0000000180043c34     libucrt:fclose.obj
 0004:00002c34       $pdata$fflush$fin$0        0000000180043c34     libucrt:fflush.obj
 0004:00002c40       $pdata$raise$fin$0         0000000180043c40     libucrt:signal.obj
 0004:00002c4c       $pdata$__acrt_uninitialize_locale$fin$0 0000000180043c4c     libucrt:wsetlocale.obj
 0004:00002c4c       $pdata$__acrt_update_thread_locale_data$fin$0 0000000180043c4c     libucrt:locale_refcounting.obj
 0004:00002c58       $pdata$?fin$0@?0???$?RV<lambda_46352004c1216016012b18bd6f87e700>@@AEAV<lambda_3bd07e1a1191394380780325891bf33f>@@V<lambda_334532d3f185bcaa59b5be82d7d22bff>@@@?$__crt_seh_guarded_call@X@@QEAAX$$QEAV<lambda_46352004c1216016012b18bd6f87e700>@@AEAV<lambda_3bd07e1a1191394380780325891bf33f>@@$$QEAV<lambda_334532d3f185bcaa59b5be82d7d22bff>@@@Z@4HA 0000000180043c58     libucrt:per_thread_data.obj
 0004:00002c58       $pdata$?fin$0@?0???$?RV<lambda_c36588078e9f5dfd39652860aa6b3aaf>@@AEAV<lambda_ec61778202f4f5fc7e7711acc23c3bca>@@V<lambda_dc9d2797ccde5d239b4a0efae8ebd7db>@@@?$__crt_seh_guarded_call@P6AXH@Z@@QEAAP6AXH@Z$$QEAV<lambda_c36588078e9f5dfd39652860aa6b3aaf>@@AEAV<lambda_ec61778202f4f5fc7e7711acc23c3bca>@@$$QEAV<lambda_dc9d2797ccde5d239b4a0efae8ebd7db>@@@Z@4HA 0000000180043c58     libucrt:signal.obj
 0004:00002c58       $pdata$?fin$0@?0???$?RV<lambda_fb3a7dec4e47f37f22dae91bb15c9095>@@AEAV<lambda_698284760c8add0bfb0756c19673e34b>@@V<lambda_dfb8eca1e75fef3034a8fb18dd509707>@@@?$__crt_seh_guarded_call@X@@QEAAX$$QEAV<lambda_fb3a7dec4e47f37f22dae91bb15c9095>@@AEAV<lambda_698284760c8add0bfb0756c19673e34b>@@$$QEAV<lambda_dfb8eca1e75fef3034a8fb18dd509707>@@@Z@4HA 0000000180043c58     libucrt:per_thread_data.obj
 0004:00002c58       $pdata$?fin$0@?0???$?RV<lambda_5e887d1dcbef67a5eb4283622ba103bf>@@AEAV<lambda_4466841279450cc726390878d4a41900>@@V<lambda_341c25c0346d94847f1f3c463c57e077>@@@?$__crt_seh_guarded_call@X@@QEAAX$$QEAV<lambda_5e887d1dcbef67a5eb4283622ba103bf>@@AEAV<lambda_4466841279450cc726390878d4a41900>@@$$QEAV<lambda_341c25c0346d94847f1f3c463c57e077>@@@Z@4HA 0000000180043c58     libucrt:per_thread_data.obj
 0004:00002c58       $pdata$?fin$0@?0???$?RV<lambda_b8c45f8f788dd370798f47cfe8ac3a86>@@AEAV<lambda_4e60a939b0d047cfe11ddc22648dfba9>@@V<lambda_332c3edc96d0294ec56c57d38c1cdfd5>@@@?$__crt_seh_guarded_call@H@@QEAAH$$QEAV<lambda_b8c45f8f788dd370798f47cfe8ac3a86>@@AEAV<lambda_4e60a939b0d047cfe11ddc22648dfba9>@@$$QEAV<lambda_332c3edc96d0294ec56c57d38c1cdfd5>@@@Z@4HA 0000000180043c58     libucrt:onexit.obj
 0004:00002c58       $pdata$?fin$0@?0???$?RV<lambda_99476a1ad63dd22509b5d3e65b0ffc95>@@AEAV<lambda_ad1ced32f4ac17aa236e5ef05d6b3b7c>@@V<lambda_f7424dd8d45958661754dc4f2697e9c3>@@@?$__crt_seh_guarded_call@X@@QEAAX$$QEAV<lambda_99476a1ad63dd22509b5d3e65b0ffc95>@@AEAV<lambda_ad1ced32f4ac17aa236e5ef05d6b3b7c>@@$$QEAV<lambda_f7424dd8d45958661754dc4f2697e9c3>@@@Z@4HA 0000000180043c58     libucrt:mbctype.obj
 0004:00002c58       $pdata$?fin$0@?0???$?RV<lambda_72d1df2b273a38828b1ce30cbf4cdab5>@@AEAV<lambda_876a65b173b8412d3a47c70a915b0cf4>@@V<lambda_41932305e351933ebe8f8be3ed8bb5dc>@@@?$__crt_seh_guarded_call@X@@QEAAX$$QEAV<lambda_72d1df2b273a38828b1ce30cbf4cdab5>@@AEAV<lambda_876a65b173b8412d3a47c70a915b0cf4>@@$$QEAV<lambda_41932305e351933ebe8f8be3ed8bb5dc>@@@Z@4HA 0000000180043c58     libucrt:per_thread_data.obj
 0004:00002c64       $pdata$__acrt_update_thread_multibyte_data$fin$0 0000000180043c64     libucrt:mbctype.obj
 0004:00002c70       $pdata$__acrt_lowio_ensure_fh_exists$fin$0 0000000180043c70     libucrt:osfinfo.obj
 0004:00002c70       $pdata$__acrt_initialize_lowio$fin$0 0000000180043c70     libucrt:ioinit.obj
 0004:00002c7c       $pdata$_fcloseall$fin$0    0000000180043c7c     libucrt:closeall.obj
 0004:00002c88       $pdata$?fin$0@?0???$common_lseek@_J@@YA_JH_JH@Z@4HA 0000000180043c88     libucrt:lseek.obj
 0004:00002c88       $pdata$_write$fin$0        0000000180043c88     libucrt:write.obj
 0004:00002c94       $pdata$?fin$0@?0???$?RV<lambda_b521505b218e5242e90febf6bfebc422>@@AEAV<lambda_6978c1fb23f02e42e1d9e99668cc68aa>@@V<lambda_314360699dd331753a4119843814e9a7>@@@?$__crt_seh_guarded_call@H@@QEAAH$$QEAV<lambda_b521505b218e5242e90febf6bfebc422>@@AEAV<lambda_6978c1fb23f02e42e1d9e99668cc68aa>@@$$QEAV<lambda_314360699dd331753a4119843814e9a7>@@@Z@4HA 0000000180043c94     libucrt:commit.obj
 0004:00002c94       $pdata$?fin$0@?0???$?RV<lambda_bfedae4ebbf01fab1bb6dcc6a9e276e0>@@AEAV<lambda_2fe9b910cf3cbf4a0ab98a02ba45b3ec>@@V<lambda_237c231691f317818eb88cc1d5d642d6>@@@?$__crt_seh_guarded_call@H@@QEAAH$$QEAV<lambda_bfedae4ebbf01fab1bb6dcc6a9e276e0>@@AEAV<lambda_2fe9b910cf3cbf4a0ab98a02ba45b3ec>@@$$QEAV<lambda_237c231691f317818eb88cc1d5d642d6>@@@Z@4HA 0000000180043c94     libucrt:close.obj
 0004:00002ca0       $pdata$common_control87$filt$0 0000000180043ca0     libucrt:ieee.obj
 0004:00002ca0       $pdata$_ctrlfp$filt$0      0000000180043ca0     libucrt:fpctrl.obj
 0004:00002cac       $pdata$_IsNonwritableInCurrentImage$filt$0 0000000180043cac     LIBCMT:pesect.obj
 0005:00000000       __guard_fids__             0000000180044000     libucrt:initialization.obj
 0005:00000060       __guard_fids___acrt_show_wide_message_box 0000000180044060     libucrt:crtmbox.obj
 0005:00000064       __guard_fids___acrt_initialize_ptd 0000000180044064     libucrt:per_thread_data.obj
 0005:00000068       __guard_fids_??$expand_argument_wildcards@D@@YAHQEAD0AEAV?$argument_list@D@?A0xca0879c4@@@Z 0000000180044068     libucrt:argv_wildcards.obj
 0005:0000006c       __guard_fids__             000000018004406c     libucrt:stdio_initializer.obj
 0005:00000070       __guard_fids__             0000000180044070     libucrt:stdio_initializer.obj
 0005:00000074       __guard_fids__             0000000180044074     libucrt:locale_initializer.obj
 0005:00000078       __guard_fids__             0000000180044078     libucrt:multibyte_initializer.obj
 0005:0000007c       __guard_fids__             000000018004407c     libucrt:console_output_initializer.obj
 0005:00000080       __guard_fids__             0000000180044080     libucrt:fma3_initializer.obj
 0005:00000084       __guard_fids_?dllmain_crt_process_attach@@YAHQEAUHINSTANCE__@@QEAX@Z 0000000180044084     LIBCMT:dll_dllmain.obj
 0005:0000008c       __guard_fids_?dllmain_dispatch@@YAHQEAUHINSTANCE__@@KQEAX@Z 000000018004408c     LIBCMT:dll_dllmain.obj
 0005:00000090       __guard_fids__             0000000180044090     LIBCMT:throw_bad_alloc.obj
 0005:00000098       __guard_fids__             0000000180044098     LIBCMT:throw_bad_alloc.obj
 0005:000000a0       __guard_fids__             00000001800440a0     LIBCMT:throw_bad_alloc.obj
 0005:000000a8       __guard_fids__             00000001800440a8     LIBCMT:std_type_info_static.obj
 0005:000000ac       __guard_fids__             00000001800440ac     LIBCMT:guard_support.obj
 0005:000000b0       __guard_fids__             00000001800440b0     libvcruntime:telemetry.obj
 0005:000000b4       __guard_fids_?TraceLoggingRegister@__vcrt_trace_logging_provider@@YAJPEBU_TlgProvider_t@1@PEBU_GUID@@P6AX1KE_K2PEAU_EVENT_FILTER_DESCRIPTOR@@PEAX@Z4@Z 00000001800440b4     libvcruntime:telemetry.obj
 0005:000000b8       __guard_fids___vcrt_initialize_ptd 00000001800440b8     libvcruntime:per_thread_data.obj
 0006:00000060       $R000000                   0000000180045060     * linker generated manifest res *

 Exports

  ordinal    name

        1    _register_node_expat_
